ARM GAS  C:\Users\ashto\AppData\Local\Temp\ccBwLGhU.s 			page 1


   1              		.cpu cortex-m4
   2              		.arch armv7e-m
   3              		.fpu fpv4-sp-d16
   4              		.eabi_attribute 27, 1
   5              		.eabi_attribute 28, 1
   6              		.eabi_attribute 20, 1
   7              		.eabi_attribute 21, 1
   8              		.eabi_attribute 23, 3
   9              		.eabi_attribute 24, 1
  10              		.eabi_attribute 25, 1
  11              		.eabi_attribute 26, 1
  12              		.eabi_attribute 30, 1
  13              		.eabi_attribute 34, 1
  14              		.eabi_attribute 18, 4
  15              		.file	"stm32f4xx_hal_msp.c"
  16              		.text
  17              	.Ltext0:
  18              		.cfi_sections	.debug_frame
  19              		.section	.text.HAL_MspInit,"ax",%progbits
  20              		.align	1
  21              		.global	HAL_MspInit
  22              		.syntax unified
  23              		.thumb
  24              		.thumb_func
  26              	HAL_MspInit:
  27              	.LFB134:
  28              		.file 1 "Core/Src/stm32f4xx_hal_msp.c"
   1:Core/Src/stm32f4xx_hal_msp.c **** /* USER CODE BEGIN Header */
   2:Core/Src/stm32f4xx_hal_msp.c **** /**
   3:Core/Src/stm32f4xx_hal_msp.c ****   ******************************************************************************
   4:Core/Src/stm32f4xx_hal_msp.c ****   * @file         stm32f4xx_hal_msp.c
   5:Core/Src/stm32f4xx_hal_msp.c ****   * @brief        This file provides code for the MSP Initialization
   6:Core/Src/stm32f4xx_hal_msp.c ****   *               and de-Initialization codes.
   7:Core/Src/stm32f4xx_hal_msp.c ****   ******************************************************************************
   8:Core/Src/stm32f4xx_hal_msp.c ****   * @attention
   9:Core/Src/stm32f4xx_hal_msp.c ****   *
  10:Core/Src/stm32f4xx_hal_msp.c ****   * Copyright (c) 2024 STMicroelectronics.
  11:Core/Src/stm32f4xx_hal_msp.c ****   * All rights reserved.
  12:Core/Src/stm32f4xx_hal_msp.c ****   *
  13:Core/Src/stm32f4xx_hal_msp.c ****   * This software is licensed under terms that can be found in the LICENSE file
  14:Core/Src/stm32f4xx_hal_msp.c ****   * in the root directory of this software component.
  15:Core/Src/stm32f4xx_hal_msp.c ****   * If no LICENSE file comes with this software, it is provided AS-IS.
  16:Core/Src/stm32f4xx_hal_msp.c ****   *
  17:Core/Src/stm32f4xx_hal_msp.c ****   ******************************************************************************
  18:Core/Src/stm32f4xx_hal_msp.c ****   */
  19:Core/Src/stm32f4xx_hal_msp.c **** /* USER CODE END Header */
  20:Core/Src/stm32f4xx_hal_msp.c **** 
  21:Core/Src/stm32f4xx_hal_msp.c **** /* Includes ------------------------------------------------------------------*/
  22:Core/Src/stm32f4xx_hal_msp.c **** #include "main.h"
  23:Core/Src/stm32f4xx_hal_msp.c **** /* USER CODE BEGIN Includes */
  24:Core/Src/stm32f4xx_hal_msp.c **** 
  25:Core/Src/stm32f4xx_hal_msp.c **** /* USER CODE END Includes */
  26:Core/Src/stm32f4xx_hal_msp.c **** 
  27:Core/Src/stm32f4xx_hal_msp.c **** /* Private typedef -----------------------------------------------------------*/
  28:Core/Src/stm32f4xx_hal_msp.c **** /* USER CODE BEGIN TD */
  29:Core/Src/stm32f4xx_hal_msp.c **** 
  30:Core/Src/stm32f4xx_hal_msp.c **** /* USER CODE END TD */
ARM GAS  C:\Users\ashto\AppData\Local\Temp\ccBwLGhU.s 			page 2


  31:Core/Src/stm32f4xx_hal_msp.c **** 
  32:Core/Src/stm32f4xx_hal_msp.c **** /* Private define ------------------------------------------------------------*/
  33:Core/Src/stm32f4xx_hal_msp.c **** /* USER CODE BEGIN Define */
  34:Core/Src/stm32f4xx_hal_msp.c **** 
  35:Core/Src/stm32f4xx_hal_msp.c **** /* USER CODE END Define */
  36:Core/Src/stm32f4xx_hal_msp.c **** 
  37:Core/Src/stm32f4xx_hal_msp.c **** /* Private macro -------------------------------------------------------------*/
  38:Core/Src/stm32f4xx_hal_msp.c **** /* USER CODE BEGIN Macro */
  39:Core/Src/stm32f4xx_hal_msp.c **** 
  40:Core/Src/stm32f4xx_hal_msp.c **** /* USER CODE END Macro */
  41:Core/Src/stm32f4xx_hal_msp.c **** 
  42:Core/Src/stm32f4xx_hal_msp.c **** /* Private variables ---------------------------------------------------------*/
  43:Core/Src/stm32f4xx_hal_msp.c **** /* USER CODE BEGIN PV */
  44:Core/Src/stm32f4xx_hal_msp.c **** 
  45:Core/Src/stm32f4xx_hal_msp.c **** /* USER CODE END PV */
  46:Core/Src/stm32f4xx_hal_msp.c **** 
  47:Core/Src/stm32f4xx_hal_msp.c **** /* Private function prototypes -----------------------------------------------*/
  48:Core/Src/stm32f4xx_hal_msp.c **** /* USER CODE BEGIN PFP */
  49:Core/Src/stm32f4xx_hal_msp.c **** 
  50:Core/Src/stm32f4xx_hal_msp.c **** /* USER CODE END PFP */
  51:Core/Src/stm32f4xx_hal_msp.c **** 
  52:Core/Src/stm32f4xx_hal_msp.c **** /* External functions --------------------------------------------------------*/
  53:Core/Src/stm32f4xx_hal_msp.c **** /* USER CODE BEGIN ExternalFunctions */
  54:Core/Src/stm32f4xx_hal_msp.c **** 
  55:Core/Src/stm32f4xx_hal_msp.c **** /* USER CODE END ExternalFunctions */
  56:Core/Src/stm32f4xx_hal_msp.c **** 
  57:Core/Src/stm32f4xx_hal_msp.c **** /* USER CODE BEGIN 0 */
  58:Core/Src/stm32f4xx_hal_msp.c **** 
  59:Core/Src/stm32f4xx_hal_msp.c **** /* USER CODE END 0 */
  60:Core/Src/stm32f4xx_hal_msp.c **** /**
  61:Core/Src/stm32f4xx_hal_msp.c ****   * Initializes the Global MSP.
  62:Core/Src/stm32f4xx_hal_msp.c ****   */
  63:Core/Src/stm32f4xx_hal_msp.c **** void HAL_MspInit(void)
  64:Core/Src/stm32f4xx_hal_msp.c **** {
  29              		.loc 1 64 1 view -0
  30              		.cfi_startproc
  31              		@ args = 0, pretend = 0, frame = 8
  32              		@ frame_needed = 0, uses_anonymous_args = 0
  33 0000 00B5     		push	{lr}
  34              	.LCFI0:
  35              		.cfi_def_cfa_offset 4
  36              		.cfi_offset 14, -4
  37 0002 83B0     		sub	sp, sp, #12
  38              	.LCFI1:
  39              		.cfi_def_cfa_offset 16
  65:Core/Src/stm32f4xx_hal_msp.c **** 
  66:Core/Src/stm32f4xx_hal_msp.c ****   /* USER CODE BEGIN MspInit 0 */
  67:Core/Src/stm32f4xx_hal_msp.c **** 
  68:Core/Src/stm32f4xx_hal_msp.c ****   /* USER CODE END MspInit 0 */
  69:Core/Src/stm32f4xx_hal_msp.c **** 
  70:Core/Src/stm32f4xx_hal_msp.c ****   __HAL_RCC_SYSCFG_CLK_ENABLE();
  40              		.loc 1 70 3 view .LVU1
  41              	.LBB2:
  42              		.loc 1 70 3 view .LVU2
  43 0004 0022     		movs	r2, #0
  44 0006 0092     		str	r2, [sp]
  45              		.loc 1 70 3 view .LVU3
ARM GAS  C:\Users\ashto\AppData\Local\Temp\ccBwLGhU.s 			page 3


  46 0008 0D4B     		ldr	r3, .L3
  47 000a 596C     		ldr	r1, [r3, #68]
  48 000c 41F48041 		orr	r1, r1, #16384
  49 0010 5964     		str	r1, [r3, #68]
  50              		.loc 1 70 3 view .LVU4
  51 0012 596C     		ldr	r1, [r3, #68]
  52 0014 01F48041 		and	r1, r1, #16384
  53 0018 0091     		str	r1, [sp]
  54              		.loc 1 70 3 view .LVU5
  55 001a 0099     		ldr	r1, [sp]
  56              	.LBE2:
  57              		.loc 1 70 3 view .LVU6
  71:Core/Src/stm32f4xx_hal_msp.c ****   __HAL_RCC_PWR_CLK_ENABLE();
  58              		.loc 1 71 3 view .LVU7
  59              	.LBB3:
  60              		.loc 1 71 3 view .LVU8
  61 001c 0192     		str	r2, [sp, #4]
  62              		.loc 1 71 3 view .LVU9
  63 001e 196C     		ldr	r1, [r3, #64]
  64 0020 41F08051 		orr	r1, r1, #268435456
  65 0024 1964     		str	r1, [r3, #64]
  66              		.loc 1 71 3 view .LVU10
  67 0026 1B6C     		ldr	r3, [r3, #64]
  68 0028 03F08053 		and	r3, r3, #268435456
  69 002c 0193     		str	r3, [sp, #4]
  70              		.loc 1 71 3 view .LVU11
  71 002e 019B     		ldr	r3, [sp, #4]
  72              	.LBE3:
  73              		.loc 1 71 3 view .LVU12
  72:Core/Src/stm32f4xx_hal_msp.c **** 
  73:Core/Src/stm32f4xx_hal_msp.c ****   /* System interrupt init*/
  74:Core/Src/stm32f4xx_hal_msp.c ****   /* PendSV_IRQn interrupt configuration */
  75:Core/Src/stm32f4xx_hal_msp.c ****   HAL_NVIC_SetPriority(PendSV_IRQn, 15, 0);
  74              		.loc 1 75 3 view .LVU13
  75 0030 0F21     		movs	r1, #15
  76 0032 6FF00100 		mvn	r0, #1
  77 0036 FFF7FEFF 		bl	HAL_NVIC_SetPriority
  78              	.LVL0:
  76:Core/Src/stm32f4xx_hal_msp.c **** 
  77:Core/Src/stm32f4xx_hal_msp.c ****   /* USER CODE BEGIN MspInit 1 */
  78:Core/Src/stm32f4xx_hal_msp.c **** 
  79:Core/Src/stm32f4xx_hal_msp.c ****   /* USER CODE END MspInit 1 */
  80:Core/Src/stm32f4xx_hal_msp.c **** }
  79              		.loc 1 80 1 is_stmt 0 view .LVU14
  80 003a 03B0     		add	sp, sp, #12
  81              	.LCFI2:
  82              		.cfi_def_cfa_offset 4
  83              		@ sp needed
  84 003c 5DF804FB 		ldr	pc, [sp], #4
  85              	.L4:
  86              		.align	2
  87              	.L3:
  88 0040 00380240 		.word	1073887232
  89              		.cfi_endproc
  90              	.LFE134:
  92              		.section	.text.HAL_I2C_MspInit,"ax",%progbits
  93              		.align	1
ARM GAS  C:\Users\ashto\AppData\Local\Temp\ccBwLGhU.s 			page 4


  94              		.global	HAL_I2C_MspInit
  95              		.syntax unified
  96              		.thumb
  97              		.thumb_func
  99              	HAL_I2C_MspInit:
 100              	.LVL1:
 101              	.LFB135:
  81:Core/Src/stm32f4xx_hal_msp.c **** 
  82:Core/Src/stm32f4xx_hal_msp.c **** /**
  83:Core/Src/stm32f4xx_hal_msp.c **** * @brief I2C MSP Initialization
  84:Core/Src/stm32f4xx_hal_msp.c **** * This function configures the hardware resources used in this example
  85:Core/Src/stm32f4xx_hal_msp.c **** * @param hi2c: I2C handle pointer
  86:Core/Src/stm32f4xx_hal_msp.c **** * @retval None
  87:Core/Src/stm32f4xx_hal_msp.c **** */
  88:Core/Src/stm32f4xx_hal_msp.c **** void HAL_I2C_MspInit(I2C_HandleTypeDef* hi2c)
  89:Core/Src/stm32f4xx_hal_msp.c **** {
 102              		.loc 1 89 1 is_stmt 1 view -0
 103              		.cfi_startproc
 104              		@ args = 0, pretend = 0, frame = 32
 105              		@ frame_needed = 0, uses_anonymous_args = 0
 106              		.loc 1 89 1 is_stmt 0 view .LVU16
 107 0000 30B5     		push	{r4, r5, lr}
 108              	.LCFI3:
 109              		.cfi_def_cfa_offset 12
 110              		.cfi_offset 4, -12
 111              		.cfi_offset 5, -8
 112              		.cfi_offset 14, -4
 113 0002 89B0     		sub	sp, sp, #36
 114              	.LCFI4:
 115              		.cfi_def_cfa_offset 48
  90:Core/Src/stm32f4xx_hal_msp.c ****   GPIO_InitTypeDef GPIO_InitStruct = {0};
 116              		.loc 1 90 3 is_stmt 1 view .LVU17
 117              		.loc 1 90 20 is_stmt 0 view .LVU18
 118 0004 0023     		movs	r3, #0
 119 0006 0393     		str	r3, [sp, #12]
 120 0008 0493     		str	r3, [sp, #16]
 121 000a 0593     		str	r3, [sp, #20]
 122 000c 0693     		str	r3, [sp, #24]
 123 000e 0793     		str	r3, [sp, #28]
  91:Core/Src/stm32f4xx_hal_msp.c ****   if(hi2c->Instance==I2C1)
 124              		.loc 1 91 3 is_stmt 1 view .LVU19
 125              		.loc 1 91 10 is_stmt 0 view .LVU20
 126 0010 0268     		ldr	r2, [r0]
 127              		.loc 1 91 5 view .LVU21
 128 0012 144B     		ldr	r3, .L9
 129 0014 9A42     		cmp	r2, r3
 130 0016 01D0     		beq	.L8
 131              	.LVL2:
 132              	.L5:
  92:Core/Src/stm32f4xx_hal_msp.c ****   {
  93:Core/Src/stm32f4xx_hal_msp.c ****   /* USER CODE BEGIN I2C1_MspInit 0 */
  94:Core/Src/stm32f4xx_hal_msp.c **** 
  95:Core/Src/stm32f4xx_hal_msp.c ****   /* USER CODE END I2C1_MspInit 0 */
  96:Core/Src/stm32f4xx_hal_msp.c **** 
  97:Core/Src/stm32f4xx_hal_msp.c ****     __HAL_RCC_GPIOB_CLK_ENABLE();
  98:Core/Src/stm32f4xx_hal_msp.c ****     /**I2C1 GPIO Configuration
  99:Core/Src/stm32f4xx_hal_msp.c ****     PB6     ------> I2C1_SCL
ARM GAS  C:\Users\ashto\AppData\Local\Temp\ccBwLGhU.s 			page 5


 100:Core/Src/stm32f4xx_hal_msp.c ****     PB9     ------> I2C1_SDA
 101:Core/Src/stm32f4xx_hal_msp.c ****     */
 102:Core/Src/stm32f4xx_hal_msp.c ****     GPIO_InitStruct.Pin = Audio_SCL_Pin|Audio_SDA_Pin;
 103:Core/Src/stm32f4xx_hal_msp.c ****     GPIO_InitStruct.Mode = GPIO_MODE_AF_OD;
 104:Core/Src/stm32f4xx_hal_msp.c ****     GPIO_InitStruct.Pull = GPIO_PULLUP;
 105:Core/Src/stm32f4xx_hal_msp.c ****     GPIO_InitStruct.Speed = GPIO_SPEED_FREQ_LOW;
 106:Core/Src/stm32f4xx_hal_msp.c ****     GPIO_InitStruct.Alternate = GPIO_AF4_I2C1;
 107:Core/Src/stm32f4xx_hal_msp.c ****     HAL_GPIO_Init(GPIOB, &GPIO_InitStruct);
 108:Core/Src/stm32f4xx_hal_msp.c **** 
 109:Core/Src/stm32f4xx_hal_msp.c ****     /* Peripheral clock enable */
 110:Core/Src/stm32f4xx_hal_msp.c ****     __HAL_RCC_I2C1_CLK_ENABLE();
 111:Core/Src/stm32f4xx_hal_msp.c ****   /* USER CODE BEGIN I2C1_MspInit 1 */
 112:Core/Src/stm32f4xx_hal_msp.c **** 
 113:Core/Src/stm32f4xx_hal_msp.c ****   /* USER CODE END I2C1_MspInit 1 */
 114:Core/Src/stm32f4xx_hal_msp.c ****   }
 115:Core/Src/stm32f4xx_hal_msp.c **** 
 116:Core/Src/stm32f4xx_hal_msp.c **** }
 133              		.loc 1 116 1 view .LVU22
 134 0018 09B0     		add	sp, sp, #36
 135              	.LCFI5:
 136              		.cfi_remember_state
 137              		.cfi_def_cfa_offset 12
 138              		@ sp needed
 139 001a 30BD     		pop	{r4, r5, pc}
 140              	.LVL3:
 141              	.L8:
 142              	.LCFI6:
 143              		.cfi_restore_state
  97:Core/Src/stm32f4xx_hal_msp.c ****     /**I2C1 GPIO Configuration
 144              		.loc 1 97 5 is_stmt 1 view .LVU23
 145              	.LBB4:
  97:Core/Src/stm32f4xx_hal_msp.c ****     /**I2C1 GPIO Configuration
 146              		.loc 1 97 5 view .LVU24
 147 001c 0025     		movs	r5, #0
 148 001e 0195     		str	r5, [sp, #4]
  97:Core/Src/stm32f4xx_hal_msp.c ****     /**I2C1 GPIO Configuration
 149              		.loc 1 97 5 view .LVU25
 150 0020 114C     		ldr	r4, .L9+4
 151 0022 236B     		ldr	r3, [r4, #48]
 152 0024 43F00203 		orr	r3, r3, #2
 153 0028 2363     		str	r3, [r4, #48]
  97:Core/Src/stm32f4xx_hal_msp.c ****     /**I2C1 GPIO Configuration
 154              		.loc 1 97 5 view .LVU26
 155 002a 236B     		ldr	r3, [r4, #48]
 156 002c 03F00203 		and	r3, r3, #2
 157 0030 0193     		str	r3, [sp, #4]
  97:Core/Src/stm32f4xx_hal_msp.c ****     /**I2C1 GPIO Configuration
 158              		.loc 1 97 5 view .LVU27
 159 0032 019B     		ldr	r3, [sp, #4]
 160              	.LBE4:
  97:Core/Src/stm32f4xx_hal_msp.c ****     /**I2C1 GPIO Configuration
 161              		.loc 1 97 5 view .LVU28
 102:Core/Src/stm32f4xx_hal_msp.c ****     GPIO_InitStruct.Mode = GPIO_MODE_AF_OD;
 162              		.loc 1 102 5 view .LVU29
 102:Core/Src/stm32f4xx_hal_msp.c ****     GPIO_InitStruct.Mode = GPIO_MODE_AF_OD;
 163              		.loc 1 102 25 is_stmt 0 view .LVU30
 164 0034 4FF41073 		mov	r3, #576
ARM GAS  C:\Users\ashto\AppData\Local\Temp\ccBwLGhU.s 			page 6


 165 0038 0393     		str	r3, [sp, #12]
 103:Core/Src/stm32f4xx_hal_msp.c ****     GPIO_InitStruct.Pull = GPIO_PULLUP;
 166              		.loc 1 103 5 is_stmt 1 view .LVU31
 103:Core/Src/stm32f4xx_hal_msp.c ****     GPIO_InitStruct.Pull = GPIO_PULLUP;
 167              		.loc 1 103 26 is_stmt 0 view .LVU32
 168 003a 1223     		movs	r3, #18
 169 003c 0493     		str	r3, [sp, #16]
 104:Core/Src/stm32f4xx_hal_msp.c ****     GPIO_InitStruct.Speed = GPIO_SPEED_FREQ_LOW;
 170              		.loc 1 104 5 is_stmt 1 view .LVU33
 104:Core/Src/stm32f4xx_hal_msp.c ****     GPIO_InitStruct.Speed = GPIO_SPEED_FREQ_LOW;
 171              		.loc 1 104 26 is_stmt 0 view .LVU34
 172 003e 0123     		movs	r3, #1
 173 0040 0593     		str	r3, [sp, #20]
 105:Core/Src/stm32f4xx_hal_msp.c ****     GPIO_InitStruct.Alternate = GPIO_AF4_I2C1;
 174              		.loc 1 105 5 is_stmt 1 view .LVU35
 106:Core/Src/stm32f4xx_hal_msp.c ****     HAL_GPIO_Init(GPIOB, &GPIO_InitStruct);
 175              		.loc 1 106 5 view .LVU36
 106:Core/Src/stm32f4xx_hal_msp.c ****     HAL_GPIO_Init(GPIOB, &GPIO_InitStruct);
 176              		.loc 1 106 31 is_stmt 0 view .LVU37
 177 0042 0423     		movs	r3, #4
 178 0044 0793     		str	r3, [sp, #28]
 107:Core/Src/stm32f4xx_hal_msp.c **** 
 179              		.loc 1 107 5 is_stmt 1 view .LVU38
 180 0046 03A9     		add	r1, sp, #12
 181 0048 0848     		ldr	r0, .L9+8
 182              	.LVL4:
 107:Core/Src/stm32f4xx_hal_msp.c **** 
 183              		.loc 1 107 5 is_stmt 0 view .LVU39
 184 004a FFF7FEFF 		bl	HAL_GPIO_Init
 185              	.LVL5:
 110:Core/Src/stm32f4xx_hal_msp.c ****   /* USER CODE BEGIN I2C1_MspInit 1 */
 186              		.loc 1 110 5 is_stmt 1 view .LVU40
 187              	.LBB5:
 110:Core/Src/stm32f4xx_hal_msp.c ****   /* USER CODE BEGIN I2C1_MspInit 1 */
 188              		.loc 1 110 5 view .LVU41
 189 004e 0295     		str	r5, [sp, #8]
 110:Core/Src/stm32f4xx_hal_msp.c ****   /* USER CODE BEGIN I2C1_MspInit 1 */
 190              		.loc 1 110 5 view .LVU42
 191 0050 236C     		ldr	r3, [r4, #64]
 192 0052 43F40013 		orr	r3, r3, #2097152
 193 0056 2364     		str	r3, [r4, #64]
 110:Core/Src/stm32f4xx_hal_msp.c ****   /* USER CODE BEGIN I2C1_MspInit 1 */
 194              		.loc 1 110 5 view .LVU43
 195 0058 236C     		ldr	r3, [r4, #64]
 196 005a 03F40013 		and	r3, r3, #2097152
 197 005e 0293     		str	r3, [sp, #8]
 110:Core/Src/stm32f4xx_hal_msp.c ****   /* USER CODE BEGIN I2C1_MspInit 1 */
 198              		.loc 1 110 5 view .LVU44
 199 0060 029B     		ldr	r3, [sp, #8]
 200              	.LBE5:
 110:Core/Src/stm32f4xx_hal_msp.c ****   /* USER CODE BEGIN I2C1_MspInit 1 */
 201              		.loc 1 110 5 view .LVU45
 202              		.loc 1 116 1 is_stmt 0 view .LVU46
 203 0062 D9E7     		b	.L5
 204              	.L10:
 205              		.align	2
 206              	.L9:
ARM GAS  C:\Users\ashto\AppData\Local\Temp\ccBwLGhU.s 			page 7


 207 0064 00540040 		.word	1073763328
 208 0068 00380240 		.word	1073887232
 209 006c 00040240 		.word	1073873920
 210              		.cfi_endproc
 211              	.LFE135:
 213              		.section	.text.HAL_I2C_MspDeInit,"ax",%progbits
 214              		.align	1
 215              		.global	HAL_I2C_MspDeInit
 216              		.syntax unified
 217              		.thumb
 218              		.thumb_func
 220              	HAL_I2C_MspDeInit:
 221              	.LVL6:
 222              	.LFB136:
 117:Core/Src/stm32f4xx_hal_msp.c **** 
 118:Core/Src/stm32f4xx_hal_msp.c **** /**
 119:Core/Src/stm32f4xx_hal_msp.c **** * @brief I2C MSP De-Initialization
 120:Core/Src/stm32f4xx_hal_msp.c **** * This function freeze the hardware resources used in this example
 121:Core/Src/stm32f4xx_hal_msp.c **** * @param hi2c: I2C handle pointer
 122:Core/Src/stm32f4xx_hal_msp.c **** * @retval None
 123:Core/Src/stm32f4xx_hal_msp.c **** */
 124:Core/Src/stm32f4xx_hal_msp.c **** void HAL_I2C_MspDeInit(I2C_HandleTypeDef* hi2c)
 125:Core/Src/stm32f4xx_hal_msp.c **** {
 223              		.loc 1 125 1 is_stmt 1 view -0
 224              		.cfi_startproc
 225              		@ args = 0, pretend = 0, frame = 0
 226              		@ frame_needed = 0, uses_anonymous_args = 0
 126:Core/Src/stm32f4xx_hal_msp.c ****   if(hi2c->Instance==I2C1)
 227              		.loc 1 126 3 view .LVU48
 228              		.loc 1 126 10 is_stmt 0 view .LVU49
 229 0000 0268     		ldr	r2, [r0]
 230              		.loc 1 126 5 view .LVU50
 231 0002 0A4B     		ldr	r3, .L18
 232 0004 9A42     		cmp	r2, r3
 233 0006 00D0     		beq	.L17
 234 0008 7047     		bx	lr
 235              	.L17:
 125:Core/Src/stm32f4xx_hal_msp.c ****   if(hi2c->Instance==I2C1)
 236              		.loc 1 125 1 view .LVU51
 237 000a 10B5     		push	{r4, lr}
 238              	.LCFI7:
 239              		.cfi_def_cfa_offset 8
 240              		.cfi_offset 4, -8
 241              		.cfi_offset 14, -4
 127:Core/Src/stm32f4xx_hal_msp.c ****   {
 128:Core/Src/stm32f4xx_hal_msp.c ****   /* USER CODE BEGIN I2C1_MspDeInit 0 */
 129:Core/Src/stm32f4xx_hal_msp.c **** 
 130:Core/Src/stm32f4xx_hal_msp.c ****   /* USER CODE END I2C1_MspDeInit 0 */
 131:Core/Src/stm32f4xx_hal_msp.c ****     /* Peripheral clock disable */
 132:Core/Src/stm32f4xx_hal_msp.c ****     __HAL_RCC_I2C1_CLK_DISABLE();
 242              		.loc 1 132 5 is_stmt 1 view .LVU52
 243 000c 084A     		ldr	r2, .L18+4
 244 000e 136C     		ldr	r3, [r2, #64]
 245 0010 23F40013 		bic	r3, r3, #2097152
 246 0014 1364     		str	r3, [r2, #64]
 133:Core/Src/stm32f4xx_hal_msp.c **** 
 134:Core/Src/stm32f4xx_hal_msp.c ****     /**I2C1 GPIO Configuration
ARM GAS  C:\Users\ashto\AppData\Local\Temp\ccBwLGhU.s 			page 8


 135:Core/Src/stm32f4xx_hal_msp.c ****     PB6     ------> I2C1_SCL
 136:Core/Src/stm32f4xx_hal_msp.c ****     PB9     ------> I2C1_SDA
 137:Core/Src/stm32f4xx_hal_msp.c ****     */
 138:Core/Src/stm32f4xx_hal_msp.c ****     HAL_GPIO_DeInit(Audio_SCL_GPIO_Port, Audio_SCL_Pin);
 247              		.loc 1 138 5 view .LVU53
 248 0016 074C     		ldr	r4, .L18+8
 249 0018 4021     		movs	r1, #64
 250 001a 2046     		mov	r0, r4
 251              	.LVL7:
 252              		.loc 1 138 5 is_stmt 0 view .LVU54
 253 001c FFF7FEFF 		bl	HAL_GPIO_DeInit
 254              	.LVL8:
 139:Core/Src/stm32f4xx_hal_msp.c **** 
 140:Core/Src/stm32f4xx_hal_msp.c ****     HAL_GPIO_DeInit(Audio_SDA_GPIO_Port, Audio_SDA_Pin);
 255              		.loc 1 140 5 is_stmt 1 view .LVU55
 256 0020 4FF40071 		mov	r1, #512
 257 0024 2046     		mov	r0, r4
 258 0026 FFF7FEFF 		bl	HAL_GPIO_DeInit
 259              	.LVL9:
 141:Core/Src/stm32f4xx_hal_msp.c **** 
 142:Core/Src/stm32f4xx_hal_msp.c ****   /* USER CODE BEGIN I2C1_MspDeInit 1 */
 143:Core/Src/stm32f4xx_hal_msp.c **** 
 144:Core/Src/stm32f4xx_hal_msp.c ****   /* USER CODE END I2C1_MspDeInit 1 */
 145:Core/Src/stm32f4xx_hal_msp.c ****   }
 146:Core/Src/stm32f4xx_hal_msp.c **** 
 147:Core/Src/stm32f4xx_hal_msp.c **** }
 260              		.loc 1 147 1 is_stmt 0 view .LVU56
 261 002a 10BD     		pop	{r4, pc}
 262              	.L19:
 263              		.align	2
 264              	.L18:
 265 002c 00540040 		.word	1073763328
 266 0030 00380240 		.word	1073887232
 267 0034 00040240 		.word	1073873920
 268              		.cfi_endproc
 269              	.LFE136:
 271              		.section	.text.HAL_I2S_MspInit,"ax",%progbits
 272              		.align	1
 273              		.global	HAL_I2S_MspInit
 274              		.syntax unified
 275              		.thumb
 276              		.thumb_func
 278              	HAL_I2S_MspInit:
 279              	.LVL10:
 280              	.LFB137:
 148:Core/Src/stm32f4xx_hal_msp.c **** 
 149:Core/Src/stm32f4xx_hal_msp.c **** /**
 150:Core/Src/stm32f4xx_hal_msp.c **** * @brief I2S MSP Initialization
 151:Core/Src/stm32f4xx_hal_msp.c **** * This function configures the hardware resources used in this example
 152:Core/Src/stm32f4xx_hal_msp.c **** * @param hi2s: I2S handle pointer
 153:Core/Src/stm32f4xx_hal_msp.c **** * @retval None
 154:Core/Src/stm32f4xx_hal_msp.c **** */
 155:Core/Src/stm32f4xx_hal_msp.c **** void HAL_I2S_MspInit(I2S_HandleTypeDef* hi2s)
 156:Core/Src/stm32f4xx_hal_msp.c **** {
 281              		.loc 1 156 1 is_stmt 1 view -0
 282              		.cfi_startproc
 283              		@ args = 0, pretend = 0, frame = 48
ARM GAS  C:\Users\ashto\AppData\Local\Temp\ccBwLGhU.s 			page 9


 284              		@ frame_needed = 0, uses_anonymous_args = 0
 285              		.loc 1 156 1 is_stmt 0 view .LVU58
 286 0000 70B5     		push	{r4, r5, r6, lr}
 287              	.LCFI8:
 288              		.cfi_def_cfa_offset 16
 289              		.cfi_offset 4, -16
 290              		.cfi_offset 5, -12
 291              		.cfi_offset 6, -8
 292              		.cfi_offset 14, -4
 293 0002 8CB0     		sub	sp, sp, #48
 294              	.LCFI9:
 295              		.cfi_def_cfa_offset 64
 157:Core/Src/stm32f4xx_hal_msp.c ****   GPIO_InitTypeDef GPIO_InitStruct = {0};
 296              		.loc 1 157 3 is_stmt 1 view .LVU59
 297              		.loc 1 157 20 is_stmt 0 view .LVU60
 298 0004 0023     		movs	r3, #0
 299 0006 0793     		str	r3, [sp, #28]
 300 0008 0893     		str	r3, [sp, #32]
 301 000a 0993     		str	r3, [sp, #36]
 302 000c 0A93     		str	r3, [sp, #40]
 303 000e 0B93     		str	r3, [sp, #44]
 158:Core/Src/stm32f4xx_hal_msp.c ****   RCC_PeriphCLKInitTypeDef PeriphClkInitStruct = {0};
 304              		.loc 1 158 3 is_stmt 1 view .LVU61
 305              		.loc 1 158 28 is_stmt 0 view .LVU62
 306 0010 0393     		str	r3, [sp, #12]
 307 0012 0493     		str	r3, [sp, #16]
 308 0014 0593     		str	r3, [sp, #20]
 309 0016 0693     		str	r3, [sp, #24]
 159:Core/Src/stm32f4xx_hal_msp.c ****   if(hi2s->Instance==SPI3)
 310              		.loc 1 159 3 is_stmt 1 view .LVU63
 311              		.loc 1 159 10 is_stmt 0 view .LVU64
 312 0018 0268     		ldr	r2, [r0]
 313              		.loc 1 159 5 view .LVU65
 314 001a 254B     		ldr	r3, .L26
 315 001c 9A42     		cmp	r2, r3
 316 001e 01D0     		beq	.L24
 317              	.LVL11:
 318              	.L20:
 160:Core/Src/stm32f4xx_hal_msp.c ****   {
 161:Core/Src/stm32f4xx_hal_msp.c ****   /* USER CODE BEGIN SPI3_MspInit 0 */
 162:Core/Src/stm32f4xx_hal_msp.c **** 
 163:Core/Src/stm32f4xx_hal_msp.c ****   /* USER CODE END SPI3_MspInit 0 */
 164:Core/Src/stm32f4xx_hal_msp.c **** 
 165:Core/Src/stm32f4xx_hal_msp.c ****   /** Initializes the peripherals clock
 166:Core/Src/stm32f4xx_hal_msp.c ****   */
 167:Core/Src/stm32f4xx_hal_msp.c ****     PeriphClkInitStruct.PeriphClockSelection = RCC_PERIPHCLK_I2S;
 168:Core/Src/stm32f4xx_hal_msp.c ****     PeriphClkInitStruct.PLLI2S.PLLI2SN = 192;
 169:Core/Src/stm32f4xx_hal_msp.c ****     PeriphClkInitStruct.PLLI2S.PLLI2SR = 2;
 170:Core/Src/stm32f4xx_hal_msp.c ****     if (HAL_RCCEx_PeriphCLKConfig(&PeriphClkInitStruct) != HAL_OK)
 171:Core/Src/stm32f4xx_hal_msp.c ****     {
 172:Core/Src/stm32f4xx_hal_msp.c ****       Error_Handler();
 173:Core/Src/stm32f4xx_hal_msp.c ****     }
 174:Core/Src/stm32f4xx_hal_msp.c **** 
 175:Core/Src/stm32f4xx_hal_msp.c ****     /* Peripheral clock enable */
 176:Core/Src/stm32f4xx_hal_msp.c ****     __HAL_RCC_SPI3_CLK_ENABLE();
 177:Core/Src/stm32f4xx_hal_msp.c **** 
 178:Core/Src/stm32f4xx_hal_msp.c ****     __HAL_RCC_GPIOA_CLK_ENABLE();
ARM GAS  C:\Users\ashto\AppData\Local\Temp\ccBwLGhU.s 			page 10


 179:Core/Src/stm32f4xx_hal_msp.c ****     __HAL_RCC_GPIOC_CLK_ENABLE();
 180:Core/Src/stm32f4xx_hal_msp.c ****     /**I2S3 GPIO Configuration
 181:Core/Src/stm32f4xx_hal_msp.c ****     PA4     ------> I2S3_WS
 182:Core/Src/stm32f4xx_hal_msp.c ****     PC7     ------> I2S3_MCK
 183:Core/Src/stm32f4xx_hal_msp.c ****     PC10     ------> I2S3_CK
 184:Core/Src/stm32f4xx_hal_msp.c ****     PC12     ------> I2S3_SD
 185:Core/Src/stm32f4xx_hal_msp.c ****     */
 186:Core/Src/stm32f4xx_hal_msp.c ****     GPIO_InitStruct.Pin = I2S3_WS_Pin;
 187:Core/Src/stm32f4xx_hal_msp.c ****     GPIO_InitStruct.Mode = GPIO_MODE_AF_PP;
 188:Core/Src/stm32f4xx_hal_msp.c ****     GPIO_InitStruct.Pull = GPIO_NOPULL;
 189:Core/Src/stm32f4xx_hal_msp.c ****     GPIO_InitStruct.Speed = GPIO_SPEED_FREQ_LOW;
 190:Core/Src/stm32f4xx_hal_msp.c ****     GPIO_InitStruct.Alternate = GPIO_AF6_SPI3;
 191:Core/Src/stm32f4xx_hal_msp.c ****     HAL_GPIO_Init(I2S3_WS_GPIO_Port, &GPIO_InitStruct);
 192:Core/Src/stm32f4xx_hal_msp.c **** 
 193:Core/Src/stm32f4xx_hal_msp.c ****     GPIO_InitStruct.Pin = I2S3_MCK_Pin|I2S3_SCK_Pin|I2S3_SD_Pin;
 194:Core/Src/stm32f4xx_hal_msp.c ****     GPIO_InitStruct.Mode = GPIO_MODE_AF_PP;
 195:Core/Src/stm32f4xx_hal_msp.c ****     GPIO_InitStruct.Pull = GPIO_NOPULL;
 196:Core/Src/stm32f4xx_hal_msp.c ****     GPIO_InitStruct.Speed = GPIO_SPEED_FREQ_LOW;
 197:Core/Src/stm32f4xx_hal_msp.c ****     GPIO_InitStruct.Alternate = GPIO_AF6_SPI3;
 198:Core/Src/stm32f4xx_hal_msp.c ****     HAL_GPIO_Init(GPIOC, &GPIO_InitStruct);
 199:Core/Src/stm32f4xx_hal_msp.c **** 
 200:Core/Src/stm32f4xx_hal_msp.c ****   /* USER CODE BEGIN SPI3_MspInit 1 */
 201:Core/Src/stm32f4xx_hal_msp.c **** 
 202:Core/Src/stm32f4xx_hal_msp.c ****   /* USER CODE END SPI3_MspInit 1 */
 203:Core/Src/stm32f4xx_hal_msp.c ****   }
 204:Core/Src/stm32f4xx_hal_msp.c **** 
 205:Core/Src/stm32f4xx_hal_msp.c **** }
 319              		.loc 1 205 1 view .LVU66
 320 0020 0CB0     		add	sp, sp, #48
 321              	.LCFI10:
 322              		.cfi_remember_state
 323              		.cfi_def_cfa_offset 16
 324              		@ sp needed
 325 0022 70BD     		pop	{r4, r5, r6, pc}
 326              	.LVL12:
 327              	.L24:
 328              	.LCFI11:
 329              		.cfi_restore_state
 167:Core/Src/stm32f4xx_hal_msp.c ****     PeriphClkInitStruct.PLLI2S.PLLI2SN = 192;
 330              		.loc 1 167 5 is_stmt 1 view .LVU67
 167:Core/Src/stm32f4xx_hal_msp.c ****     PeriphClkInitStruct.PLLI2S.PLLI2SN = 192;
 331              		.loc 1 167 46 is_stmt 0 view .LVU68
 332 0024 0123     		movs	r3, #1
 333 0026 0393     		str	r3, [sp, #12]
 168:Core/Src/stm32f4xx_hal_msp.c ****     PeriphClkInitStruct.PLLI2S.PLLI2SR = 2;
 334              		.loc 1 168 5 is_stmt 1 view .LVU69
 168:Core/Src/stm32f4xx_hal_msp.c ****     PeriphClkInitStruct.PLLI2S.PLLI2SR = 2;
 335              		.loc 1 168 40 is_stmt 0 view .LVU70
 336 0028 C023     		movs	r3, #192
 337 002a 0493     		str	r3, [sp, #16]
 169:Core/Src/stm32f4xx_hal_msp.c ****     if (HAL_RCCEx_PeriphCLKConfig(&PeriphClkInitStruct) != HAL_OK)
 338              		.loc 1 169 5 is_stmt 1 view .LVU71
 169:Core/Src/stm32f4xx_hal_msp.c ****     if (HAL_RCCEx_PeriphCLKConfig(&PeriphClkInitStruct) != HAL_OK)
 339              		.loc 1 169 40 is_stmt 0 view .LVU72
 340 002c 0223     		movs	r3, #2
 341 002e 0593     		str	r3, [sp, #20]
 170:Core/Src/stm32f4xx_hal_msp.c ****     {
ARM GAS  C:\Users\ashto\AppData\Local\Temp\ccBwLGhU.s 			page 11


 342              		.loc 1 170 5 is_stmt 1 view .LVU73
 170:Core/Src/stm32f4xx_hal_msp.c ****     {
 343              		.loc 1 170 9 is_stmt 0 view .LVU74
 344 0030 03A8     		add	r0, sp, #12
 345              	.LVL13:
 170:Core/Src/stm32f4xx_hal_msp.c ****     {
 346              		.loc 1 170 9 view .LVU75
 347 0032 FFF7FEFF 		bl	HAL_RCCEx_PeriphCLKConfig
 348              	.LVL14:
 170:Core/Src/stm32f4xx_hal_msp.c ****     {
 349              		.loc 1 170 8 view .LVU76
 350 0036 0028     		cmp	r0, #0
 351 0038 37D1     		bne	.L25
 352              	.L22:
 176:Core/Src/stm32f4xx_hal_msp.c **** 
 353              		.loc 1 176 5 is_stmt 1 view .LVU77
 354              	.LBB6:
 176:Core/Src/stm32f4xx_hal_msp.c **** 
 355              		.loc 1 176 5 view .LVU78
 356 003a 0024     		movs	r4, #0
 357 003c 0094     		str	r4, [sp]
 176:Core/Src/stm32f4xx_hal_msp.c **** 
 358              		.loc 1 176 5 view .LVU79
 359 003e 1D4B     		ldr	r3, .L26+4
 360 0040 1A6C     		ldr	r2, [r3, #64]
 361 0042 42F40042 		orr	r2, r2, #32768
 362 0046 1A64     		str	r2, [r3, #64]
 176:Core/Src/stm32f4xx_hal_msp.c **** 
 363              		.loc 1 176 5 view .LVU80
 364 0048 1A6C     		ldr	r2, [r3, #64]
 365 004a 02F40042 		and	r2, r2, #32768
 366 004e 0092     		str	r2, [sp]
 176:Core/Src/stm32f4xx_hal_msp.c **** 
 367              		.loc 1 176 5 view .LVU81
 368 0050 009A     		ldr	r2, [sp]
 369              	.LBE6:
 176:Core/Src/stm32f4xx_hal_msp.c **** 
 370              		.loc 1 176 5 view .LVU82
 178:Core/Src/stm32f4xx_hal_msp.c ****     __HAL_RCC_GPIOC_CLK_ENABLE();
 371              		.loc 1 178 5 view .LVU83
 372              	.LBB7:
 178:Core/Src/stm32f4xx_hal_msp.c ****     __HAL_RCC_GPIOC_CLK_ENABLE();
 373              		.loc 1 178 5 view .LVU84
 374 0052 0194     		str	r4, [sp, #4]
 178:Core/Src/stm32f4xx_hal_msp.c ****     __HAL_RCC_GPIOC_CLK_ENABLE();
 375              		.loc 1 178 5 view .LVU85
 376 0054 1A6B     		ldr	r2, [r3, #48]
 377 0056 42F00102 		orr	r2, r2, #1
 378 005a 1A63     		str	r2, [r3, #48]
 178:Core/Src/stm32f4xx_hal_msp.c ****     __HAL_RCC_GPIOC_CLK_ENABLE();
 379              		.loc 1 178 5 view .LVU86
 380 005c 1A6B     		ldr	r2, [r3, #48]
 381 005e 02F00102 		and	r2, r2, #1
 382 0062 0192     		str	r2, [sp, #4]
 178:Core/Src/stm32f4xx_hal_msp.c ****     __HAL_RCC_GPIOC_CLK_ENABLE();
 383              		.loc 1 178 5 view .LVU87
 384 0064 019A     		ldr	r2, [sp, #4]
ARM GAS  C:\Users\ashto\AppData\Local\Temp\ccBwLGhU.s 			page 12


 385              	.LBE7:
 178:Core/Src/stm32f4xx_hal_msp.c ****     __HAL_RCC_GPIOC_CLK_ENABLE();
 386              		.loc 1 178 5 view .LVU88
 179:Core/Src/stm32f4xx_hal_msp.c ****     /**I2S3 GPIO Configuration
 387              		.loc 1 179 5 view .LVU89
 388              	.LBB8:
 179:Core/Src/stm32f4xx_hal_msp.c ****     /**I2S3 GPIO Configuration
 389              		.loc 1 179 5 view .LVU90
 390 0066 0294     		str	r4, [sp, #8]
 179:Core/Src/stm32f4xx_hal_msp.c ****     /**I2S3 GPIO Configuration
 391              		.loc 1 179 5 view .LVU91
 392 0068 1A6B     		ldr	r2, [r3, #48]
 393 006a 42F00402 		orr	r2, r2, #4
 394 006e 1A63     		str	r2, [r3, #48]
 179:Core/Src/stm32f4xx_hal_msp.c ****     /**I2S3 GPIO Configuration
 395              		.loc 1 179 5 view .LVU92
 396 0070 1B6B     		ldr	r3, [r3, #48]
 397 0072 03F00403 		and	r3, r3, #4
 398 0076 0293     		str	r3, [sp, #8]
 179:Core/Src/stm32f4xx_hal_msp.c ****     /**I2S3 GPIO Configuration
 399              		.loc 1 179 5 view .LVU93
 400 0078 029B     		ldr	r3, [sp, #8]
 401              	.LBE8:
 179:Core/Src/stm32f4xx_hal_msp.c ****     /**I2S3 GPIO Configuration
 402              		.loc 1 179 5 view .LVU94
 186:Core/Src/stm32f4xx_hal_msp.c ****     GPIO_InitStruct.Mode = GPIO_MODE_AF_PP;
 403              		.loc 1 186 5 view .LVU95
 186:Core/Src/stm32f4xx_hal_msp.c ****     GPIO_InitStruct.Mode = GPIO_MODE_AF_PP;
 404              		.loc 1 186 25 is_stmt 0 view .LVU96
 405 007a 1023     		movs	r3, #16
 406 007c 0793     		str	r3, [sp, #28]
 187:Core/Src/stm32f4xx_hal_msp.c ****     GPIO_InitStruct.Pull = GPIO_NOPULL;
 407              		.loc 1 187 5 is_stmt 1 view .LVU97
 187:Core/Src/stm32f4xx_hal_msp.c ****     GPIO_InitStruct.Pull = GPIO_NOPULL;
 408              		.loc 1 187 26 is_stmt 0 view .LVU98
 409 007e 0226     		movs	r6, #2
 410 0080 0896     		str	r6, [sp, #32]
 188:Core/Src/stm32f4xx_hal_msp.c ****     GPIO_InitStruct.Speed = GPIO_SPEED_FREQ_LOW;
 411              		.loc 1 188 5 is_stmt 1 view .LVU99
 188:Core/Src/stm32f4xx_hal_msp.c ****     GPIO_InitStruct.Speed = GPIO_SPEED_FREQ_LOW;
 412              		.loc 1 188 26 is_stmt 0 view .LVU100
 413 0082 0994     		str	r4, [sp, #36]
 189:Core/Src/stm32f4xx_hal_msp.c ****     GPIO_InitStruct.Alternate = GPIO_AF6_SPI3;
 414              		.loc 1 189 5 is_stmt 1 view .LVU101
 189:Core/Src/stm32f4xx_hal_msp.c ****     GPIO_InitStruct.Alternate = GPIO_AF6_SPI3;
 415              		.loc 1 189 27 is_stmt 0 view .LVU102
 416 0084 0A94     		str	r4, [sp, #40]
 190:Core/Src/stm32f4xx_hal_msp.c ****     HAL_GPIO_Init(I2S3_WS_GPIO_Port, &GPIO_InitStruct);
 417              		.loc 1 190 5 is_stmt 1 view .LVU103
 190:Core/Src/stm32f4xx_hal_msp.c ****     HAL_GPIO_Init(I2S3_WS_GPIO_Port, &GPIO_InitStruct);
 418              		.loc 1 190 31 is_stmt 0 view .LVU104
 419 0086 0625     		movs	r5, #6
 420 0088 0B95     		str	r5, [sp, #44]
 191:Core/Src/stm32f4xx_hal_msp.c **** 
 421              		.loc 1 191 5 is_stmt 1 view .LVU105
 422 008a 07A9     		add	r1, sp, #28
 423 008c 0A48     		ldr	r0, .L26+8
ARM GAS  C:\Users\ashto\AppData\Local\Temp\ccBwLGhU.s 			page 13


 424 008e FFF7FEFF 		bl	HAL_GPIO_Init
 425              	.LVL15:
 193:Core/Src/stm32f4xx_hal_msp.c ****     GPIO_InitStruct.Mode = GPIO_MODE_AF_PP;
 426              		.loc 1 193 5 view .LVU106
 193:Core/Src/stm32f4xx_hal_msp.c ****     GPIO_InitStruct.Mode = GPIO_MODE_AF_PP;
 427              		.loc 1 193 25 is_stmt 0 view .LVU107
 428 0092 4FF4A453 		mov	r3, #5248
 429 0096 0793     		str	r3, [sp, #28]
 194:Core/Src/stm32f4xx_hal_msp.c ****     GPIO_InitStruct.Pull = GPIO_NOPULL;
 430              		.loc 1 194 5 is_stmt 1 view .LVU108
 194:Core/Src/stm32f4xx_hal_msp.c ****     GPIO_InitStruct.Pull = GPIO_NOPULL;
 431              		.loc 1 194 26 is_stmt 0 view .LVU109
 432 0098 0896     		str	r6, [sp, #32]
 195:Core/Src/stm32f4xx_hal_msp.c ****     GPIO_InitStruct.Speed = GPIO_SPEED_FREQ_LOW;
 433              		.loc 1 195 5 is_stmt 1 view .LVU110
 195:Core/Src/stm32f4xx_hal_msp.c ****     GPIO_InitStruct.Speed = GPIO_SPEED_FREQ_LOW;
 434              		.loc 1 195 26 is_stmt 0 view .LVU111
 435 009a 0994     		str	r4, [sp, #36]
 196:Core/Src/stm32f4xx_hal_msp.c ****     GPIO_InitStruct.Alternate = GPIO_AF6_SPI3;
 436              		.loc 1 196 5 is_stmt 1 view .LVU112
 196:Core/Src/stm32f4xx_hal_msp.c ****     GPIO_InitStruct.Alternate = GPIO_AF6_SPI3;
 437              		.loc 1 196 27 is_stmt 0 view .LVU113
 438 009c 0A94     		str	r4, [sp, #40]
 197:Core/Src/stm32f4xx_hal_msp.c ****     HAL_GPIO_Init(GPIOC, &GPIO_InitStruct);
 439              		.loc 1 197 5 is_stmt 1 view .LVU114
 197:Core/Src/stm32f4xx_hal_msp.c ****     HAL_GPIO_Init(GPIOC, &GPIO_InitStruct);
 440              		.loc 1 197 31 is_stmt 0 view .LVU115
 441 009e 0B95     		str	r5, [sp, #44]
 198:Core/Src/stm32f4xx_hal_msp.c **** 
 442              		.loc 1 198 5 is_stmt 1 view .LVU116
 443 00a0 07A9     		add	r1, sp, #28
 444 00a2 0648     		ldr	r0, .L26+12
 445 00a4 FFF7FEFF 		bl	HAL_GPIO_Init
 446              	.LVL16:
 447              		.loc 1 205 1 is_stmt 0 view .LVU117
 448 00a8 BAE7     		b	.L20
 449              	.L25:
 172:Core/Src/stm32f4xx_hal_msp.c ****     }
 450              		.loc 1 172 7 is_stmt 1 view .LVU118
 451 00aa FFF7FEFF 		bl	Error_Handler
 452              	.LVL17:
 453 00ae C4E7     		b	.L22
 454              	.L27:
 455              		.align	2
 456              	.L26:
 457 00b0 003C0040 		.word	1073757184
 458 00b4 00380240 		.word	1073887232
 459 00b8 00000240 		.word	1073872896
 460 00bc 00080240 		.word	1073874944
 461              		.cfi_endproc
 462              	.LFE137:
 464              		.section	.text.HAL_I2S_MspDeInit,"ax",%progbits
 465              		.align	1
 466              		.global	HAL_I2S_MspDeInit
 467              		.syntax unified
 468              		.thumb
 469              		.thumb_func
ARM GAS  C:\Users\ashto\AppData\Local\Temp\ccBwLGhU.s 			page 14


 471              	HAL_I2S_MspDeInit:
 472              	.LVL18:
 473              	.LFB138:
 206:Core/Src/stm32f4xx_hal_msp.c **** 
 207:Core/Src/stm32f4xx_hal_msp.c **** /**
 208:Core/Src/stm32f4xx_hal_msp.c **** * @brief I2S MSP De-Initialization
 209:Core/Src/stm32f4xx_hal_msp.c **** * This function freeze the hardware resources used in this example
 210:Core/Src/stm32f4xx_hal_msp.c **** * @param hi2s: I2S handle pointer
 211:Core/Src/stm32f4xx_hal_msp.c **** * @retval None
 212:Core/Src/stm32f4xx_hal_msp.c **** */
 213:Core/Src/stm32f4xx_hal_msp.c **** void HAL_I2S_MspDeInit(I2S_HandleTypeDef* hi2s)
 214:Core/Src/stm32f4xx_hal_msp.c **** {
 474              		.loc 1 214 1 view -0
 475              		.cfi_startproc
 476              		@ args = 0, pretend = 0, frame = 0
 477              		@ frame_needed = 0, uses_anonymous_args = 0
 478              		.loc 1 214 1 is_stmt 0 view .LVU120
 479 0000 08B5     		push	{r3, lr}
 480              	.LCFI12:
 481              		.cfi_def_cfa_offset 8
 482              		.cfi_offset 3, -8
 483              		.cfi_offset 14, -4
 215:Core/Src/stm32f4xx_hal_msp.c ****   if(hi2s->Instance==SPI3)
 484              		.loc 1 215 3 is_stmt 1 view .LVU121
 485              		.loc 1 215 10 is_stmt 0 view .LVU122
 486 0002 0268     		ldr	r2, [r0]
 487              		.loc 1 215 5 view .LVU123
 488 0004 094B     		ldr	r3, .L32
 489 0006 9A42     		cmp	r2, r3
 490 0008 00D0     		beq	.L31
 491              	.LVL19:
 492              	.L28:
 216:Core/Src/stm32f4xx_hal_msp.c ****   {
 217:Core/Src/stm32f4xx_hal_msp.c ****   /* USER CODE BEGIN SPI3_MspDeInit 0 */
 218:Core/Src/stm32f4xx_hal_msp.c **** 
 219:Core/Src/stm32f4xx_hal_msp.c ****   /* USER CODE END SPI3_MspDeInit 0 */
 220:Core/Src/stm32f4xx_hal_msp.c ****     /* Peripheral clock disable */
 221:Core/Src/stm32f4xx_hal_msp.c ****     __HAL_RCC_SPI3_CLK_DISABLE();
 222:Core/Src/stm32f4xx_hal_msp.c **** 
 223:Core/Src/stm32f4xx_hal_msp.c ****     /**I2S3 GPIO Configuration
 224:Core/Src/stm32f4xx_hal_msp.c ****     PA4     ------> I2S3_WS
 225:Core/Src/stm32f4xx_hal_msp.c ****     PC7     ------> I2S3_MCK
 226:Core/Src/stm32f4xx_hal_msp.c ****     PC10     ------> I2S3_CK
 227:Core/Src/stm32f4xx_hal_msp.c ****     PC12     ------> I2S3_SD
 228:Core/Src/stm32f4xx_hal_msp.c ****     */
 229:Core/Src/stm32f4xx_hal_msp.c ****     HAL_GPIO_DeInit(I2S3_WS_GPIO_Port, I2S3_WS_Pin);
 230:Core/Src/stm32f4xx_hal_msp.c **** 
 231:Core/Src/stm32f4xx_hal_msp.c ****     HAL_GPIO_DeInit(GPIOC, I2S3_MCK_Pin|I2S3_SCK_Pin|I2S3_SD_Pin);
 232:Core/Src/stm32f4xx_hal_msp.c **** 
 233:Core/Src/stm32f4xx_hal_msp.c ****   /* USER CODE BEGIN SPI3_MspDeInit 1 */
 234:Core/Src/stm32f4xx_hal_msp.c **** 
 235:Core/Src/stm32f4xx_hal_msp.c ****   /* USER CODE END SPI3_MspDeInit 1 */
 236:Core/Src/stm32f4xx_hal_msp.c ****   }
 237:Core/Src/stm32f4xx_hal_msp.c **** 
 238:Core/Src/stm32f4xx_hal_msp.c **** }
 493              		.loc 1 238 1 view .LVU124
 494 000a 08BD     		pop	{r3, pc}
ARM GAS  C:\Users\ashto\AppData\Local\Temp\ccBwLGhU.s 			page 15


 495              	.LVL20:
 496              	.L31:
 221:Core/Src/stm32f4xx_hal_msp.c **** 
 497              		.loc 1 221 5 is_stmt 1 view .LVU125
 498 000c 084A     		ldr	r2, .L32+4
 499 000e 136C     		ldr	r3, [r2, #64]
 500 0010 23F40043 		bic	r3, r3, #32768
 501 0014 1364     		str	r3, [r2, #64]
 229:Core/Src/stm32f4xx_hal_msp.c **** 
 502              		.loc 1 229 5 view .LVU126
 503 0016 1021     		movs	r1, #16
 504 0018 0648     		ldr	r0, .L32+8
 505              	.LVL21:
 229:Core/Src/stm32f4xx_hal_msp.c **** 
 506              		.loc 1 229 5 is_stmt 0 view .LVU127
 507 001a FFF7FEFF 		bl	HAL_GPIO_DeInit
 508              	.LVL22:
 231:Core/Src/stm32f4xx_hal_msp.c **** 
 509              		.loc 1 231 5 is_stmt 1 view .LVU128
 510 001e 4FF4A451 		mov	r1, #5248
 511 0022 0548     		ldr	r0, .L32+12
 512 0024 FFF7FEFF 		bl	HAL_GPIO_DeInit
 513              	.LVL23:
 514              		.loc 1 238 1 is_stmt 0 view .LVU129
 515 0028 EFE7     		b	.L28
 516              	.L33:
 517 002a 00BF     		.align	2
 518              	.L32:
 519 002c 003C0040 		.word	1073757184
 520 0030 00380240 		.word	1073887232
 521 0034 00000240 		.word	1073872896
 522 0038 00080240 		.word	1073874944
 523              		.cfi_endproc
 524              	.LFE138:
 526              		.section	.text.HAL_SPI_MspInit,"ax",%progbits
 527              		.align	1
 528              		.global	HAL_SPI_MspInit
 529              		.syntax unified
 530              		.thumb
 531              		.thumb_func
 533              	HAL_SPI_MspInit:
 534              	.LVL24:
 535              	.LFB139:
 239:Core/Src/stm32f4xx_hal_msp.c **** 
 240:Core/Src/stm32f4xx_hal_msp.c **** /**
 241:Core/Src/stm32f4xx_hal_msp.c **** * @brief SPI MSP Initialization
 242:Core/Src/stm32f4xx_hal_msp.c **** * This function configures the hardware resources used in this example
 243:Core/Src/stm32f4xx_hal_msp.c **** * @param hspi: SPI handle pointer
 244:Core/Src/stm32f4xx_hal_msp.c **** * @retval None
 245:Core/Src/stm32f4xx_hal_msp.c **** */
 246:Core/Src/stm32f4xx_hal_msp.c **** void HAL_SPI_MspInit(SPI_HandleTypeDef* hspi)
 247:Core/Src/stm32f4xx_hal_msp.c **** {
 536              		.loc 1 247 1 is_stmt 1 view -0
 537              		.cfi_startproc
 538              		@ args = 0, pretend = 0, frame = 32
 539              		@ frame_needed = 0, uses_anonymous_args = 0
 540              		.loc 1 247 1 is_stmt 0 view .LVU131
ARM GAS  C:\Users\ashto\AppData\Local\Temp\ccBwLGhU.s 			page 16


 541 0000 00B5     		push	{lr}
 542              	.LCFI13:
 543              		.cfi_def_cfa_offset 4
 544              		.cfi_offset 14, -4
 545 0002 89B0     		sub	sp, sp, #36
 546              	.LCFI14:
 547              		.cfi_def_cfa_offset 40
 248:Core/Src/stm32f4xx_hal_msp.c ****   GPIO_InitTypeDef GPIO_InitStruct = {0};
 548              		.loc 1 248 3 is_stmt 1 view .LVU132
 549              		.loc 1 248 20 is_stmt 0 view .LVU133
 550 0004 0023     		movs	r3, #0
 551 0006 0393     		str	r3, [sp, #12]
 552 0008 0493     		str	r3, [sp, #16]
 553 000a 0593     		str	r3, [sp, #20]
 554 000c 0693     		str	r3, [sp, #24]
 555 000e 0793     		str	r3, [sp, #28]
 249:Core/Src/stm32f4xx_hal_msp.c ****   if(hspi->Instance==SPI1)
 556              		.loc 1 249 3 is_stmt 1 view .LVU134
 557              		.loc 1 249 10 is_stmt 0 view .LVU135
 558 0010 0268     		ldr	r2, [r0]
 559              		.loc 1 249 5 view .LVU136
 560 0012 144B     		ldr	r3, .L38
 561 0014 9A42     		cmp	r2, r3
 562 0016 02D0     		beq	.L37
 563              	.LVL25:
 564              	.L34:
 250:Core/Src/stm32f4xx_hal_msp.c ****   {
 251:Core/Src/stm32f4xx_hal_msp.c ****   /* USER CODE BEGIN SPI1_MspInit 0 */
 252:Core/Src/stm32f4xx_hal_msp.c **** 
 253:Core/Src/stm32f4xx_hal_msp.c ****   /* USER CODE END SPI1_MspInit 0 */
 254:Core/Src/stm32f4xx_hal_msp.c ****     /* Peripheral clock enable */
 255:Core/Src/stm32f4xx_hal_msp.c ****     __HAL_RCC_SPI1_CLK_ENABLE();
 256:Core/Src/stm32f4xx_hal_msp.c **** 
 257:Core/Src/stm32f4xx_hal_msp.c ****     __HAL_RCC_GPIOA_CLK_ENABLE();
 258:Core/Src/stm32f4xx_hal_msp.c ****     /**SPI1 GPIO Configuration
 259:Core/Src/stm32f4xx_hal_msp.c ****     PA5     ------> SPI1_SCK
 260:Core/Src/stm32f4xx_hal_msp.c ****     PA6     ------> SPI1_MISO
 261:Core/Src/stm32f4xx_hal_msp.c ****     PA7     ------> SPI1_MOSI
 262:Core/Src/stm32f4xx_hal_msp.c ****     */
 263:Core/Src/stm32f4xx_hal_msp.c ****     GPIO_InitStruct.Pin = SPI1_SCK_Pin|SPI1_MISO_Pin|SPI1_MOSI_Pin;
 264:Core/Src/stm32f4xx_hal_msp.c ****     GPIO_InitStruct.Mode = GPIO_MODE_AF_PP;
 265:Core/Src/stm32f4xx_hal_msp.c ****     GPIO_InitStruct.Pull = GPIO_NOPULL;
 266:Core/Src/stm32f4xx_hal_msp.c ****     GPIO_InitStruct.Speed = GPIO_SPEED_FREQ_LOW;
 267:Core/Src/stm32f4xx_hal_msp.c ****     GPIO_InitStruct.Alternate = GPIO_AF5_SPI1;
 268:Core/Src/stm32f4xx_hal_msp.c ****     HAL_GPIO_Init(GPIOA, &GPIO_InitStruct);
 269:Core/Src/stm32f4xx_hal_msp.c **** 
 270:Core/Src/stm32f4xx_hal_msp.c ****   /* USER CODE BEGIN SPI1_MspInit 1 */
 271:Core/Src/stm32f4xx_hal_msp.c **** 
 272:Core/Src/stm32f4xx_hal_msp.c ****   /* USER CODE END SPI1_MspInit 1 */
 273:Core/Src/stm32f4xx_hal_msp.c ****   }
 274:Core/Src/stm32f4xx_hal_msp.c **** 
 275:Core/Src/stm32f4xx_hal_msp.c **** }
 565              		.loc 1 275 1 view .LVU137
 566 0018 09B0     		add	sp, sp, #36
 567              	.LCFI15:
 568              		.cfi_remember_state
 569              		.cfi_def_cfa_offset 4
ARM GAS  C:\Users\ashto\AppData\Local\Temp\ccBwLGhU.s 			page 17


 570              		@ sp needed
 571 001a 5DF804FB 		ldr	pc, [sp], #4
 572              	.LVL26:
 573              	.L37:
 574              	.LCFI16:
 575              		.cfi_restore_state
 255:Core/Src/stm32f4xx_hal_msp.c **** 
 576              		.loc 1 255 5 is_stmt 1 view .LVU138
 577              	.LBB9:
 255:Core/Src/stm32f4xx_hal_msp.c **** 
 578              		.loc 1 255 5 view .LVU139
 579 001e 0021     		movs	r1, #0
 580 0020 0191     		str	r1, [sp, #4]
 255:Core/Src/stm32f4xx_hal_msp.c **** 
 581              		.loc 1 255 5 view .LVU140
 582 0022 03F58433 		add	r3, r3, #67584
 583 0026 5A6C     		ldr	r2, [r3, #68]
 584 0028 42F48052 		orr	r2, r2, #4096
 585 002c 5A64     		str	r2, [r3, #68]
 255:Core/Src/stm32f4xx_hal_msp.c **** 
 586              		.loc 1 255 5 view .LVU141
 587 002e 5A6C     		ldr	r2, [r3, #68]
 588 0030 02F48052 		and	r2, r2, #4096
 589 0034 0192     		str	r2, [sp, #4]
 255:Core/Src/stm32f4xx_hal_msp.c **** 
 590              		.loc 1 255 5 view .LVU142
 591 0036 019A     		ldr	r2, [sp, #4]
 592              	.LBE9:
 255:Core/Src/stm32f4xx_hal_msp.c **** 
 593              		.loc 1 255 5 view .LVU143
 257:Core/Src/stm32f4xx_hal_msp.c ****     /**SPI1 GPIO Configuration
 594              		.loc 1 257 5 view .LVU144
 595              	.LBB10:
 257:Core/Src/stm32f4xx_hal_msp.c ****     /**SPI1 GPIO Configuration
 596              		.loc 1 257 5 view .LVU145
 597 0038 0291     		str	r1, [sp, #8]
 257:Core/Src/stm32f4xx_hal_msp.c ****     /**SPI1 GPIO Configuration
 598              		.loc 1 257 5 view .LVU146
 599 003a 1A6B     		ldr	r2, [r3, #48]
 600 003c 42F00102 		orr	r2, r2, #1
 601 0040 1A63     		str	r2, [r3, #48]
 257:Core/Src/stm32f4xx_hal_msp.c ****     /**SPI1 GPIO Configuration
 602              		.loc 1 257 5 view .LVU147
 603 0042 1B6B     		ldr	r3, [r3, #48]
 604 0044 03F00103 		and	r3, r3, #1
 605 0048 0293     		str	r3, [sp, #8]
 257:Core/Src/stm32f4xx_hal_msp.c ****     /**SPI1 GPIO Configuration
 606              		.loc 1 257 5 view .LVU148
 607 004a 029B     		ldr	r3, [sp, #8]
 608              	.LBE10:
 257:Core/Src/stm32f4xx_hal_msp.c ****     /**SPI1 GPIO Configuration
 609              		.loc 1 257 5 view .LVU149
 263:Core/Src/stm32f4xx_hal_msp.c ****     GPIO_InitStruct.Mode = GPIO_MODE_AF_PP;
 610              		.loc 1 263 5 view .LVU150
 263:Core/Src/stm32f4xx_hal_msp.c ****     GPIO_InitStruct.Mode = GPIO_MODE_AF_PP;
 611              		.loc 1 263 25 is_stmt 0 view .LVU151
 612 004c E023     		movs	r3, #224
ARM GAS  C:\Users\ashto\AppData\Local\Temp\ccBwLGhU.s 			page 18


 613 004e 0393     		str	r3, [sp, #12]
 264:Core/Src/stm32f4xx_hal_msp.c ****     GPIO_InitStruct.Pull = GPIO_NOPULL;
 614              		.loc 1 264 5 is_stmt 1 view .LVU152
 264:Core/Src/stm32f4xx_hal_msp.c ****     GPIO_InitStruct.Pull = GPIO_NOPULL;
 615              		.loc 1 264 26 is_stmt 0 view .LVU153
 616 0050 0223     		movs	r3, #2
 617 0052 0493     		str	r3, [sp, #16]
 265:Core/Src/stm32f4xx_hal_msp.c ****     GPIO_InitStruct.Speed = GPIO_SPEED_FREQ_LOW;
 618              		.loc 1 265 5 is_stmt 1 view .LVU154
 266:Core/Src/stm32f4xx_hal_msp.c ****     GPIO_InitStruct.Alternate = GPIO_AF5_SPI1;
 619              		.loc 1 266 5 view .LVU155
 267:Core/Src/stm32f4xx_hal_msp.c ****     HAL_GPIO_Init(GPIOA, &GPIO_InitStruct);
 620              		.loc 1 267 5 view .LVU156
 267:Core/Src/stm32f4xx_hal_msp.c ****     HAL_GPIO_Init(GPIOA, &GPIO_InitStruct);
 621              		.loc 1 267 31 is_stmt 0 view .LVU157
 622 0054 0523     		movs	r3, #5
 623 0056 0793     		str	r3, [sp, #28]
 268:Core/Src/stm32f4xx_hal_msp.c **** 
 624              		.loc 1 268 5 is_stmt 1 view .LVU158
 625 0058 03A9     		add	r1, sp, #12
 626 005a 0348     		ldr	r0, .L38+4
 627              	.LVL27:
 268:Core/Src/stm32f4xx_hal_msp.c **** 
 628              		.loc 1 268 5 is_stmt 0 view .LVU159
 629 005c FFF7FEFF 		bl	HAL_GPIO_Init
 630              	.LVL28:
 631              		.loc 1 275 1 view .LVU160
 632 0060 DAE7     		b	.L34
 633              	.L39:
 634 0062 00BF     		.align	2
 635              	.L38:
 636 0064 00300140 		.word	1073819648
 637 0068 00000240 		.word	1073872896
 638              		.cfi_endproc
 639              	.LFE139:
 641              		.section	.text.HAL_SPI_MspDeInit,"ax",%progbits
 642              		.align	1
 643              		.global	HAL_SPI_MspDeInit
 644              		.syntax unified
 645              		.thumb
 646              		.thumb_func
 648              	HAL_SPI_MspDeInit:
 649              	.LVL29:
 650              	.LFB140:
 276:Core/Src/stm32f4xx_hal_msp.c **** 
 277:Core/Src/stm32f4xx_hal_msp.c **** /**
 278:Core/Src/stm32f4xx_hal_msp.c **** * @brief SPI MSP De-Initialization
 279:Core/Src/stm32f4xx_hal_msp.c **** * This function freeze the hardware resources used in this example
 280:Core/Src/stm32f4xx_hal_msp.c **** * @param hspi: SPI handle pointer
 281:Core/Src/stm32f4xx_hal_msp.c **** * @retval None
 282:Core/Src/stm32f4xx_hal_msp.c **** */
 283:Core/Src/stm32f4xx_hal_msp.c **** void HAL_SPI_MspDeInit(SPI_HandleTypeDef* hspi)
 284:Core/Src/stm32f4xx_hal_msp.c **** {
 651              		.loc 1 284 1 is_stmt 1 view -0
 652              		.cfi_startproc
 653              		@ args = 0, pretend = 0, frame = 0
 654              		@ frame_needed = 0, uses_anonymous_args = 0
ARM GAS  C:\Users\ashto\AppData\Local\Temp\ccBwLGhU.s 			page 19


 655              		.loc 1 284 1 is_stmt 0 view .LVU162
 656 0000 08B5     		push	{r3, lr}
 657              	.LCFI17:
 658              		.cfi_def_cfa_offset 8
 659              		.cfi_offset 3, -8
 660              		.cfi_offset 14, -4
 285:Core/Src/stm32f4xx_hal_msp.c ****   if(hspi->Instance==SPI1)
 661              		.loc 1 285 3 is_stmt 1 view .LVU163
 662              		.loc 1 285 10 is_stmt 0 view .LVU164
 663 0002 0268     		ldr	r2, [r0]
 664              		.loc 1 285 5 view .LVU165
 665 0004 064B     		ldr	r3, .L44
 666 0006 9A42     		cmp	r2, r3
 667 0008 00D0     		beq	.L43
 668              	.LVL30:
 669              	.L40:
 286:Core/Src/stm32f4xx_hal_msp.c ****   {
 287:Core/Src/stm32f4xx_hal_msp.c ****   /* USER CODE BEGIN SPI1_MspDeInit 0 */
 288:Core/Src/stm32f4xx_hal_msp.c **** 
 289:Core/Src/stm32f4xx_hal_msp.c ****   /* USER CODE END SPI1_MspDeInit 0 */
 290:Core/Src/stm32f4xx_hal_msp.c ****     /* Peripheral clock disable */
 291:Core/Src/stm32f4xx_hal_msp.c ****     __HAL_RCC_SPI1_CLK_DISABLE();
 292:Core/Src/stm32f4xx_hal_msp.c **** 
 293:Core/Src/stm32f4xx_hal_msp.c ****     /**SPI1 GPIO Configuration
 294:Core/Src/stm32f4xx_hal_msp.c ****     PA5     ------> SPI1_SCK
 295:Core/Src/stm32f4xx_hal_msp.c ****     PA6     ------> SPI1_MISO
 296:Core/Src/stm32f4xx_hal_msp.c ****     PA7     ------> SPI1_MOSI
 297:Core/Src/stm32f4xx_hal_msp.c ****     */
 298:Core/Src/stm32f4xx_hal_msp.c ****     HAL_GPIO_DeInit(GPIOA, SPI1_SCK_Pin|SPI1_MISO_Pin|SPI1_MOSI_Pin);
 299:Core/Src/stm32f4xx_hal_msp.c **** 
 300:Core/Src/stm32f4xx_hal_msp.c ****   /* USER CODE BEGIN SPI1_MspDeInit 1 */
 301:Core/Src/stm32f4xx_hal_msp.c **** 
 302:Core/Src/stm32f4xx_hal_msp.c ****   /* USER CODE END SPI1_MspDeInit 1 */
 303:Core/Src/stm32f4xx_hal_msp.c ****   }
 304:Core/Src/stm32f4xx_hal_msp.c **** 
 305:Core/Src/stm32f4xx_hal_msp.c **** }
 670              		.loc 1 305 1 view .LVU166
 671 000a 08BD     		pop	{r3, pc}
 672              	.LVL31:
 673              	.L43:
 291:Core/Src/stm32f4xx_hal_msp.c **** 
 674              		.loc 1 291 5 is_stmt 1 view .LVU167
 675 000c 054A     		ldr	r2, .L44+4
 676 000e 536C     		ldr	r3, [r2, #68]
 677 0010 23F48053 		bic	r3, r3, #4096
 678 0014 5364     		str	r3, [r2, #68]
 298:Core/Src/stm32f4xx_hal_msp.c **** 
 679              		.loc 1 298 5 view .LVU168
 680 0016 E021     		movs	r1, #224
 681 0018 0348     		ldr	r0, .L44+8
 682              	.LVL32:
 298:Core/Src/stm32f4xx_hal_msp.c **** 
 683              		.loc 1 298 5 is_stmt 0 view .LVU169
 684 001a FFF7FEFF 		bl	HAL_GPIO_DeInit
 685              	.LVL33:
 686              		.loc 1 305 1 view .LVU170
 687 001e F4E7     		b	.L40
ARM GAS  C:\Users\ashto\AppData\Local\Temp\ccBwLGhU.s 			page 20


 688              	.L45:
 689              		.align	2
 690              	.L44:
 691 0020 00300140 		.word	1073819648
 692 0024 00380240 		.word	1073887232
 693 0028 00000240 		.word	1073872896
 694              		.cfi_endproc
 695              	.LFE140:
 697              		.text
 698              	.Letext0:
 699              		.file 2 "c:\\program files (x86)\\gnu arm embedded toolchain\\10 2021.10\\arm-none-eabi\\include\\
 700              		.file 3 "c:\\program files (x86)\\gnu arm embedded toolchain\\10 2021.10\\arm-none-eabi\\include\\
 701              		.file 4 "Drivers/CMSIS/Device/ST/STM32F4xx/Include/stm32f407xx.h"
 702              		.file 5 "Drivers/STM32F4xx_HAL_Driver/Inc/stm32f4xx_hal_def.h"
 703              		.file 6 "Drivers/STM32F4xx_HAL_Driver/Inc/stm32f4xx_hal_rcc_ex.h"
 704              		.file 7 "Drivers/STM32F4xx_HAL_Driver/Inc/stm32f4xx_hal_gpio.h"
 705              		.file 8 "Drivers/STM32F4xx_HAL_Driver/Inc/stm32f4xx_hal_dma.h"
 706              		.file 9 "Drivers/STM32F4xx_HAL_Driver/Inc/stm32f4xx_hal_i2c.h"
 707              		.file 10 "Drivers/STM32F4xx_HAL_Driver/Inc/stm32f4xx_hal_i2s.h"
 708              		.file 11 "Drivers/STM32F4xx_HAL_Driver/Inc/stm32f4xx_hal_spi.h"
 709              		.file 12 "Core/Inc/main.h"
 710              		.file 13 "Drivers/STM32F4xx_HAL_Driver/Inc/stm32f4xx_hal_cortex.h"
ARM GAS  C:\Users\ashto\AppData\Local\Temp\ccBwLGhU.s 			page 21

