ARM GAS  C:\Users\ashto\AppData\Local\Temp\ccdF3pho.s 			page 1


   1              		.cpu cortex-m4
   2              		.arch armv7e-m
   3              		.fpu fpv4-sp-d16
   4              		.eabi_attribute 27, 1
   5              		.eabi_attribute 28, 1
   6              		.eabi_attribute 20, 1
   7              		.eabi_attribute 21, 1
   8              		.eabi_attribute 23, 3
   9              		.eabi_attribute 24, 1
  10              		.eabi_attribute 25, 1
  11              		.eabi_attribute 26, 1
  12              		.eabi_attribute 30, 1
  13              		.eabi_attribute 34, 1
  14              		.eabi_attribute 18, 4
  15              		.file	"stm32f4xx_ll_usb.c"
  16              		.text
  17              	.Ltext0:
  18              		.cfi_sections	.debug_frame
  19              		.section	.text.USB_CoreReset,"ax",%progbits
  20              		.align	1
  21              		.syntax unified
  22              		.thumb
  23              		.thumb_func
  25              	USB_CoreReset:
  26              	.LVL0:
  27              	.LFB168:
  28              		.file 1 "Drivers/STM32F4xx_HAL_Driver/Src/stm32f4xx_ll_usb.c"
   1:Drivers/STM32F4xx_HAL_Driver/Src/stm32f4xx_ll_usb.c **** /**
   2:Drivers/STM32F4xx_HAL_Driver/Src/stm32f4xx_ll_usb.c ****   ******************************************************************************
   3:Drivers/STM32F4xx_HAL_Driver/Src/stm32f4xx_ll_usb.c ****   * @file    stm32f4xx_ll_usb.c
   4:Drivers/STM32F4xx_HAL_Driver/Src/stm32f4xx_ll_usb.c ****   * @author  MCD Application Team
   5:Drivers/STM32F4xx_HAL_Driver/Src/stm32f4xx_ll_usb.c ****   * @brief   USB Low Layer HAL module driver.
   6:Drivers/STM32F4xx_HAL_Driver/Src/stm32f4xx_ll_usb.c ****   *
   7:Drivers/STM32F4xx_HAL_Driver/Src/stm32f4xx_ll_usb.c ****   *          This file provides firmware functions to manage the following
   8:Drivers/STM32F4xx_HAL_Driver/Src/stm32f4xx_ll_usb.c ****   *          functionalities of the USB Peripheral Controller:
   9:Drivers/STM32F4xx_HAL_Driver/Src/stm32f4xx_ll_usb.c ****   *           + Initialization/de-initialization functions
  10:Drivers/STM32F4xx_HAL_Driver/Src/stm32f4xx_ll_usb.c ****   *           + I/O operation functions
  11:Drivers/STM32F4xx_HAL_Driver/Src/stm32f4xx_ll_usb.c ****   *           + Peripheral Control functions
  12:Drivers/STM32F4xx_HAL_Driver/Src/stm32f4xx_ll_usb.c ****   *           + Peripheral State functions
  13:Drivers/STM32F4xx_HAL_Driver/Src/stm32f4xx_ll_usb.c ****   *
  14:Drivers/STM32F4xx_HAL_Driver/Src/stm32f4xx_ll_usb.c ****   ******************************************************************************
  15:Drivers/STM32F4xx_HAL_Driver/Src/stm32f4xx_ll_usb.c ****   * @attention
  16:Drivers/STM32F4xx_HAL_Driver/Src/stm32f4xx_ll_usb.c ****   *
  17:Drivers/STM32F4xx_HAL_Driver/Src/stm32f4xx_ll_usb.c ****   * Copyright (c) 2016 STMicroelectronics.
  18:Drivers/STM32F4xx_HAL_Driver/Src/stm32f4xx_ll_usb.c ****   * All rights reserved.
  19:Drivers/STM32F4xx_HAL_Driver/Src/stm32f4xx_ll_usb.c ****   *
  20:Drivers/STM32F4xx_HAL_Driver/Src/stm32f4xx_ll_usb.c ****   * This software is licensed under terms that can be found in the LICENSE file
  21:Drivers/STM32F4xx_HAL_Driver/Src/stm32f4xx_ll_usb.c ****   * in the root directory of this software component.
  22:Drivers/STM32F4xx_HAL_Driver/Src/stm32f4xx_ll_usb.c ****   * If no LICENSE file comes with this software, it is provided AS-IS.
  23:Drivers/STM32F4xx_HAL_Driver/Src/stm32f4xx_ll_usb.c ****   *
  24:Drivers/STM32F4xx_HAL_Driver/Src/stm32f4xx_ll_usb.c ****   ******************************************************************************
  25:Drivers/STM32F4xx_HAL_Driver/Src/stm32f4xx_ll_usb.c ****   @verbatim
  26:Drivers/STM32F4xx_HAL_Driver/Src/stm32f4xx_ll_usb.c ****   ==============================================================================
  27:Drivers/STM32F4xx_HAL_Driver/Src/stm32f4xx_ll_usb.c ****                     ##### How to use this driver #####
  28:Drivers/STM32F4xx_HAL_Driver/Src/stm32f4xx_ll_usb.c ****   ==============================================================================
  29:Drivers/STM32F4xx_HAL_Driver/Src/stm32f4xx_ll_usb.c ****     [..]
  30:Drivers/STM32F4xx_HAL_Driver/Src/stm32f4xx_ll_usb.c ****       (#) Fill parameters of Init structure in USB_CfgTypeDef structure.
ARM GAS  C:\Users\ashto\AppData\Local\Temp\ccdF3pho.s 			page 2


  31:Drivers/STM32F4xx_HAL_Driver/Src/stm32f4xx_ll_usb.c **** 
  32:Drivers/STM32F4xx_HAL_Driver/Src/stm32f4xx_ll_usb.c ****       (#) Call USB_CoreInit() API to initialize the USB Core peripheral.
  33:Drivers/STM32F4xx_HAL_Driver/Src/stm32f4xx_ll_usb.c **** 
  34:Drivers/STM32F4xx_HAL_Driver/Src/stm32f4xx_ll_usb.c ****       (#) The upper HAL HCD/PCD driver will call the right routines for its internal processes.
  35:Drivers/STM32F4xx_HAL_Driver/Src/stm32f4xx_ll_usb.c **** 
  36:Drivers/STM32F4xx_HAL_Driver/Src/stm32f4xx_ll_usb.c ****   @endverbatim
  37:Drivers/STM32F4xx_HAL_Driver/Src/stm32f4xx_ll_usb.c **** 
  38:Drivers/STM32F4xx_HAL_Driver/Src/stm32f4xx_ll_usb.c ****   ******************************************************************************
  39:Drivers/STM32F4xx_HAL_Driver/Src/stm32f4xx_ll_usb.c ****   */
  40:Drivers/STM32F4xx_HAL_Driver/Src/stm32f4xx_ll_usb.c **** 
  41:Drivers/STM32F4xx_HAL_Driver/Src/stm32f4xx_ll_usb.c **** /* Includes ------------------------------------------------------------------*/
  42:Drivers/STM32F4xx_HAL_Driver/Src/stm32f4xx_ll_usb.c **** #include "stm32f4xx_hal.h"
  43:Drivers/STM32F4xx_HAL_Driver/Src/stm32f4xx_ll_usb.c **** 
  44:Drivers/STM32F4xx_HAL_Driver/Src/stm32f4xx_ll_usb.c **** /** @addtogroup STM32F4xx_LL_USB_DRIVER
  45:Drivers/STM32F4xx_HAL_Driver/Src/stm32f4xx_ll_usb.c ****   * @{
  46:Drivers/STM32F4xx_HAL_Driver/Src/stm32f4xx_ll_usb.c ****   */
  47:Drivers/STM32F4xx_HAL_Driver/Src/stm32f4xx_ll_usb.c **** 
  48:Drivers/STM32F4xx_HAL_Driver/Src/stm32f4xx_ll_usb.c **** #if defined (HAL_PCD_MODULE_ENABLED) || defined (HAL_HCD_MODULE_ENABLED)
  49:Drivers/STM32F4xx_HAL_Driver/Src/stm32f4xx_ll_usb.c **** #if defined (USB_OTG_FS) || defined (USB_OTG_HS)
  50:Drivers/STM32F4xx_HAL_Driver/Src/stm32f4xx_ll_usb.c **** /* Private typedef -----------------------------------------------------------*/
  51:Drivers/STM32F4xx_HAL_Driver/Src/stm32f4xx_ll_usb.c **** /* Private define ------------------------------------------------------------*/
  52:Drivers/STM32F4xx_HAL_Driver/Src/stm32f4xx_ll_usb.c **** /* Private macro -------------------------------------------------------------*/
  53:Drivers/STM32F4xx_HAL_Driver/Src/stm32f4xx_ll_usb.c **** /* Private variables ---------------------------------------------------------*/
  54:Drivers/STM32F4xx_HAL_Driver/Src/stm32f4xx_ll_usb.c **** /* Private function prototypes -----------------------------------------------*/
  55:Drivers/STM32F4xx_HAL_Driver/Src/stm32f4xx_ll_usb.c **** /* Private functions ---------------------------------------------------------*/
  56:Drivers/STM32F4xx_HAL_Driver/Src/stm32f4xx_ll_usb.c **** #if defined (USB_OTG_FS) || defined (USB_OTG_HS)
  57:Drivers/STM32F4xx_HAL_Driver/Src/stm32f4xx_ll_usb.c **** static HAL_StatusTypeDef USB_CoreReset(USB_OTG_GlobalTypeDef *USBx);
  58:Drivers/STM32F4xx_HAL_Driver/Src/stm32f4xx_ll_usb.c **** 
  59:Drivers/STM32F4xx_HAL_Driver/Src/stm32f4xx_ll_usb.c **** /* Exported functions --------------------------------------------------------*/
  60:Drivers/STM32F4xx_HAL_Driver/Src/stm32f4xx_ll_usb.c **** /** @defgroup USB_LL_Exported_Functions USB Low Layer Exported Functions
  61:Drivers/STM32F4xx_HAL_Driver/Src/stm32f4xx_ll_usb.c ****   * @{
  62:Drivers/STM32F4xx_HAL_Driver/Src/stm32f4xx_ll_usb.c ****   */
  63:Drivers/STM32F4xx_HAL_Driver/Src/stm32f4xx_ll_usb.c **** 
  64:Drivers/STM32F4xx_HAL_Driver/Src/stm32f4xx_ll_usb.c **** /** @defgroup USB_LL_Exported_Functions_Group1 Initialization/de-initialization functions
  65:Drivers/STM32F4xx_HAL_Driver/Src/stm32f4xx_ll_usb.c ****   *  @brief    Initialization and Configuration functions
  66:Drivers/STM32F4xx_HAL_Driver/Src/stm32f4xx_ll_usb.c ****   *
  67:Drivers/STM32F4xx_HAL_Driver/Src/stm32f4xx_ll_usb.c **** @verbatim
  68:Drivers/STM32F4xx_HAL_Driver/Src/stm32f4xx_ll_usb.c ****  ===============================================================================
  69:Drivers/STM32F4xx_HAL_Driver/Src/stm32f4xx_ll_usb.c ****                       ##### Initialization/de-initialization functions #####
  70:Drivers/STM32F4xx_HAL_Driver/Src/stm32f4xx_ll_usb.c ****  ===============================================================================
  71:Drivers/STM32F4xx_HAL_Driver/Src/stm32f4xx_ll_usb.c **** 
  72:Drivers/STM32F4xx_HAL_Driver/Src/stm32f4xx_ll_usb.c **** @endverbatim
  73:Drivers/STM32F4xx_HAL_Driver/Src/stm32f4xx_ll_usb.c ****   * @{
  74:Drivers/STM32F4xx_HAL_Driver/Src/stm32f4xx_ll_usb.c ****   */
  75:Drivers/STM32F4xx_HAL_Driver/Src/stm32f4xx_ll_usb.c **** 
  76:Drivers/STM32F4xx_HAL_Driver/Src/stm32f4xx_ll_usb.c **** /**
  77:Drivers/STM32F4xx_HAL_Driver/Src/stm32f4xx_ll_usb.c ****   * @brief  Initializes the USB Core
  78:Drivers/STM32F4xx_HAL_Driver/Src/stm32f4xx_ll_usb.c ****   * @param  USBx USB Instance
  79:Drivers/STM32F4xx_HAL_Driver/Src/stm32f4xx_ll_usb.c ****   * @param  cfg pointer to a USB_OTG_CfgTypeDef structure that contains
  80:Drivers/STM32F4xx_HAL_Driver/Src/stm32f4xx_ll_usb.c ****   *         the configuration information for the specified USBx peripheral.
  81:Drivers/STM32F4xx_HAL_Driver/Src/stm32f4xx_ll_usb.c ****   * @retval HAL status
  82:Drivers/STM32F4xx_HAL_Driver/Src/stm32f4xx_ll_usb.c ****   */
  83:Drivers/STM32F4xx_HAL_Driver/Src/stm32f4xx_ll_usb.c **** HAL_StatusTypeDef USB_CoreInit(USB_OTG_GlobalTypeDef *USBx, USB_OTG_CfgTypeDef cfg)
  84:Drivers/STM32F4xx_HAL_Driver/Src/stm32f4xx_ll_usb.c **** {
  85:Drivers/STM32F4xx_HAL_Driver/Src/stm32f4xx_ll_usb.c ****   HAL_StatusTypeDef ret;
  86:Drivers/STM32F4xx_HAL_Driver/Src/stm32f4xx_ll_usb.c ****   if (cfg.phy_itface == USB_OTG_ULPI_PHY)
  87:Drivers/STM32F4xx_HAL_Driver/Src/stm32f4xx_ll_usb.c ****   {
ARM GAS  C:\Users\ashto\AppData\Local\Temp\ccdF3pho.s 			page 3


  88:Drivers/STM32F4xx_HAL_Driver/Src/stm32f4xx_ll_usb.c ****     USBx->GCCFG &= ~(USB_OTG_GCCFG_PWRDWN);
  89:Drivers/STM32F4xx_HAL_Driver/Src/stm32f4xx_ll_usb.c **** 
  90:Drivers/STM32F4xx_HAL_Driver/Src/stm32f4xx_ll_usb.c ****     /* Init The ULPI Interface */
  91:Drivers/STM32F4xx_HAL_Driver/Src/stm32f4xx_ll_usb.c ****     USBx->GUSBCFG &= ~(USB_OTG_GUSBCFG_TSDPS | USB_OTG_GUSBCFG_ULPIFSLS | USB_OTG_GUSBCFG_PHYSEL);
  92:Drivers/STM32F4xx_HAL_Driver/Src/stm32f4xx_ll_usb.c **** 
  93:Drivers/STM32F4xx_HAL_Driver/Src/stm32f4xx_ll_usb.c ****     /* Select vbus source */
  94:Drivers/STM32F4xx_HAL_Driver/Src/stm32f4xx_ll_usb.c ****     USBx->GUSBCFG &= ~(USB_OTG_GUSBCFG_ULPIEVBUSD | USB_OTG_GUSBCFG_ULPIEVBUSI);
  95:Drivers/STM32F4xx_HAL_Driver/Src/stm32f4xx_ll_usb.c ****     if (cfg.use_external_vbus == 1U)
  96:Drivers/STM32F4xx_HAL_Driver/Src/stm32f4xx_ll_usb.c ****     {
  97:Drivers/STM32F4xx_HAL_Driver/Src/stm32f4xx_ll_usb.c ****       USBx->GUSBCFG |= USB_OTG_GUSBCFG_ULPIEVBUSD;
  98:Drivers/STM32F4xx_HAL_Driver/Src/stm32f4xx_ll_usb.c ****     }
  99:Drivers/STM32F4xx_HAL_Driver/Src/stm32f4xx_ll_usb.c **** 
 100:Drivers/STM32F4xx_HAL_Driver/Src/stm32f4xx_ll_usb.c ****     /* Reset after a PHY select */
 101:Drivers/STM32F4xx_HAL_Driver/Src/stm32f4xx_ll_usb.c ****     ret = USB_CoreReset(USBx);
 102:Drivers/STM32F4xx_HAL_Driver/Src/stm32f4xx_ll_usb.c ****   }
 103:Drivers/STM32F4xx_HAL_Driver/Src/stm32f4xx_ll_usb.c ****   else /* FS interface (embedded Phy) */
 104:Drivers/STM32F4xx_HAL_Driver/Src/stm32f4xx_ll_usb.c ****   {
 105:Drivers/STM32F4xx_HAL_Driver/Src/stm32f4xx_ll_usb.c ****     /* Select FS Embedded PHY */
 106:Drivers/STM32F4xx_HAL_Driver/Src/stm32f4xx_ll_usb.c ****     USBx->GUSBCFG |= USB_OTG_GUSBCFG_PHYSEL;
 107:Drivers/STM32F4xx_HAL_Driver/Src/stm32f4xx_ll_usb.c **** 
 108:Drivers/STM32F4xx_HAL_Driver/Src/stm32f4xx_ll_usb.c ****     /* Reset after a PHY select */
 109:Drivers/STM32F4xx_HAL_Driver/Src/stm32f4xx_ll_usb.c ****     ret = USB_CoreReset(USBx);
 110:Drivers/STM32F4xx_HAL_Driver/Src/stm32f4xx_ll_usb.c **** 
 111:Drivers/STM32F4xx_HAL_Driver/Src/stm32f4xx_ll_usb.c ****     if (cfg.battery_charging_enable == 0U)
 112:Drivers/STM32F4xx_HAL_Driver/Src/stm32f4xx_ll_usb.c ****     {
 113:Drivers/STM32F4xx_HAL_Driver/Src/stm32f4xx_ll_usb.c ****       /* Activate the USB Transceiver */
 114:Drivers/STM32F4xx_HAL_Driver/Src/stm32f4xx_ll_usb.c ****       USBx->GCCFG |= USB_OTG_GCCFG_PWRDWN;
 115:Drivers/STM32F4xx_HAL_Driver/Src/stm32f4xx_ll_usb.c ****     }
 116:Drivers/STM32F4xx_HAL_Driver/Src/stm32f4xx_ll_usb.c ****     else
 117:Drivers/STM32F4xx_HAL_Driver/Src/stm32f4xx_ll_usb.c ****     {
 118:Drivers/STM32F4xx_HAL_Driver/Src/stm32f4xx_ll_usb.c ****       /* Deactivate the USB Transceiver */
 119:Drivers/STM32F4xx_HAL_Driver/Src/stm32f4xx_ll_usb.c ****       USBx->GCCFG &= ~(USB_OTG_GCCFG_PWRDWN);
 120:Drivers/STM32F4xx_HAL_Driver/Src/stm32f4xx_ll_usb.c ****     }
 121:Drivers/STM32F4xx_HAL_Driver/Src/stm32f4xx_ll_usb.c ****   }
 122:Drivers/STM32F4xx_HAL_Driver/Src/stm32f4xx_ll_usb.c **** 
 123:Drivers/STM32F4xx_HAL_Driver/Src/stm32f4xx_ll_usb.c ****   if (cfg.dma_enable == 1U)
 124:Drivers/STM32F4xx_HAL_Driver/Src/stm32f4xx_ll_usb.c ****   {
 125:Drivers/STM32F4xx_HAL_Driver/Src/stm32f4xx_ll_usb.c ****     USBx->GAHBCFG |= USB_OTG_GAHBCFG_HBSTLEN_2;
 126:Drivers/STM32F4xx_HAL_Driver/Src/stm32f4xx_ll_usb.c ****     USBx->GAHBCFG |= USB_OTG_GAHBCFG_DMAEN;
 127:Drivers/STM32F4xx_HAL_Driver/Src/stm32f4xx_ll_usb.c ****   }
 128:Drivers/STM32F4xx_HAL_Driver/Src/stm32f4xx_ll_usb.c **** 
 129:Drivers/STM32F4xx_HAL_Driver/Src/stm32f4xx_ll_usb.c ****   return ret;
 130:Drivers/STM32F4xx_HAL_Driver/Src/stm32f4xx_ll_usb.c **** }
 131:Drivers/STM32F4xx_HAL_Driver/Src/stm32f4xx_ll_usb.c **** 
 132:Drivers/STM32F4xx_HAL_Driver/Src/stm32f4xx_ll_usb.c **** 
 133:Drivers/STM32F4xx_HAL_Driver/Src/stm32f4xx_ll_usb.c **** /**
 134:Drivers/STM32F4xx_HAL_Driver/Src/stm32f4xx_ll_usb.c ****   * @brief  Set the USB turnaround time
 135:Drivers/STM32F4xx_HAL_Driver/Src/stm32f4xx_ll_usb.c ****   * @param  USBx USB Instance
 136:Drivers/STM32F4xx_HAL_Driver/Src/stm32f4xx_ll_usb.c ****   * @param  hclk: AHB clock frequency
 137:Drivers/STM32F4xx_HAL_Driver/Src/stm32f4xx_ll_usb.c ****   * @retval USB turnaround time In PHY Clocks number
 138:Drivers/STM32F4xx_HAL_Driver/Src/stm32f4xx_ll_usb.c ****   */
 139:Drivers/STM32F4xx_HAL_Driver/Src/stm32f4xx_ll_usb.c **** HAL_StatusTypeDef USB_SetTurnaroundTime(USB_OTG_GlobalTypeDef *USBx,
 140:Drivers/STM32F4xx_HAL_Driver/Src/stm32f4xx_ll_usb.c ****                                         uint32_t hclk, uint8_t speed)
 141:Drivers/STM32F4xx_HAL_Driver/Src/stm32f4xx_ll_usb.c **** {
 142:Drivers/STM32F4xx_HAL_Driver/Src/stm32f4xx_ll_usb.c ****   uint32_t UsbTrd;
 143:Drivers/STM32F4xx_HAL_Driver/Src/stm32f4xx_ll_usb.c **** 
 144:Drivers/STM32F4xx_HAL_Driver/Src/stm32f4xx_ll_usb.c ****   /* The USBTRD is configured according to the tables below, depending on AHB frequency
ARM GAS  C:\Users\ashto\AppData\Local\Temp\ccdF3pho.s 			page 4


 145:Drivers/STM32F4xx_HAL_Driver/Src/stm32f4xx_ll_usb.c ****   used by application. In the low AHB frequency range it is used to stretch enough the USB response
 146:Drivers/STM32F4xx_HAL_Driver/Src/stm32f4xx_ll_usb.c ****   time to IN tokens, the USB turnaround time, so to compensate for the longer AHB read access
 147:Drivers/STM32F4xx_HAL_Driver/Src/stm32f4xx_ll_usb.c ****   latency to the Data FIFO */
 148:Drivers/STM32F4xx_HAL_Driver/Src/stm32f4xx_ll_usb.c ****   if (speed == USBD_FS_SPEED)
 149:Drivers/STM32F4xx_HAL_Driver/Src/stm32f4xx_ll_usb.c ****   {
 150:Drivers/STM32F4xx_HAL_Driver/Src/stm32f4xx_ll_usb.c ****     if ((hclk >= 14200000U) && (hclk < 15000000U))
 151:Drivers/STM32F4xx_HAL_Driver/Src/stm32f4xx_ll_usb.c ****     {
 152:Drivers/STM32F4xx_HAL_Driver/Src/stm32f4xx_ll_usb.c ****       /* hclk Clock Range between 14.2-15 MHz */
 153:Drivers/STM32F4xx_HAL_Driver/Src/stm32f4xx_ll_usb.c ****       UsbTrd = 0xFU;
 154:Drivers/STM32F4xx_HAL_Driver/Src/stm32f4xx_ll_usb.c ****     }
 155:Drivers/STM32F4xx_HAL_Driver/Src/stm32f4xx_ll_usb.c ****     else if ((hclk >= 15000000U) && (hclk < 16000000U))
 156:Drivers/STM32F4xx_HAL_Driver/Src/stm32f4xx_ll_usb.c ****     {
 157:Drivers/STM32F4xx_HAL_Driver/Src/stm32f4xx_ll_usb.c ****       /* hclk Clock Range between 15-16 MHz */
 158:Drivers/STM32F4xx_HAL_Driver/Src/stm32f4xx_ll_usb.c ****       UsbTrd = 0xEU;
 159:Drivers/STM32F4xx_HAL_Driver/Src/stm32f4xx_ll_usb.c ****     }
 160:Drivers/STM32F4xx_HAL_Driver/Src/stm32f4xx_ll_usb.c ****     else if ((hclk >= 16000000U) && (hclk < 17200000U))
 161:Drivers/STM32F4xx_HAL_Driver/Src/stm32f4xx_ll_usb.c ****     {
 162:Drivers/STM32F4xx_HAL_Driver/Src/stm32f4xx_ll_usb.c ****       /* hclk Clock Range between 16-17.2 MHz */
 163:Drivers/STM32F4xx_HAL_Driver/Src/stm32f4xx_ll_usb.c ****       UsbTrd = 0xDU;
 164:Drivers/STM32F4xx_HAL_Driver/Src/stm32f4xx_ll_usb.c ****     }
 165:Drivers/STM32F4xx_HAL_Driver/Src/stm32f4xx_ll_usb.c ****     else if ((hclk >= 17200000U) && (hclk < 18500000U))
 166:Drivers/STM32F4xx_HAL_Driver/Src/stm32f4xx_ll_usb.c ****     {
 167:Drivers/STM32F4xx_HAL_Driver/Src/stm32f4xx_ll_usb.c ****       /* hclk Clock Range between 17.2-18.5 MHz */
 168:Drivers/STM32F4xx_HAL_Driver/Src/stm32f4xx_ll_usb.c ****       UsbTrd = 0xCU;
 169:Drivers/STM32F4xx_HAL_Driver/Src/stm32f4xx_ll_usb.c ****     }
 170:Drivers/STM32F4xx_HAL_Driver/Src/stm32f4xx_ll_usb.c ****     else if ((hclk >= 18500000U) && (hclk < 20000000U))
 171:Drivers/STM32F4xx_HAL_Driver/Src/stm32f4xx_ll_usb.c ****     {
 172:Drivers/STM32F4xx_HAL_Driver/Src/stm32f4xx_ll_usb.c ****       /* hclk Clock Range between 18.5-20 MHz */
 173:Drivers/STM32F4xx_HAL_Driver/Src/stm32f4xx_ll_usb.c ****       UsbTrd = 0xBU;
 174:Drivers/STM32F4xx_HAL_Driver/Src/stm32f4xx_ll_usb.c ****     }
 175:Drivers/STM32F4xx_HAL_Driver/Src/stm32f4xx_ll_usb.c ****     else if ((hclk >= 20000000U) && (hclk < 21800000U))
 176:Drivers/STM32F4xx_HAL_Driver/Src/stm32f4xx_ll_usb.c ****     {
 177:Drivers/STM32F4xx_HAL_Driver/Src/stm32f4xx_ll_usb.c ****       /* hclk Clock Range between 20-21.8 MHz */
 178:Drivers/STM32F4xx_HAL_Driver/Src/stm32f4xx_ll_usb.c ****       UsbTrd = 0xAU;
 179:Drivers/STM32F4xx_HAL_Driver/Src/stm32f4xx_ll_usb.c ****     }
 180:Drivers/STM32F4xx_HAL_Driver/Src/stm32f4xx_ll_usb.c ****     else if ((hclk >= 21800000U) && (hclk < 24000000U))
 181:Drivers/STM32F4xx_HAL_Driver/Src/stm32f4xx_ll_usb.c ****     {
 182:Drivers/STM32F4xx_HAL_Driver/Src/stm32f4xx_ll_usb.c ****       /* hclk Clock Range between 21.8-24 MHz */
 183:Drivers/STM32F4xx_HAL_Driver/Src/stm32f4xx_ll_usb.c ****       UsbTrd = 0x9U;
 184:Drivers/STM32F4xx_HAL_Driver/Src/stm32f4xx_ll_usb.c ****     }
 185:Drivers/STM32F4xx_HAL_Driver/Src/stm32f4xx_ll_usb.c ****     else if ((hclk >= 24000000U) && (hclk < 27700000U))
 186:Drivers/STM32F4xx_HAL_Driver/Src/stm32f4xx_ll_usb.c ****     {
 187:Drivers/STM32F4xx_HAL_Driver/Src/stm32f4xx_ll_usb.c ****       /* hclk Clock Range between 24-27.7 MHz */
 188:Drivers/STM32F4xx_HAL_Driver/Src/stm32f4xx_ll_usb.c ****       UsbTrd = 0x8U;
 189:Drivers/STM32F4xx_HAL_Driver/Src/stm32f4xx_ll_usb.c ****     }
 190:Drivers/STM32F4xx_HAL_Driver/Src/stm32f4xx_ll_usb.c ****     else if ((hclk >= 27700000U) && (hclk < 32000000U))
 191:Drivers/STM32F4xx_HAL_Driver/Src/stm32f4xx_ll_usb.c ****     {
 192:Drivers/STM32F4xx_HAL_Driver/Src/stm32f4xx_ll_usb.c ****       /* hclk Clock Range between 27.7-32 MHz */
 193:Drivers/STM32F4xx_HAL_Driver/Src/stm32f4xx_ll_usb.c ****       UsbTrd = 0x7U;
 194:Drivers/STM32F4xx_HAL_Driver/Src/stm32f4xx_ll_usb.c ****     }
 195:Drivers/STM32F4xx_HAL_Driver/Src/stm32f4xx_ll_usb.c ****     else /* if(hclk >= 32000000) */
 196:Drivers/STM32F4xx_HAL_Driver/Src/stm32f4xx_ll_usb.c ****     {
 197:Drivers/STM32F4xx_HAL_Driver/Src/stm32f4xx_ll_usb.c ****       /* hclk Clock Range between 32-200 MHz */
 198:Drivers/STM32F4xx_HAL_Driver/Src/stm32f4xx_ll_usb.c ****       UsbTrd = 0x6U;
 199:Drivers/STM32F4xx_HAL_Driver/Src/stm32f4xx_ll_usb.c ****     }
 200:Drivers/STM32F4xx_HAL_Driver/Src/stm32f4xx_ll_usb.c ****   }
 201:Drivers/STM32F4xx_HAL_Driver/Src/stm32f4xx_ll_usb.c ****   else if (speed == USBD_HS_SPEED)
ARM GAS  C:\Users\ashto\AppData\Local\Temp\ccdF3pho.s 			page 5


 202:Drivers/STM32F4xx_HAL_Driver/Src/stm32f4xx_ll_usb.c ****   {
 203:Drivers/STM32F4xx_HAL_Driver/Src/stm32f4xx_ll_usb.c ****     UsbTrd = USBD_HS_TRDT_VALUE;
 204:Drivers/STM32F4xx_HAL_Driver/Src/stm32f4xx_ll_usb.c ****   }
 205:Drivers/STM32F4xx_HAL_Driver/Src/stm32f4xx_ll_usb.c ****   else
 206:Drivers/STM32F4xx_HAL_Driver/Src/stm32f4xx_ll_usb.c ****   {
 207:Drivers/STM32F4xx_HAL_Driver/Src/stm32f4xx_ll_usb.c ****     UsbTrd = USBD_DEFAULT_TRDT_VALUE;
 208:Drivers/STM32F4xx_HAL_Driver/Src/stm32f4xx_ll_usb.c ****   }
 209:Drivers/STM32F4xx_HAL_Driver/Src/stm32f4xx_ll_usb.c **** 
 210:Drivers/STM32F4xx_HAL_Driver/Src/stm32f4xx_ll_usb.c ****   USBx->GUSBCFG &= ~USB_OTG_GUSBCFG_TRDT;
 211:Drivers/STM32F4xx_HAL_Driver/Src/stm32f4xx_ll_usb.c ****   USBx->GUSBCFG |= (uint32_t)((UsbTrd << 10) & USB_OTG_GUSBCFG_TRDT);
 212:Drivers/STM32F4xx_HAL_Driver/Src/stm32f4xx_ll_usb.c **** 
 213:Drivers/STM32F4xx_HAL_Driver/Src/stm32f4xx_ll_usb.c ****   return HAL_OK;
 214:Drivers/STM32F4xx_HAL_Driver/Src/stm32f4xx_ll_usb.c **** }
 215:Drivers/STM32F4xx_HAL_Driver/Src/stm32f4xx_ll_usb.c **** 
 216:Drivers/STM32F4xx_HAL_Driver/Src/stm32f4xx_ll_usb.c **** /**
 217:Drivers/STM32F4xx_HAL_Driver/Src/stm32f4xx_ll_usb.c ****   * @brief  USB_EnableGlobalInt
 218:Drivers/STM32F4xx_HAL_Driver/Src/stm32f4xx_ll_usb.c ****   *         Enables the controller's Global Int in the AHB Config reg
 219:Drivers/STM32F4xx_HAL_Driver/Src/stm32f4xx_ll_usb.c ****   * @param  USBx  Selected device
 220:Drivers/STM32F4xx_HAL_Driver/Src/stm32f4xx_ll_usb.c ****   * @retval HAL status
 221:Drivers/STM32F4xx_HAL_Driver/Src/stm32f4xx_ll_usb.c ****   */
 222:Drivers/STM32F4xx_HAL_Driver/Src/stm32f4xx_ll_usb.c **** HAL_StatusTypeDef USB_EnableGlobalInt(USB_OTG_GlobalTypeDef *USBx)
 223:Drivers/STM32F4xx_HAL_Driver/Src/stm32f4xx_ll_usb.c **** {
 224:Drivers/STM32F4xx_HAL_Driver/Src/stm32f4xx_ll_usb.c ****   USBx->GAHBCFG |= USB_OTG_GAHBCFG_GINT;
 225:Drivers/STM32F4xx_HAL_Driver/Src/stm32f4xx_ll_usb.c ****   return HAL_OK;
 226:Drivers/STM32F4xx_HAL_Driver/Src/stm32f4xx_ll_usb.c **** }
 227:Drivers/STM32F4xx_HAL_Driver/Src/stm32f4xx_ll_usb.c **** 
 228:Drivers/STM32F4xx_HAL_Driver/Src/stm32f4xx_ll_usb.c **** /**
 229:Drivers/STM32F4xx_HAL_Driver/Src/stm32f4xx_ll_usb.c ****   * @brief  USB_DisableGlobalInt
 230:Drivers/STM32F4xx_HAL_Driver/Src/stm32f4xx_ll_usb.c ****   *         Disable the controller's Global Int in the AHB Config reg
 231:Drivers/STM32F4xx_HAL_Driver/Src/stm32f4xx_ll_usb.c ****   * @param  USBx  Selected device
 232:Drivers/STM32F4xx_HAL_Driver/Src/stm32f4xx_ll_usb.c ****   * @retval HAL status
 233:Drivers/STM32F4xx_HAL_Driver/Src/stm32f4xx_ll_usb.c ****   */
 234:Drivers/STM32F4xx_HAL_Driver/Src/stm32f4xx_ll_usb.c **** HAL_StatusTypeDef USB_DisableGlobalInt(USB_OTG_GlobalTypeDef *USBx)
 235:Drivers/STM32F4xx_HAL_Driver/Src/stm32f4xx_ll_usb.c **** {
 236:Drivers/STM32F4xx_HAL_Driver/Src/stm32f4xx_ll_usb.c ****   USBx->GAHBCFG &= ~USB_OTG_GAHBCFG_GINT;
 237:Drivers/STM32F4xx_HAL_Driver/Src/stm32f4xx_ll_usb.c ****   return HAL_OK;
 238:Drivers/STM32F4xx_HAL_Driver/Src/stm32f4xx_ll_usb.c **** }
 239:Drivers/STM32F4xx_HAL_Driver/Src/stm32f4xx_ll_usb.c **** 
 240:Drivers/STM32F4xx_HAL_Driver/Src/stm32f4xx_ll_usb.c **** /**
 241:Drivers/STM32F4xx_HAL_Driver/Src/stm32f4xx_ll_usb.c ****   * @brief  USB_SetCurrentMode Set functional mode
 242:Drivers/STM32F4xx_HAL_Driver/Src/stm32f4xx_ll_usb.c ****   * @param  USBx  Selected device
 243:Drivers/STM32F4xx_HAL_Driver/Src/stm32f4xx_ll_usb.c ****   * @param  mode  current core mode
 244:Drivers/STM32F4xx_HAL_Driver/Src/stm32f4xx_ll_usb.c ****   *          This parameter can be one of these values:
 245:Drivers/STM32F4xx_HAL_Driver/Src/stm32f4xx_ll_usb.c ****   *            @arg USB_DEVICE_MODE Peripheral mode
 246:Drivers/STM32F4xx_HAL_Driver/Src/stm32f4xx_ll_usb.c ****   *            @arg USB_HOST_MODE Host mode
 247:Drivers/STM32F4xx_HAL_Driver/Src/stm32f4xx_ll_usb.c ****   * @retval HAL status
 248:Drivers/STM32F4xx_HAL_Driver/Src/stm32f4xx_ll_usb.c ****   */
 249:Drivers/STM32F4xx_HAL_Driver/Src/stm32f4xx_ll_usb.c **** HAL_StatusTypeDef USB_SetCurrentMode(USB_OTG_GlobalTypeDef *USBx, USB_OTG_ModeTypeDef mode)
 250:Drivers/STM32F4xx_HAL_Driver/Src/stm32f4xx_ll_usb.c **** {
 251:Drivers/STM32F4xx_HAL_Driver/Src/stm32f4xx_ll_usb.c ****   uint32_t ms = 0U;
 252:Drivers/STM32F4xx_HAL_Driver/Src/stm32f4xx_ll_usb.c **** 
 253:Drivers/STM32F4xx_HAL_Driver/Src/stm32f4xx_ll_usb.c ****   USBx->GUSBCFG &= ~(USB_OTG_GUSBCFG_FHMOD | USB_OTG_GUSBCFG_FDMOD);
 254:Drivers/STM32F4xx_HAL_Driver/Src/stm32f4xx_ll_usb.c **** 
 255:Drivers/STM32F4xx_HAL_Driver/Src/stm32f4xx_ll_usb.c ****   if (mode == USB_HOST_MODE)
 256:Drivers/STM32F4xx_HAL_Driver/Src/stm32f4xx_ll_usb.c ****   {
 257:Drivers/STM32F4xx_HAL_Driver/Src/stm32f4xx_ll_usb.c ****     USBx->GUSBCFG |= USB_OTG_GUSBCFG_FHMOD;
 258:Drivers/STM32F4xx_HAL_Driver/Src/stm32f4xx_ll_usb.c **** 
ARM GAS  C:\Users\ashto\AppData\Local\Temp\ccdF3pho.s 			page 6


 259:Drivers/STM32F4xx_HAL_Driver/Src/stm32f4xx_ll_usb.c ****     do
 260:Drivers/STM32F4xx_HAL_Driver/Src/stm32f4xx_ll_usb.c ****     {
 261:Drivers/STM32F4xx_HAL_Driver/Src/stm32f4xx_ll_usb.c ****       HAL_Delay(10U);
 262:Drivers/STM32F4xx_HAL_Driver/Src/stm32f4xx_ll_usb.c ****       ms += 10U;
 263:Drivers/STM32F4xx_HAL_Driver/Src/stm32f4xx_ll_usb.c ****     } while ((USB_GetMode(USBx) != (uint32_t)USB_HOST_MODE) && (ms < HAL_USB_CURRENT_MODE_MAX_DELAY
 264:Drivers/STM32F4xx_HAL_Driver/Src/stm32f4xx_ll_usb.c ****   }
 265:Drivers/STM32F4xx_HAL_Driver/Src/stm32f4xx_ll_usb.c ****   else if (mode == USB_DEVICE_MODE)
 266:Drivers/STM32F4xx_HAL_Driver/Src/stm32f4xx_ll_usb.c ****   {
 267:Drivers/STM32F4xx_HAL_Driver/Src/stm32f4xx_ll_usb.c ****     USBx->GUSBCFG |= USB_OTG_GUSBCFG_FDMOD;
 268:Drivers/STM32F4xx_HAL_Driver/Src/stm32f4xx_ll_usb.c **** 
 269:Drivers/STM32F4xx_HAL_Driver/Src/stm32f4xx_ll_usb.c ****     do
 270:Drivers/STM32F4xx_HAL_Driver/Src/stm32f4xx_ll_usb.c ****     {
 271:Drivers/STM32F4xx_HAL_Driver/Src/stm32f4xx_ll_usb.c ****       HAL_Delay(10U);
 272:Drivers/STM32F4xx_HAL_Driver/Src/stm32f4xx_ll_usb.c ****       ms += 10U;
 273:Drivers/STM32F4xx_HAL_Driver/Src/stm32f4xx_ll_usb.c ****     } while ((USB_GetMode(USBx) != (uint32_t)USB_DEVICE_MODE) && (ms < HAL_USB_CURRENT_MODE_MAX_DEL
 274:Drivers/STM32F4xx_HAL_Driver/Src/stm32f4xx_ll_usb.c ****   }
 275:Drivers/STM32F4xx_HAL_Driver/Src/stm32f4xx_ll_usb.c ****   else
 276:Drivers/STM32F4xx_HAL_Driver/Src/stm32f4xx_ll_usb.c ****   {
 277:Drivers/STM32F4xx_HAL_Driver/Src/stm32f4xx_ll_usb.c ****     return HAL_ERROR;
 278:Drivers/STM32F4xx_HAL_Driver/Src/stm32f4xx_ll_usb.c ****   }
 279:Drivers/STM32F4xx_HAL_Driver/Src/stm32f4xx_ll_usb.c **** 
 280:Drivers/STM32F4xx_HAL_Driver/Src/stm32f4xx_ll_usb.c ****   if (ms == HAL_USB_CURRENT_MODE_MAX_DELAY_MS)
 281:Drivers/STM32F4xx_HAL_Driver/Src/stm32f4xx_ll_usb.c ****   {
 282:Drivers/STM32F4xx_HAL_Driver/Src/stm32f4xx_ll_usb.c ****     return HAL_ERROR;
 283:Drivers/STM32F4xx_HAL_Driver/Src/stm32f4xx_ll_usb.c ****   }
 284:Drivers/STM32F4xx_HAL_Driver/Src/stm32f4xx_ll_usb.c **** 
 285:Drivers/STM32F4xx_HAL_Driver/Src/stm32f4xx_ll_usb.c ****   return HAL_OK;
 286:Drivers/STM32F4xx_HAL_Driver/Src/stm32f4xx_ll_usb.c **** }
 287:Drivers/STM32F4xx_HAL_Driver/Src/stm32f4xx_ll_usb.c **** 
 288:Drivers/STM32F4xx_HAL_Driver/Src/stm32f4xx_ll_usb.c **** /**
 289:Drivers/STM32F4xx_HAL_Driver/Src/stm32f4xx_ll_usb.c ****   * @brief  USB_DevInit Initializes the USB_OTG controller registers
 290:Drivers/STM32F4xx_HAL_Driver/Src/stm32f4xx_ll_usb.c ****   *         for device mode
 291:Drivers/STM32F4xx_HAL_Driver/Src/stm32f4xx_ll_usb.c ****   * @param  USBx  Selected device
 292:Drivers/STM32F4xx_HAL_Driver/Src/stm32f4xx_ll_usb.c ****   * @param  cfg   pointer to a USB_OTG_CfgTypeDef structure that contains
 293:Drivers/STM32F4xx_HAL_Driver/Src/stm32f4xx_ll_usb.c ****   *         the configuration information for the specified USBx peripheral.
 294:Drivers/STM32F4xx_HAL_Driver/Src/stm32f4xx_ll_usb.c ****   * @retval HAL status
 295:Drivers/STM32F4xx_HAL_Driver/Src/stm32f4xx_ll_usb.c ****   */
 296:Drivers/STM32F4xx_HAL_Driver/Src/stm32f4xx_ll_usb.c **** HAL_StatusTypeDef USB_DevInit(USB_OTG_GlobalTypeDef *USBx, USB_OTG_CfgTypeDef cfg)
 297:Drivers/STM32F4xx_HAL_Driver/Src/stm32f4xx_ll_usb.c **** {
 298:Drivers/STM32F4xx_HAL_Driver/Src/stm32f4xx_ll_usb.c ****   HAL_StatusTypeDef ret = HAL_OK;
 299:Drivers/STM32F4xx_HAL_Driver/Src/stm32f4xx_ll_usb.c ****   uint32_t USBx_BASE = (uint32_t)USBx;
 300:Drivers/STM32F4xx_HAL_Driver/Src/stm32f4xx_ll_usb.c ****   uint32_t i;
 301:Drivers/STM32F4xx_HAL_Driver/Src/stm32f4xx_ll_usb.c **** 
 302:Drivers/STM32F4xx_HAL_Driver/Src/stm32f4xx_ll_usb.c ****   for (i = 0U; i < 15U; i++)
 303:Drivers/STM32F4xx_HAL_Driver/Src/stm32f4xx_ll_usb.c ****   {
 304:Drivers/STM32F4xx_HAL_Driver/Src/stm32f4xx_ll_usb.c ****     USBx->DIEPTXF[i] = 0U;
 305:Drivers/STM32F4xx_HAL_Driver/Src/stm32f4xx_ll_usb.c ****   }
 306:Drivers/STM32F4xx_HAL_Driver/Src/stm32f4xx_ll_usb.c **** 
 307:Drivers/STM32F4xx_HAL_Driver/Src/stm32f4xx_ll_usb.c **** #if defined(STM32F446xx) || defined(STM32F469xx) || defined(STM32F479xx) || defined(STM32F412Zx) \
 308:Drivers/STM32F4xx_HAL_Driver/Src/stm32f4xx_ll_usb.c ****  || defined(STM32F412Vx) || defined(STM32F412Rx) || defined(STM32F412Cx) || defined(STM32F413xx) \
 309:Drivers/STM32F4xx_HAL_Driver/Src/stm32f4xx_ll_usb.c ****  || defined(STM32F423xx)
 310:Drivers/STM32F4xx_HAL_Driver/Src/stm32f4xx_ll_usb.c ****   /* VBUS Sensing setup */
 311:Drivers/STM32F4xx_HAL_Driver/Src/stm32f4xx_ll_usb.c ****   if (cfg.vbus_sensing_enable == 0U)
 312:Drivers/STM32F4xx_HAL_Driver/Src/stm32f4xx_ll_usb.c ****   {
 313:Drivers/STM32F4xx_HAL_Driver/Src/stm32f4xx_ll_usb.c ****     USBx_DEVICE->DCTL |= USB_OTG_DCTL_SDIS;
 314:Drivers/STM32F4xx_HAL_Driver/Src/stm32f4xx_ll_usb.c **** 
 315:Drivers/STM32F4xx_HAL_Driver/Src/stm32f4xx_ll_usb.c ****     /* Deactivate VBUS Sensing B */
ARM GAS  C:\Users\ashto\AppData\Local\Temp\ccdF3pho.s 			page 7


 316:Drivers/STM32F4xx_HAL_Driver/Src/stm32f4xx_ll_usb.c ****     USBx->GCCFG &= ~USB_OTG_GCCFG_VBDEN;
 317:Drivers/STM32F4xx_HAL_Driver/Src/stm32f4xx_ll_usb.c **** 
 318:Drivers/STM32F4xx_HAL_Driver/Src/stm32f4xx_ll_usb.c ****     /* B-peripheral session valid override enable */
 319:Drivers/STM32F4xx_HAL_Driver/Src/stm32f4xx_ll_usb.c ****     USBx->GOTGCTL |= USB_OTG_GOTGCTL_BVALOEN;
 320:Drivers/STM32F4xx_HAL_Driver/Src/stm32f4xx_ll_usb.c ****     USBx->GOTGCTL |= USB_OTG_GOTGCTL_BVALOVAL;
 321:Drivers/STM32F4xx_HAL_Driver/Src/stm32f4xx_ll_usb.c ****   }
 322:Drivers/STM32F4xx_HAL_Driver/Src/stm32f4xx_ll_usb.c ****   else
 323:Drivers/STM32F4xx_HAL_Driver/Src/stm32f4xx_ll_usb.c ****   {
 324:Drivers/STM32F4xx_HAL_Driver/Src/stm32f4xx_ll_usb.c ****     /* Enable HW VBUS sensing */
 325:Drivers/STM32F4xx_HAL_Driver/Src/stm32f4xx_ll_usb.c ****     USBx->GCCFG |= USB_OTG_GCCFG_VBDEN;
 326:Drivers/STM32F4xx_HAL_Driver/Src/stm32f4xx_ll_usb.c ****   }
 327:Drivers/STM32F4xx_HAL_Driver/Src/stm32f4xx_ll_usb.c **** #else
 328:Drivers/STM32F4xx_HAL_Driver/Src/stm32f4xx_ll_usb.c ****   /* VBUS Sensing setup */
 329:Drivers/STM32F4xx_HAL_Driver/Src/stm32f4xx_ll_usb.c ****   if (cfg.vbus_sensing_enable == 0U)
 330:Drivers/STM32F4xx_HAL_Driver/Src/stm32f4xx_ll_usb.c ****   {
 331:Drivers/STM32F4xx_HAL_Driver/Src/stm32f4xx_ll_usb.c ****     /*
 332:Drivers/STM32F4xx_HAL_Driver/Src/stm32f4xx_ll_usb.c ****      * Disable HW VBUS sensing. VBUS is internally considered to be always
 333:Drivers/STM32F4xx_HAL_Driver/Src/stm32f4xx_ll_usb.c ****      * at VBUS-Valid level (5V).
 334:Drivers/STM32F4xx_HAL_Driver/Src/stm32f4xx_ll_usb.c ****      */
 335:Drivers/STM32F4xx_HAL_Driver/Src/stm32f4xx_ll_usb.c ****     USBx_DEVICE->DCTL |= USB_OTG_DCTL_SDIS;
 336:Drivers/STM32F4xx_HAL_Driver/Src/stm32f4xx_ll_usb.c ****     USBx->GCCFG |= USB_OTG_GCCFG_NOVBUSSENS;
 337:Drivers/STM32F4xx_HAL_Driver/Src/stm32f4xx_ll_usb.c ****     USBx->GCCFG &= ~USB_OTG_GCCFG_VBUSBSEN;
 338:Drivers/STM32F4xx_HAL_Driver/Src/stm32f4xx_ll_usb.c ****     USBx->GCCFG &= ~USB_OTG_GCCFG_VBUSASEN;
 339:Drivers/STM32F4xx_HAL_Driver/Src/stm32f4xx_ll_usb.c ****   }
 340:Drivers/STM32F4xx_HAL_Driver/Src/stm32f4xx_ll_usb.c ****   else
 341:Drivers/STM32F4xx_HAL_Driver/Src/stm32f4xx_ll_usb.c ****   {
 342:Drivers/STM32F4xx_HAL_Driver/Src/stm32f4xx_ll_usb.c ****     /* Enable HW VBUS sensing */
 343:Drivers/STM32F4xx_HAL_Driver/Src/stm32f4xx_ll_usb.c ****     USBx->GCCFG &= ~USB_OTG_GCCFG_NOVBUSSENS;
 344:Drivers/STM32F4xx_HAL_Driver/Src/stm32f4xx_ll_usb.c ****     USBx->GCCFG |= USB_OTG_GCCFG_VBUSBSEN;
 345:Drivers/STM32F4xx_HAL_Driver/Src/stm32f4xx_ll_usb.c ****   }
 346:Drivers/STM32F4xx_HAL_Driver/Src/stm32f4xx_ll_usb.c **** #endif /* defined(STM32F446xx) || defined(STM32F469xx) || defined(STM32F479xx) || defined(STM32F412
 347:Drivers/STM32F4xx_HAL_Driver/Src/stm32f4xx_ll_usb.c ****           defined(STM32F412Vx) || defined(STM32F412Rx) || defined(STM32F412Cx) || defined(STM32F413
 348:Drivers/STM32F4xx_HAL_Driver/Src/stm32f4xx_ll_usb.c ****           defined(STM32F423xx) */
 349:Drivers/STM32F4xx_HAL_Driver/Src/stm32f4xx_ll_usb.c **** 
 350:Drivers/STM32F4xx_HAL_Driver/Src/stm32f4xx_ll_usb.c ****   /* Restart the Phy Clock */
 351:Drivers/STM32F4xx_HAL_Driver/Src/stm32f4xx_ll_usb.c ****   USBx_PCGCCTL = 0U;
 352:Drivers/STM32F4xx_HAL_Driver/Src/stm32f4xx_ll_usb.c **** 
 353:Drivers/STM32F4xx_HAL_Driver/Src/stm32f4xx_ll_usb.c ****   if (cfg.phy_itface == USB_OTG_ULPI_PHY)
 354:Drivers/STM32F4xx_HAL_Driver/Src/stm32f4xx_ll_usb.c ****   {
 355:Drivers/STM32F4xx_HAL_Driver/Src/stm32f4xx_ll_usb.c ****     if (cfg.speed == USBD_HS_SPEED)
 356:Drivers/STM32F4xx_HAL_Driver/Src/stm32f4xx_ll_usb.c ****     {
 357:Drivers/STM32F4xx_HAL_Driver/Src/stm32f4xx_ll_usb.c ****       /* Set Core speed to High speed mode */
 358:Drivers/STM32F4xx_HAL_Driver/Src/stm32f4xx_ll_usb.c ****       (void)USB_SetDevSpeed(USBx, USB_OTG_SPEED_HIGH);
 359:Drivers/STM32F4xx_HAL_Driver/Src/stm32f4xx_ll_usb.c ****     }
 360:Drivers/STM32F4xx_HAL_Driver/Src/stm32f4xx_ll_usb.c ****     else
 361:Drivers/STM32F4xx_HAL_Driver/Src/stm32f4xx_ll_usb.c ****     {
 362:Drivers/STM32F4xx_HAL_Driver/Src/stm32f4xx_ll_usb.c ****       /* Set Core speed to Full speed mode */
 363:Drivers/STM32F4xx_HAL_Driver/Src/stm32f4xx_ll_usb.c ****       (void)USB_SetDevSpeed(USBx, USB_OTG_SPEED_HIGH_IN_FULL);
 364:Drivers/STM32F4xx_HAL_Driver/Src/stm32f4xx_ll_usb.c ****     }
 365:Drivers/STM32F4xx_HAL_Driver/Src/stm32f4xx_ll_usb.c ****   }
 366:Drivers/STM32F4xx_HAL_Driver/Src/stm32f4xx_ll_usb.c ****   else
 367:Drivers/STM32F4xx_HAL_Driver/Src/stm32f4xx_ll_usb.c ****   {
 368:Drivers/STM32F4xx_HAL_Driver/Src/stm32f4xx_ll_usb.c ****     /* Set Core speed to Full speed mode */
 369:Drivers/STM32F4xx_HAL_Driver/Src/stm32f4xx_ll_usb.c ****     (void)USB_SetDevSpeed(USBx, USB_OTG_SPEED_FULL);
 370:Drivers/STM32F4xx_HAL_Driver/Src/stm32f4xx_ll_usb.c ****   }
 371:Drivers/STM32F4xx_HAL_Driver/Src/stm32f4xx_ll_usb.c **** 
 372:Drivers/STM32F4xx_HAL_Driver/Src/stm32f4xx_ll_usb.c ****   /* Flush the FIFOs */
ARM GAS  C:\Users\ashto\AppData\Local\Temp\ccdF3pho.s 			page 8


 373:Drivers/STM32F4xx_HAL_Driver/Src/stm32f4xx_ll_usb.c ****   if (USB_FlushTxFifo(USBx, 0x10U) != HAL_OK) /* all Tx FIFOs */
 374:Drivers/STM32F4xx_HAL_Driver/Src/stm32f4xx_ll_usb.c ****   {
 375:Drivers/STM32F4xx_HAL_Driver/Src/stm32f4xx_ll_usb.c ****     ret = HAL_ERROR;
 376:Drivers/STM32F4xx_HAL_Driver/Src/stm32f4xx_ll_usb.c ****   }
 377:Drivers/STM32F4xx_HAL_Driver/Src/stm32f4xx_ll_usb.c **** 
 378:Drivers/STM32F4xx_HAL_Driver/Src/stm32f4xx_ll_usb.c ****   if (USB_FlushRxFifo(USBx) != HAL_OK)
 379:Drivers/STM32F4xx_HAL_Driver/Src/stm32f4xx_ll_usb.c ****   {
 380:Drivers/STM32F4xx_HAL_Driver/Src/stm32f4xx_ll_usb.c ****     ret = HAL_ERROR;
 381:Drivers/STM32F4xx_HAL_Driver/Src/stm32f4xx_ll_usb.c ****   }
 382:Drivers/STM32F4xx_HAL_Driver/Src/stm32f4xx_ll_usb.c **** 
 383:Drivers/STM32F4xx_HAL_Driver/Src/stm32f4xx_ll_usb.c ****   /* Clear all pending Device Interrupts */
 384:Drivers/STM32F4xx_HAL_Driver/Src/stm32f4xx_ll_usb.c ****   USBx_DEVICE->DIEPMSK = 0U;
 385:Drivers/STM32F4xx_HAL_Driver/Src/stm32f4xx_ll_usb.c ****   USBx_DEVICE->DOEPMSK = 0U;
 386:Drivers/STM32F4xx_HAL_Driver/Src/stm32f4xx_ll_usb.c ****   USBx_DEVICE->DAINTMSK = 0U;
 387:Drivers/STM32F4xx_HAL_Driver/Src/stm32f4xx_ll_usb.c **** 
 388:Drivers/STM32F4xx_HAL_Driver/Src/stm32f4xx_ll_usb.c ****   for (i = 0U; i < cfg.dev_endpoints; i++)
 389:Drivers/STM32F4xx_HAL_Driver/Src/stm32f4xx_ll_usb.c ****   {
 390:Drivers/STM32F4xx_HAL_Driver/Src/stm32f4xx_ll_usb.c ****     if ((USBx_INEP(i)->DIEPCTL & USB_OTG_DIEPCTL_EPENA) == USB_OTG_DIEPCTL_EPENA)
 391:Drivers/STM32F4xx_HAL_Driver/Src/stm32f4xx_ll_usb.c ****     {
 392:Drivers/STM32F4xx_HAL_Driver/Src/stm32f4xx_ll_usb.c ****       if (i == 0U)
 393:Drivers/STM32F4xx_HAL_Driver/Src/stm32f4xx_ll_usb.c ****       {
 394:Drivers/STM32F4xx_HAL_Driver/Src/stm32f4xx_ll_usb.c ****         USBx_INEP(i)->DIEPCTL = USB_OTG_DIEPCTL_SNAK;
 395:Drivers/STM32F4xx_HAL_Driver/Src/stm32f4xx_ll_usb.c ****       }
 396:Drivers/STM32F4xx_HAL_Driver/Src/stm32f4xx_ll_usb.c ****       else
 397:Drivers/STM32F4xx_HAL_Driver/Src/stm32f4xx_ll_usb.c ****       {
 398:Drivers/STM32F4xx_HAL_Driver/Src/stm32f4xx_ll_usb.c ****         USBx_INEP(i)->DIEPCTL = USB_OTG_DIEPCTL_EPDIS | USB_OTG_DIEPCTL_SNAK;
 399:Drivers/STM32F4xx_HAL_Driver/Src/stm32f4xx_ll_usb.c ****       }
 400:Drivers/STM32F4xx_HAL_Driver/Src/stm32f4xx_ll_usb.c ****     }
 401:Drivers/STM32F4xx_HAL_Driver/Src/stm32f4xx_ll_usb.c ****     else
 402:Drivers/STM32F4xx_HAL_Driver/Src/stm32f4xx_ll_usb.c ****     {
 403:Drivers/STM32F4xx_HAL_Driver/Src/stm32f4xx_ll_usb.c ****       USBx_INEP(i)->DIEPCTL = 0U;
 404:Drivers/STM32F4xx_HAL_Driver/Src/stm32f4xx_ll_usb.c ****     }
 405:Drivers/STM32F4xx_HAL_Driver/Src/stm32f4xx_ll_usb.c **** 
 406:Drivers/STM32F4xx_HAL_Driver/Src/stm32f4xx_ll_usb.c ****     USBx_INEP(i)->DIEPTSIZ = 0U;
 407:Drivers/STM32F4xx_HAL_Driver/Src/stm32f4xx_ll_usb.c ****     USBx_INEP(i)->DIEPINT  = 0xFB7FU;
 408:Drivers/STM32F4xx_HAL_Driver/Src/stm32f4xx_ll_usb.c ****   }
 409:Drivers/STM32F4xx_HAL_Driver/Src/stm32f4xx_ll_usb.c **** 
 410:Drivers/STM32F4xx_HAL_Driver/Src/stm32f4xx_ll_usb.c ****   for (i = 0U; i < cfg.dev_endpoints; i++)
 411:Drivers/STM32F4xx_HAL_Driver/Src/stm32f4xx_ll_usb.c ****   {
 412:Drivers/STM32F4xx_HAL_Driver/Src/stm32f4xx_ll_usb.c ****     if ((USBx_OUTEP(i)->DOEPCTL & USB_OTG_DOEPCTL_EPENA) == USB_OTG_DOEPCTL_EPENA)
 413:Drivers/STM32F4xx_HAL_Driver/Src/stm32f4xx_ll_usb.c ****     {
 414:Drivers/STM32F4xx_HAL_Driver/Src/stm32f4xx_ll_usb.c ****       if (i == 0U)
 415:Drivers/STM32F4xx_HAL_Driver/Src/stm32f4xx_ll_usb.c ****       {
 416:Drivers/STM32F4xx_HAL_Driver/Src/stm32f4xx_ll_usb.c ****         USBx_OUTEP(i)->DOEPCTL = USB_OTG_DOEPCTL_SNAK;
 417:Drivers/STM32F4xx_HAL_Driver/Src/stm32f4xx_ll_usb.c ****       }
 418:Drivers/STM32F4xx_HAL_Driver/Src/stm32f4xx_ll_usb.c ****       else
 419:Drivers/STM32F4xx_HAL_Driver/Src/stm32f4xx_ll_usb.c ****       {
 420:Drivers/STM32F4xx_HAL_Driver/Src/stm32f4xx_ll_usb.c ****         USBx_OUTEP(i)->DOEPCTL = USB_OTG_DOEPCTL_EPDIS | USB_OTG_DOEPCTL_SNAK;
 421:Drivers/STM32F4xx_HAL_Driver/Src/stm32f4xx_ll_usb.c ****       }
 422:Drivers/STM32F4xx_HAL_Driver/Src/stm32f4xx_ll_usb.c ****     }
 423:Drivers/STM32F4xx_HAL_Driver/Src/stm32f4xx_ll_usb.c ****     else
 424:Drivers/STM32F4xx_HAL_Driver/Src/stm32f4xx_ll_usb.c ****     {
 425:Drivers/STM32F4xx_HAL_Driver/Src/stm32f4xx_ll_usb.c ****       USBx_OUTEP(i)->DOEPCTL = 0U;
 426:Drivers/STM32F4xx_HAL_Driver/Src/stm32f4xx_ll_usb.c ****     }
 427:Drivers/STM32F4xx_HAL_Driver/Src/stm32f4xx_ll_usb.c **** 
 428:Drivers/STM32F4xx_HAL_Driver/Src/stm32f4xx_ll_usb.c ****     USBx_OUTEP(i)->DOEPTSIZ = 0U;
 429:Drivers/STM32F4xx_HAL_Driver/Src/stm32f4xx_ll_usb.c ****     USBx_OUTEP(i)->DOEPINT  = 0xFB7FU;
ARM GAS  C:\Users\ashto\AppData\Local\Temp\ccdF3pho.s 			page 9


 430:Drivers/STM32F4xx_HAL_Driver/Src/stm32f4xx_ll_usb.c ****   }
 431:Drivers/STM32F4xx_HAL_Driver/Src/stm32f4xx_ll_usb.c **** 
 432:Drivers/STM32F4xx_HAL_Driver/Src/stm32f4xx_ll_usb.c ****   USBx_DEVICE->DIEPMSK &= ~(USB_OTG_DIEPMSK_TXFURM);
 433:Drivers/STM32F4xx_HAL_Driver/Src/stm32f4xx_ll_usb.c **** 
 434:Drivers/STM32F4xx_HAL_Driver/Src/stm32f4xx_ll_usb.c ****   /* Disable all interrupts. */
 435:Drivers/STM32F4xx_HAL_Driver/Src/stm32f4xx_ll_usb.c ****   USBx->GINTMSK = 0U;
 436:Drivers/STM32F4xx_HAL_Driver/Src/stm32f4xx_ll_usb.c **** 
 437:Drivers/STM32F4xx_HAL_Driver/Src/stm32f4xx_ll_usb.c ****   /* Clear any pending interrupts */
 438:Drivers/STM32F4xx_HAL_Driver/Src/stm32f4xx_ll_usb.c ****   USBx->GINTSTS = 0xBFFFFFFFU;
 439:Drivers/STM32F4xx_HAL_Driver/Src/stm32f4xx_ll_usb.c **** 
 440:Drivers/STM32F4xx_HAL_Driver/Src/stm32f4xx_ll_usb.c ****   /* Enable the common interrupts */
 441:Drivers/STM32F4xx_HAL_Driver/Src/stm32f4xx_ll_usb.c ****   if (cfg.dma_enable == 0U)
 442:Drivers/STM32F4xx_HAL_Driver/Src/stm32f4xx_ll_usb.c ****   {
 443:Drivers/STM32F4xx_HAL_Driver/Src/stm32f4xx_ll_usb.c ****     USBx->GINTMSK |= USB_OTG_GINTMSK_RXFLVLM;
 444:Drivers/STM32F4xx_HAL_Driver/Src/stm32f4xx_ll_usb.c ****   }
 445:Drivers/STM32F4xx_HAL_Driver/Src/stm32f4xx_ll_usb.c **** 
 446:Drivers/STM32F4xx_HAL_Driver/Src/stm32f4xx_ll_usb.c ****   /* Enable interrupts matching to the Device mode ONLY */
 447:Drivers/STM32F4xx_HAL_Driver/Src/stm32f4xx_ll_usb.c ****   USBx->GINTMSK |= USB_OTG_GINTMSK_USBSUSPM | USB_OTG_GINTMSK_USBRST |
 448:Drivers/STM32F4xx_HAL_Driver/Src/stm32f4xx_ll_usb.c ****                    USB_OTG_GINTMSK_ENUMDNEM | USB_OTG_GINTMSK_IEPINT |
 449:Drivers/STM32F4xx_HAL_Driver/Src/stm32f4xx_ll_usb.c ****                    USB_OTG_GINTMSK_OEPINT   | USB_OTG_GINTMSK_IISOIXFRM |
 450:Drivers/STM32F4xx_HAL_Driver/Src/stm32f4xx_ll_usb.c ****                    USB_OTG_GINTMSK_PXFRM_IISOOXFRM | USB_OTG_GINTMSK_WUIM;
 451:Drivers/STM32F4xx_HAL_Driver/Src/stm32f4xx_ll_usb.c **** 
 452:Drivers/STM32F4xx_HAL_Driver/Src/stm32f4xx_ll_usb.c ****   if (cfg.Sof_enable != 0U)
 453:Drivers/STM32F4xx_HAL_Driver/Src/stm32f4xx_ll_usb.c ****   {
 454:Drivers/STM32F4xx_HAL_Driver/Src/stm32f4xx_ll_usb.c ****     USBx->GINTMSK |= USB_OTG_GINTMSK_SOFM;
 455:Drivers/STM32F4xx_HAL_Driver/Src/stm32f4xx_ll_usb.c ****   }
 456:Drivers/STM32F4xx_HAL_Driver/Src/stm32f4xx_ll_usb.c **** 
 457:Drivers/STM32F4xx_HAL_Driver/Src/stm32f4xx_ll_usb.c ****   if (cfg.vbus_sensing_enable == 1U)
 458:Drivers/STM32F4xx_HAL_Driver/Src/stm32f4xx_ll_usb.c ****   {
 459:Drivers/STM32F4xx_HAL_Driver/Src/stm32f4xx_ll_usb.c ****     USBx->GINTMSK |= (USB_OTG_GINTMSK_SRQIM | USB_OTG_GINTMSK_OTGINT);
 460:Drivers/STM32F4xx_HAL_Driver/Src/stm32f4xx_ll_usb.c ****   }
 461:Drivers/STM32F4xx_HAL_Driver/Src/stm32f4xx_ll_usb.c **** 
 462:Drivers/STM32F4xx_HAL_Driver/Src/stm32f4xx_ll_usb.c ****   return ret;
 463:Drivers/STM32F4xx_HAL_Driver/Src/stm32f4xx_ll_usb.c **** }
 464:Drivers/STM32F4xx_HAL_Driver/Src/stm32f4xx_ll_usb.c **** 
 465:Drivers/STM32F4xx_HAL_Driver/Src/stm32f4xx_ll_usb.c **** /**
 466:Drivers/STM32F4xx_HAL_Driver/Src/stm32f4xx_ll_usb.c ****   * @brief  USB_FlushTxFifo Flush a Tx FIFO
 467:Drivers/STM32F4xx_HAL_Driver/Src/stm32f4xx_ll_usb.c ****   * @param  USBx  Selected device
 468:Drivers/STM32F4xx_HAL_Driver/Src/stm32f4xx_ll_usb.c ****   * @param  num  FIFO number
 469:Drivers/STM32F4xx_HAL_Driver/Src/stm32f4xx_ll_usb.c ****   *         This parameter can be a value from 1 to 15
 470:Drivers/STM32F4xx_HAL_Driver/Src/stm32f4xx_ll_usb.c ****             15 means Flush all Tx FIFOs
 471:Drivers/STM32F4xx_HAL_Driver/Src/stm32f4xx_ll_usb.c ****   * @retval HAL status
 472:Drivers/STM32F4xx_HAL_Driver/Src/stm32f4xx_ll_usb.c ****   */
 473:Drivers/STM32F4xx_HAL_Driver/Src/stm32f4xx_ll_usb.c **** HAL_StatusTypeDef USB_FlushTxFifo(USB_OTG_GlobalTypeDef *USBx, uint32_t num)
 474:Drivers/STM32F4xx_HAL_Driver/Src/stm32f4xx_ll_usb.c **** {
 475:Drivers/STM32F4xx_HAL_Driver/Src/stm32f4xx_ll_usb.c ****   __IO uint32_t count = 0U;
 476:Drivers/STM32F4xx_HAL_Driver/Src/stm32f4xx_ll_usb.c **** 
 477:Drivers/STM32F4xx_HAL_Driver/Src/stm32f4xx_ll_usb.c ****   /* Wait for AHB master IDLE state. */
 478:Drivers/STM32F4xx_HAL_Driver/Src/stm32f4xx_ll_usb.c ****   do
 479:Drivers/STM32F4xx_HAL_Driver/Src/stm32f4xx_ll_usb.c ****   {
 480:Drivers/STM32F4xx_HAL_Driver/Src/stm32f4xx_ll_usb.c ****     count++;
 481:Drivers/STM32F4xx_HAL_Driver/Src/stm32f4xx_ll_usb.c **** 
 482:Drivers/STM32F4xx_HAL_Driver/Src/stm32f4xx_ll_usb.c ****     if (count > HAL_USB_TIMEOUT)
 483:Drivers/STM32F4xx_HAL_Driver/Src/stm32f4xx_ll_usb.c ****     {
 484:Drivers/STM32F4xx_HAL_Driver/Src/stm32f4xx_ll_usb.c ****       return HAL_TIMEOUT;
 485:Drivers/STM32F4xx_HAL_Driver/Src/stm32f4xx_ll_usb.c ****     }
 486:Drivers/STM32F4xx_HAL_Driver/Src/stm32f4xx_ll_usb.c ****   } while ((USBx->GRSTCTL & USB_OTG_GRSTCTL_AHBIDL) == 0U);
ARM GAS  C:\Users\ashto\AppData\Local\Temp\ccdF3pho.s 			page 10


 487:Drivers/STM32F4xx_HAL_Driver/Src/stm32f4xx_ll_usb.c **** 
 488:Drivers/STM32F4xx_HAL_Driver/Src/stm32f4xx_ll_usb.c ****   /* Flush TX Fifo */
 489:Drivers/STM32F4xx_HAL_Driver/Src/stm32f4xx_ll_usb.c ****   count = 0U;
 490:Drivers/STM32F4xx_HAL_Driver/Src/stm32f4xx_ll_usb.c ****   USBx->GRSTCTL = (USB_OTG_GRSTCTL_TXFFLSH | (num << 6));
 491:Drivers/STM32F4xx_HAL_Driver/Src/stm32f4xx_ll_usb.c **** 
 492:Drivers/STM32F4xx_HAL_Driver/Src/stm32f4xx_ll_usb.c ****   do
 493:Drivers/STM32F4xx_HAL_Driver/Src/stm32f4xx_ll_usb.c ****   {
 494:Drivers/STM32F4xx_HAL_Driver/Src/stm32f4xx_ll_usb.c ****     count++;
 495:Drivers/STM32F4xx_HAL_Driver/Src/stm32f4xx_ll_usb.c **** 
 496:Drivers/STM32F4xx_HAL_Driver/Src/stm32f4xx_ll_usb.c ****     if (count > HAL_USB_TIMEOUT)
 497:Drivers/STM32F4xx_HAL_Driver/Src/stm32f4xx_ll_usb.c ****     {
 498:Drivers/STM32F4xx_HAL_Driver/Src/stm32f4xx_ll_usb.c ****       return HAL_TIMEOUT;
 499:Drivers/STM32F4xx_HAL_Driver/Src/stm32f4xx_ll_usb.c ****     }
 500:Drivers/STM32F4xx_HAL_Driver/Src/stm32f4xx_ll_usb.c ****   } while ((USBx->GRSTCTL & USB_OTG_GRSTCTL_TXFFLSH) == USB_OTG_GRSTCTL_TXFFLSH);
 501:Drivers/STM32F4xx_HAL_Driver/Src/stm32f4xx_ll_usb.c **** 
 502:Drivers/STM32F4xx_HAL_Driver/Src/stm32f4xx_ll_usb.c ****   return HAL_OK;
 503:Drivers/STM32F4xx_HAL_Driver/Src/stm32f4xx_ll_usb.c **** }
 504:Drivers/STM32F4xx_HAL_Driver/Src/stm32f4xx_ll_usb.c **** 
 505:Drivers/STM32F4xx_HAL_Driver/Src/stm32f4xx_ll_usb.c **** /**
 506:Drivers/STM32F4xx_HAL_Driver/Src/stm32f4xx_ll_usb.c ****   * @brief  USB_FlushRxFifo  Flush Rx FIFO
 507:Drivers/STM32F4xx_HAL_Driver/Src/stm32f4xx_ll_usb.c ****   * @param  USBx  Selected device
 508:Drivers/STM32F4xx_HAL_Driver/Src/stm32f4xx_ll_usb.c ****   * @retval HAL status
 509:Drivers/STM32F4xx_HAL_Driver/Src/stm32f4xx_ll_usb.c ****   */
 510:Drivers/STM32F4xx_HAL_Driver/Src/stm32f4xx_ll_usb.c **** HAL_StatusTypeDef USB_FlushRxFifo(USB_OTG_GlobalTypeDef *USBx)
 511:Drivers/STM32F4xx_HAL_Driver/Src/stm32f4xx_ll_usb.c **** {
 512:Drivers/STM32F4xx_HAL_Driver/Src/stm32f4xx_ll_usb.c ****   __IO uint32_t count = 0U;
 513:Drivers/STM32F4xx_HAL_Driver/Src/stm32f4xx_ll_usb.c **** 
 514:Drivers/STM32F4xx_HAL_Driver/Src/stm32f4xx_ll_usb.c ****   /* Wait for AHB master IDLE state. */
 515:Drivers/STM32F4xx_HAL_Driver/Src/stm32f4xx_ll_usb.c ****   do
 516:Drivers/STM32F4xx_HAL_Driver/Src/stm32f4xx_ll_usb.c ****   {
 517:Drivers/STM32F4xx_HAL_Driver/Src/stm32f4xx_ll_usb.c ****     count++;
 518:Drivers/STM32F4xx_HAL_Driver/Src/stm32f4xx_ll_usb.c **** 
 519:Drivers/STM32F4xx_HAL_Driver/Src/stm32f4xx_ll_usb.c ****     if (count > HAL_USB_TIMEOUT)
 520:Drivers/STM32F4xx_HAL_Driver/Src/stm32f4xx_ll_usb.c ****     {
 521:Drivers/STM32F4xx_HAL_Driver/Src/stm32f4xx_ll_usb.c ****       return HAL_TIMEOUT;
 522:Drivers/STM32F4xx_HAL_Driver/Src/stm32f4xx_ll_usb.c ****     }
 523:Drivers/STM32F4xx_HAL_Driver/Src/stm32f4xx_ll_usb.c ****   } while ((USBx->GRSTCTL & USB_OTG_GRSTCTL_AHBIDL) == 0U);
 524:Drivers/STM32F4xx_HAL_Driver/Src/stm32f4xx_ll_usb.c **** 
 525:Drivers/STM32F4xx_HAL_Driver/Src/stm32f4xx_ll_usb.c ****   /* Flush RX Fifo */
 526:Drivers/STM32F4xx_HAL_Driver/Src/stm32f4xx_ll_usb.c ****   count = 0U;
 527:Drivers/STM32F4xx_HAL_Driver/Src/stm32f4xx_ll_usb.c ****   USBx->GRSTCTL = USB_OTG_GRSTCTL_RXFFLSH;
 528:Drivers/STM32F4xx_HAL_Driver/Src/stm32f4xx_ll_usb.c **** 
 529:Drivers/STM32F4xx_HAL_Driver/Src/stm32f4xx_ll_usb.c ****   do
 530:Drivers/STM32F4xx_HAL_Driver/Src/stm32f4xx_ll_usb.c ****   {
 531:Drivers/STM32F4xx_HAL_Driver/Src/stm32f4xx_ll_usb.c ****     count++;
 532:Drivers/STM32F4xx_HAL_Driver/Src/stm32f4xx_ll_usb.c **** 
 533:Drivers/STM32F4xx_HAL_Driver/Src/stm32f4xx_ll_usb.c ****     if (count > HAL_USB_TIMEOUT)
 534:Drivers/STM32F4xx_HAL_Driver/Src/stm32f4xx_ll_usb.c ****     {
 535:Drivers/STM32F4xx_HAL_Driver/Src/stm32f4xx_ll_usb.c ****       return HAL_TIMEOUT;
 536:Drivers/STM32F4xx_HAL_Driver/Src/stm32f4xx_ll_usb.c ****     }
 537:Drivers/STM32F4xx_HAL_Driver/Src/stm32f4xx_ll_usb.c ****   } while ((USBx->GRSTCTL & USB_OTG_GRSTCTL_RXFFLSH) == USB_OTG_GRSTCTL_RXFFLSH);
 538:Drivers/STM32F4xx_HAL_Driver/Src/stm32f4xx_ll_usb.c **** 
 539:Drivers/STM32F4xx_HAL_Driver/Src/stm32f4xx_ll_usb.c ****   return HAL_OK;
 540:Drivers/STM32F4xx_HAL_Driver/Src/stm32f4xx_ll_usb.c **** }
 541:Drivers/STM32F4xx_HAL_Driver/Src/stm32f4xx_ll_usb.c **** 
 542:Drivers/STM32F4xx_HAL_Driver/Src/stm32f4xx_ll_usb.c **** /**
 543:Drivers/STM32F4xx_HAL_Driver/Src/stm32f4xx_ll_usb.c ****   * @brief  USB_SetDevSpeed  Initializes the DevSpd field of DCFG register
ARM GAS  C:\Users\ashto\AppData\Local\Temp\ccdF3pho.s 			page 11


 544:Drivers/STM32F4xx_HAL_Driver/Src/stm32f4xx_ll_usb.c ****   *         depending the PHY type and the enumeration speed of the device.
 545:Drivers/STM32F4xx_HAL_Driver/Src/stm32f4xx_ll_usb.c ****   * @param  USBx  Selected device
 546:Drivers/STM32F4xx_HAL_Driver/Src/stm32f4xx_ll_usb.c ****   * @param  speed  device speed
 547:Drivers/STM32F4xx_HAL_Driver/Src/stm32f4xx_ll_usb.c ****   *          This parameter can be one of these values:
 548:Drivers/STM32F4xx_HAL_Driver/Src/stm32f4xx_ll_usb.c ****   *            @arg USB_OTG_SPEED_HIGH: High speed mode
 549:Drivers/STM32F4xx_HAL_Driver/Src/stm32f4xx_ll_usb.c ****   *            @arg USB_OTG_SPEED_HIGH_IN_FULL: High speed core in Full Speed mode
 550:Drivers/STM32F4xx_HAL_Driver/Src/stm32f4xx_ll_usb.c ****   *            @arg USB_OTG_SPEED_FULL: Full speed mode
 551:Drivers/STM32F4xx_HAL_Driver/Src/stm32f4xx_ll_usb.c ****   * @retval  Hal status
 552:Drivers/STM32F4xx_HAL_Driver/Src/stm32f4xx_ll_usb.c ****   */
 553:Drivers/STM32F4xx_HAL_Driver/Src/stm32f4xx_ll_usb.c **** HAL_StatusTypeDef USB_SetDevSpeed(const USB_OTG_GlobalTypeDef *USBx, uint8_t speed)
 554:Drivers/STM32F4xx_HAL_Driver/Src/stm32f4xx_ll_usb.c **** {
 555:Drivers/STM32F4xx_HAL_Driver/Src/stm32f4xx_ll_usb.c ****   uint32_t USBx_BASE = (uint32_t)USBx;
 556:Drivers/STM32F4xx_HAL_Driver/Src/stm32f4xx_ll_usb.c **** 
 557:Drivers/STM32F4xx_HAL_Driver/Src/stm32f4xx_ll_usb.c ****   USBx_DEVICE->DCFG |= speed;
 558:Drivers/STM32F4xx_HAL_Driver/Src/stm32f4xx_ll_usb.c ****   return HAL_OK;
 559:Drivers/STM32F4xx_HAL_Driver/Src/stm32f4xx_ll_usb.c **** }
 560:Drivers/STM32F4xx_HAL_Driver/Src/stm32f4xx_ll_usb.c **** 
 561:Drivers/STM32F4xx_HAL_Driver/Src/stm32f4xx_ll_usb.c **** /**
 562:Drivers/STM32F4xx_HAL_Driver/Src/stm32f4xx_ll_usb.c ****   * @brief  USB_GetDevSpeed  Return the Dev Speed
 563:Drivers/STM32F4xx_HAL_Driver/Src/stm32f4xx_ll_usb.c ****   * @param  USBx  Selected device
 564:Drivers/STM32F4xx_HAL_Driver/Src/stm32f4xx_ll_usb.c ****   * @retval speed  device speed
 565:Drivers/STM32F4xx_HAL_Driver/Src/stm32f4xx_ll_usb.c ****   *          This parameter can be one of these values:
 566:Drivers/STM32F4xx_HAL_Driver/Src/stm32f4xx_ll_usb.c ****   *            @arg USBD_HS_SPEED: High speed mode
 567:Drivers/STM32F4xx_HAL_Driver/Src/stm32f4xx_ll_usb.c ****   *            @arg USBD_FS_SPEED: Full speed mode
 568:Drivers/STM32F4xx_HAL_Driver/Src/stm32f4xx_ll_usb.c ****   */
 569:Drivers/STM32F4xx_HAL_Driver/Src/stm32f4xx_ll_usb.c **** uint8_t USB_GetDevSpeed(const USB_OTG_GlobalTypeDef *USBx)
 570:Drivers/STM32F4xx_HAL_Driver/Src/stm32f4xx_ll_usb.c **** {
 571:Drivers/STM32F4xx_HAL_Driver/Src/stm32f4xx_ll_usb.c ****   uint32_t USBx_BASE = (uint32_t)USBx;
 572:Drivers/STM32F4xx_HAL_Driver/Src/stm32f4xx_ll_usb.c ****   uint8_t speed;
 573:Drivers/STM32F4xx_HAL_Driver/Src/stm32f4xx_ll_usb.c ****   uint32_t DevEnumSpeed = USBx_DEVICE->DSTS & USB_OTG_DSTS_ENUMSPD;
 574:Drivers/STM32F4xx_HAL_Driver/Src/stm32f4xx_ll_usb.c **** 
 575:Drivers/STM32F4xx_HAL_Driver/Src/stm32f4xx_ll_usb.c ****   if (DevEnumSpeed == DSTS_ENUMSPD_HS_PHY_30MHZ_OR_60MHZ)
 576:Drivers/STM32F4xx_HAL_Driver/Src/stm32f4xx_ll_usb.c ****   {
 577:Drivers/STM32F4xx_HAL_Driver/Src/stm32f4xx_ll_usb.c ****     speed = USBD_HS_SPEED;
 578:Drivers/STM32F4xx_HAL_Driver/Src/stm32f4xx_ll_usb.c ****   }
 579:Drivers/STM32F4xx_HAL_Driver/Src/stm32f4xx_ll_usb.c ****   else if ((DevEnumSpeed == DSTS_ENUMSPD_FS_PHY_30MHZ_OR_60MHZ) ||
 580:Drivers/STM32F4xx_HAL_Driver/Src/stm32f4xx_ll_usb.c ****            (DevEnumSpeed == DSTS_ENUMSPD_FS_PHY_48MHZ))
 581:Drivers/STM32F4xx_HAL_Driver/Src/stm32f4xx_ll_usb.c ****   {
 582:Drivers/STM32F4xx_HAL_Driver/Src/stm32f4xx_ll_usb.c ****     speed = USBD_FS_SPEED;
 583:Drivers/STM32F4xx_HAL_Driver/Src/stm32f4xx_ll_usb.c ****   }
 584:Drivers/STM32F4xx_HAL_Driver/Src/stm32f4xx_ll_usb.c ****   else
 585:Drivers/STM32F4xx_HAL_Driver/Src/stm32f4xx_ll_usb.c ****   {
 586:Drivers/STM32F4xx_HAL_Driver/Src/stm32f4xx_ll_usb.c ****     speed = 0xFU;
 587:Drivers/STM32F4xx_HAL_Driver/Src/stm32f4xx_ll_usb.c ****   }
 588:Drivers/STM32F4xx_HAL_Driver/Src/stm32f4xx_ll_usb.c **** 
 589:Drivers/STM32F4xx_HAL_Driver/Src/stm32f4xx_ll_usb.c ****   return speed;
 590:Drivers/STM32F4xx_HAL_Driver/Src/stm32f4xx_ll_usb.c **** }
 591:Drivers/STM32F4xx_HAL_Driver/Src/stm32f4xx_ll_usb.c **** 
 592:Drivers/STM32F4xx_HAL_Driver/Src/stm32f4xx_ll_usb.c **** /**
 593:Drivers/STM32F4xx_HAL_Driver/Src/stm32f4xx_ll_usb.c ****   * @brief  Activate and configure an endpoint
 594:Drivers/STM32F4xx_HAL_Driver/Src/stm32f4xx_ll_usb.c ****   * @param  USBx  Selected device
 595:Drivers/STM32F4xx_HAL_Driver/Src/stm32f4xx_ll_usb.c ****   * @param  ep pointer to endpoint structure
 596:Drivers/STM32F4xx_HAL_Driver/Src/stm32f4xx_ll_usb.c ****   * @retval HAL status
 597:Drivers/STM32F4xx_HAL_Driver/Src/stm32f4xx_ll_usb.c ****   */
 598:Drivers/STM32F4xx_HAL_Driver/Src/stm32f4xx_ll_usb.c **** HAL_StatusTypeDef USB_ActivateEndpoint(const USB_OTG_GlobalTypeDef *USBx, const USB_OTG_EPTypeDef *
 599:Drivers/STM32F4xx_HAL_Driver/Src/stm32f4xx_ll_usb.c **** {
 600:Drivers/STM32F4xx_HAL_Driver/Src/stm32f4xx_ll_usb.c ****   uint32_t USBx_BASE = (uint32_t)USBx;
ARM GAS  C:\Users\ashto\AppData\Local\Temp\ccdF3pho.s 			page 12


 601:Drivers/STM32F4xx_HAL_Driver/Src/stm32f4xx_ll_usb.c ****   uint32_t epnum = (uint32_t)ep->num;
 602:Drivers/STM32F4xx_HAL_Driver/Src/stm32f4xx_ll_usb.c **** 
 603:Drivers/STM32F4xx_HAL_Driver/Src/stm32f4xx_ll_usb.c ****   if (ep->is_in == 1U)
 604:Drivers/STM32F4xx_HAL_Driver/Src/stm32f4xx_ll_usb.c ****   {
 605:Drivers/STM32F4xx_HAL_Driver/Src/stm32f4xx_ll_usb.c ****     USBx_DEVICE->DAINTMSK |= USB_OTG_DAINTMSK_IEPM & (uint32_t)(1UL << (ep->num & EP_ADDR_MSK));
 606:Drivers/STM32F4xx_HAL_Driver/Src/stm32f4xx_ll_usb.c **** 
 607:Drivers/STM32F4xx_HAL_Driver/Src/stm32f4xx_ll_usb.c ****     if ((USBx_INEP(epnum)->DIEPCTL & USB_OTG_DIEPCTL_USBAEP) == 0U)
 608:Drivers/STM32F4xx_HAL_Driver/Src/stm32f4xx_ll_usb.c ****     {
 609:Drivers/STM32F4xx_HAL_Driver/Src/stm32f4xx_ll_usb.c ****       USBx_INEP(epnum)->DIEPCTL |= (ep->maxpacket & USB_OTG_DIEPCTL_MPSIZ) |
 610:Drivers/STM32F4xx_HAL_Driver/Src/stm32f4xx_ll_usb.c ****                                    ((uint32_t)ep->type << 18) | (epnum << 22) |
 611:Drivers/STM32F4xx_HAL_Driver/Src/stm32f4xx_ll_usb.c ****                                    USB_OTG_DIEPCTL_SD0PID_SEVNFRM |
 612:Drivers/STM32F4xx_HAL_Driver/Src/stm32f4xx_ll_usb.c ****                                    USB_OTG_DIEPCTL_USBAEP;
 613:Drivers/STM32F4xx_HAL_Driver/Src/stm32f4xx_ll_usb.c ****     }
 614:Drivers/STM32F4xx_HAL_Driver/Src/stm32f4xx_ll_usb.c ****   }
 615:Drivers/STM32F4xx_HAL_Driver/Src/stm32f4xx_ll_usb.c ****   else
 616:Drivers/STM32F4xx_HAL_Driver/Src/stm32f4xx_ll_usb.c ****   {
 617:Drivers/STM32F4xx_HAL_Driver/Src/stm32f4xx_ll_usb.c ****     USBx_DEVICE->DAINTMSK |= USB_OTG_DAINTMSK_OEPM & ((uint32_t)(1UL << (ep->num & EP_ADDR_MSK)) <<
 618:Drivers/STM32F4xx_HAL_Driver/Src/stm32f4xx_ll_usb.c **** 
 619:Drivers/STM32F4xx_HAL_Driver/Src/stm32f4xx_ll_usb.c ****     if (((USBx_OUTEP(epnum)->DOEPCTL) & USB_OTG_DOEPCTL_USBAEP) == 0U)
 620:Drivers/STM32F4xx_HAL_Driver/Src/stm32f4xx_ll_usb.c ****     {
 621:Drivers/STM32F4xx_HAL_Driver/Src/stm32f4xx_ll_usb.c ****       USBx_OUTEP(epnum)->DOEPCTL |= (ep->maxpacket & USB_OTG_DOEPCTL_MPSIZ) |
 622:Drivers/STM32F4xx_HAL_Driver/Src/stm32f4xx_ll_usb.c ****                                     ((uint32_t)ep->type << 18) |
 623:Drivers/STM32F4xx_HAL_Driver/Src/stm32f4xx_ll_usb.c ****                                     USB_OTG_DIEPCTL_SD0PID_SEVNFRM |
 624:Drivers/STM32F4xx_HAL_Driver/Src/stm32f4xx_ll_usb.c ****                                     USB_OTG_DOEPCTL_USBAEP;
 625:Drivers/STM32F4xx_HAL_Driver/Src/stm32f4xx_ll_usb.c ****     }
 626:Drivers/STM32F4xx_HAL_Driver/Src/stm32f4xx_ll_usb.c ****   }
 627:Drivers/STM32F4xx_HAL_Driver/Src/stm32f4xx_ll_usb.c ****   return HAL_OK;
 628:Drivers/STM32F4xx_HAL_Driver/Src/stm32f4xx_ll_usb.c **** }
 629:Drivers/STM32F4xx_HAL_Driver/Src/stm32f4xx_ll_usb.c **** 
 630:Drivers/STM32F4xx_HAL_Driver/Src/stm32f4xx_ll_usb.c **** /**
 631:Drivers/STM32F4xx_HAL_Driver/Src/stm32f4xx_ll_usb.c ****   * @brief  Activate and configure a dedicated endpoint
 632:Drivers/STM32F4xx_HAL_Driver/Src/stm32f4xx_ll_usb.c ****   * @param  USBx  Selected device
 633:Drivers/STM32F4xx_HAL_Driver/Src/stm32f4xx_ll_usb.c ****   * @param  ep pointer to endpoint structure
 634:Drivers/STM32F4xx_HAL_Driver/Src/stm32f4xx_ll_usb.c ****   * @retval HAL status
 635:Drivers/STM32F4xx_HAL_Driver/Src/stm32f4xx_ll_usb.c ****   */
 636:Drivers/STM32F4xx_HAL_Driver/Src/stm32f4xx_ll_usb.c **** HAL_StatusTypeDef USB_ActivateDedicatedEndpoint(const USB_OTG_GlobalTypeDef *USBx, const USB_OTG_EP
 637:Drivers/STM32F4xx_HAL_Driver/Src/stm32f4xx_ll_usb.c **** {
 638:Drivers/STM32F4xx_HAL_Driver/Src/stm32f4xx_ll_usb.c ****   uint32_t USBx_BASE = (uint32_t)USBx;
 639:Drivers/STM32F4xx_HAL_Driver/Src/stm32f4xx_ll_usb.c ****   uint32_t epnum = (uint32_t)ep->num;
 640:Drivers/STM32F4xx_HAL_Driver/Src/stm32f4xx_ll_usb.c **** 
 641:Drivers/STM32F4xx_HAL_Driver/Src/stm32f4xx_ll_usb.c ****   /* Read DEPCTLn register */
 642:Drivers/STM32F4xx_HAL_Driver/Src/stm32f4xx_ll_usb.c ****   if (ep->is_in == 1U)
 643:Drivers/STM32F4xx_HAL_Driver/Src/stm32f4xx_ll_usb.c ****   {
 644:Drivers/STM32F4xx_HAL_Driver/Src/stm32f4xx_ll_usb.c ****     if (((USBx_INEP(epnum)->DIEPCTL) & USB_OTG_DIEPCTL_USBAEP) == 0U)
 645:Drivers/STM32F4xx_HAL_Driver/Src/stm32f4xx_ll_usb.c ****     {
 646:Drivers/STM32F4xx_HAL_Driver/Src/stm32f4xx_ll_usb.c ****       USBx_INEP(epnum)->DIEPCTL |= (ep->maxpacket & USB_OTG_DIEPCTL_MPSIZ) |
 647:Drivers/STM32F4xx_HAL_Driver/Src/stm32f4xx_ll_usb.c ****                                    ((uint32_t)ep->type << 18) | (epnum << 22) |
 648:Drivers/STM32F4xx_HAL_Driver/Src/stm32f4xx_ll_usb.c ****                                    USB_OTG_DIEPCTL_SD0PID_SEVNFRM |
 649:Drivers/STM32F4xx_HAL_Driver/Src/stm32f4xx_ll_usb.c ****                                    USB_OTG_DIEPCTL_USBAEP;
 650:Drivers/STM32F4xx_HAL_Driver/Src/stm32f4xx_ll_usb.c ****     }
 651:Drivers/STM32F4xx_HAL_Driver/Src/stm32f4xx_ll_usb.c **** 
 652:Drivers/STM32F4xx_HAL_Driver/Src/stm32f4xx_ll_usb.c ****     USBx_DEVICE->DEACHMSK |= USB_OTG_DAINTMSK_IEPM & (uint32_t)(1UL << (ep->num & EP_ADDR_MSK));
 653:Drivers/STM32F4xx_HAL_Driver/Src/stm32f4xx_ll_usb.c ****   }
 654:Drivers/STM32F4xx_HAL_Driver/Src/stm32f4xx_ll_usb.c ****   else
 655:Drivers/STM32F4xx_HAL_Driver/Src/stm32f4xx_ll_usb.c ****   {
 656:Drivers/STM32F4xx_HAL_Driver/Src/stm32f4xx_ll_usb.c ****     if (((USBx_OUTEP(epnum)->DOEPCTL) & USB_OTG_DOEPCTL_USBAEP) == 0U)
 657:Drivers/STM32F4xx_HAL_Driver/Src/stm32f4xx_ll_usb.c ****     {
ARM GAS  C:\Users\ashto\AppData\Local\Temp\ccdF3pho.s 			page 13


 658:Drivers/STM32F4xx_HAL_Driver/Src/stm32f4xx_ll_usb.c ****       USBx_OUTEP(epnum)->DOEPCTL |= (ep->maxpacket & USB_OTG_DOEPCTL_MPSIZ) |
 659:Drivers/STM32F4xx_HAL_Driver/Src/stm32f4xx_ll_usb.c ****                                     ((uint32_t)ep->type << 18) | (epnum << 22) |
 660:Drivers/STM32F4xx_HAL_Driver/Src/stm32f4xx_ll_usb.c ****                                     USB_OTG_DOEPCTL_USBAEP;
 661:Drivers/STM32F4xx_HAL_Driver/Src/stm32f4xx_ll_usb.c ****     }
 662:Drivers/STM32F4xx_HAL_Driver/Src/stm32f4xx_ll_usb.c **** 
 663:Drivers/STM32F4xx_HAL_Driver/Src/stm32f4xx_ll_usb.c ****     USBx_DEVICE->DEACHMSK |= USB_OTG_DAINTMSK_OEPM & ((uint32_t)(1UL << (ep->num & EP_ADDR_MSK)) <<
 664:Drivers/STM32F4xx_HAL_Driver/Src/stm32f4xx_ll_usb.c ****   }
 665:Drivers/STM32F4xx_HAL_Driver/Src/stm32f4xx_ll_usb.c **** 
 666:Drivers/STM32F4xx_HAL_Driver/Src/stm32f4xx_ll_usb.c ****   return HAL_OK;
 667:Drivers/STM32F4xx_HAL_Driver/Src/stm32f4xx_ll_usb.c **** }
 668:Drivers/STM32F4xx_HAL_Driver/Src/stm32f4xx_ll_usb.c **** 
 669:Drivers/STM32F4xx_HAL_Driver/Src/stm32f4xx_ll_usb.c **** /**
 670:Drivers/STM32F4xx_HAL_Driver/Src/stm32f4xx_ll_usb.c ****   * @brief  De-activate and de-initialize an endpoint
 671:Drivers/STM32F4xx_HAL_Driver/Src/stm32f4xx_ll_usb.c ****   * @param  USBx  Selected device
 672:Drivers/STM32F4xx_HAL_Driver/Src/stm32f4xx_ll_usb.c ****   * @param  ep pointer to endpoint structure
 673:Drivers/STM32F4xx_HAL_Driver/Src/stm32f4xx_ll_usb.c ****   * @retval HAL status
 674:Drivers/STM32F4xx_HAL_Driver/Src/stm32f4xx_ll_usb.c ****   */
 675:Drivers/STM32F4xx_HAL_Driver/Src/stm32f4xx_ll_usb.c **** HAL_StatusTypeDef USB_DeactivateEndpoint(const USB_OTG_GlobalTypeDef *USBx, const USB_OTG_EPTypeDef
 676:Drivers/STM32F4xx_HAL_Driver/Src/stm32f4xx_ll_usb.c **** {
 677:Drivers/STM32F4xx_HAL_Driver/Src/stm32f4xx_ll_usb.c ****   uint32_t USBx_BASE = (uint32_t)USBx;
 678:Drivers/STM32F4xx_HAL_Driver/Src/stm32f4xx_ll_usb.c ****   uint32_t epnum = (uint32_t)ep->num;
 679:Drivers/STM32F4xx_HAL_Driver/Src/stm32f4xx_ll_usb.c **** 
 680:Drivers/STM32F4xx_HAL_Driver/Src/stm32f4xx_ll_usb.c ****   /* Read DEPCTLn register */
 681:Drivers/STM32F4xx_HAL_Driver/Src/stm32f4xx_ll_usb.c ****   if (ep->is_in == 1U)
 682:Drivers/STM32F4xx_HAL_Driver/Src/stm32f4xx_ll_usb.c ****   {
 683:Drivers/STM32F4xx_HAL_Driver/Src/stm32f4xx_ll_usb.c ****     if ((USBx_INEP(epnum)->DIEPCTL & USB_OTG_DIEPCTL_EPENA) == USB_OTG_DIEPCTL_EPENA)
 684:Drivers/STM32F4xx_HAL_Driver/Src/stm32f4xx_ll_usb.c ****     {
 685:Drivers/STM32F4xx_HAL_Driver/Src/stm32f4xx_ll_usb.c ****       USBx_INEP(epnum)->DIEPCTL |= USB_OTG_DIEPCTL_SNAK;
 686:Drivers/STM32F4xx_HAL_Driver/Src/stm32f4xx_ll_usb.c ****       USBx_INEP(epnum)->DIEPCTL |= USB_OTG_DIEPCTL_EPDIS;
 687:Drivers/STM32F4xx_HAL_Driver/Src/stm32f4xx_ll_usb.c ****     }
 688:Drivers/STM32F4xx_HAL_Driver/Src/stm32f4xx_ll_usb.c **** 
 689:Drivers/STM32F4xx_HAL_Driver/Src/stm32f4xx_ll_usb.c ****     USBx_DEVICE->DEACHMSK &= ~(USB_OTG_DAINTMSK_IEPM & (uint32_t)(1UL << (ep->num & EP_ADDR_MSK)));
 690:Drivers/STM32F4xx_HAL_Driver/Src/stm32f4xx_ll_usb.c ****     USBx_DEVICE->DAINTMSK &= ~(USB_OTG_DAINTMSK_IEPM & (uint32_t)(1UL << (ep->num & EP_ADDR_MSK)));
 691:Drivers/STM32F4xx_HAL_Driver/Src/stm32f4xx_ll_usb.c ****     USBx_INEP(epnum)->DIEPCTL &= ~(USB_OTG_DIEPCTL_USBAEP |
 692:Drivers/STM32F4xx_HAL_Driver/Src/stm32f4xx_ll_usb.c ****                                    USB_OTG_DIEPCTL_MPSIZ |
 693:Drivers/STM32F4xx_HAL_Driver/Src/stm32f4xx_ll_usb.c ****                                    USB_OTG_DIEPCTL_TXFNUM |
 694:Drivers/STM32F4xx_HAL_Driver/Src/stm32f4xx_ll_usb.c ****                                    USB_OTG_DIEPCTL_SD0PID_SEVNFRM |
 695:Drivers/STM32F4xx_HAL_Driver/Src/stm32f4xx_ll_usb.c ****                                    USB_OTG_DIEPCTL_EPTYP);
 696:Drivers/STM32F4xx_HAL_Driver/Src/stm32f4xx_ll_usb.c ****   }
 697:Drivers/STM32F4xx_HAL_Driver/Src/stm32f4xx_ll_usb.c ****   else
 698:Drivers/STM32F4xx_HAL_Driver/Src/stm32f4xx_ll_usb.c ****   {
 699:Drivers/STM32F4xx_HAL_Driver/Src/stm32f4xx_ll_usb.c ****     if ((USBx_OUTEP(epnum)->DOEPCTL & USB_OTG_DOEPCTL_EPENA) == USB_OTG_DOEPCTL_EPENA)
 700:Drivers/STM32F4xx_HAL_Driver/Src/stm32f4xx_ll_usb.c ****     {
 701:Drivers/STM32F4xx_HAL_Driver/Src/stm32f4xx_ll_usb.c ****       USBx_OUTEP(epnum)->DOEPCTL |= USB_OTG_DOEPCTL_SNAK;
 702:Drivers/STM32F4xx_HAL_Driver/Src/stm32f4xx_ll_usb.c ****       USBx_OUTEP(epnum)->DOEPCTL |= USB_OTG_DOEPCTL_EPDIS;
 703:Drivers/STM32F4xx_HAL_Driver/Src/stm32f4xx_ll_usb.c ****     }
 704:Drivers/STM32F4xx_HAL_Driver/Src/stm32f4xx_ll_usb.c **** 
 705:Drivers/STM32F4xx_HAL_Driver/Src/stm32f4xx_ll_usb.c ****     USBx_DEVICE->DEACHMSK &= ~(USB_OTG_DAINTMSK_OEPM & ((uint32_t)(1UL << (ep->num & EP_ADDR_MSK)) 
 706:Drivers/STM32F4xx_HAL_Driver/Src/stm32f4xx_ll_usb.c ****     USBx_DEVICE->DAINTMSK &= ~(USB_OTG_DAINTMSK_OEPM & ((uint32_t)(1UL << (ep->num & EP_ADDR_MSK)) 
 707:Drivers/STM32F4xx_HAL_Driver/Src/stm32f4xx_ll_usb.c ****     USBx_OUTEP(epnum)->DOEPCTL &= ~(USB_OTG_DOEPCTL_USBAEP |
 708:Drivers/STM32F4xx_HAL_Driver/Src/stm32f4xx_ll_usb.c ****                                     USB_OTG_DOEPCTL_MPSIZ |
 709:Drivers/STM32F4xx_HAL_Driver/Src/stm32f4xx_ll_usb.c ****                                     USB_OTG_DOEPCTL_SD0PID_SEVNFRM |
 710:Drivers/STM32F4xx_HAL_Driver/Src/stm32f4xx_ll_usb.c ****                                     USB_OTG_DOEPCTL_EPTYP);
 711:Drivers/STM32F4xx_HAL_Driver/Src/stm32f4xx_ll_usb.c ****   }
 712:Drivers/STM32F4xx_HAL_Driver/Src/stm32f4xx_ll_usb.c **** 
 713:Drivers/STM32F4xx_HAL_Driver/Src/stm32f4xx_ll_usb.c ****   return HAL_OK;
 714:Drivers/STM32F4xx_HAL_Driver/Src/stm32f4xx_ll_usb.c **** }
ARM GAS  C:\Users\ashto\AppData\Local\Temp\ccdF3pho.s 			page 14


 715:Drivers/STM32F4xx_HAL_Driver/Src/stm32f4xx_ll_usb.c **** 
 716:Drivers/STM32F4xx_HAL_Driver/Src/stm32f4xx_ll_usb.c **** /**
 717:Drivers/STM32F4xx_HAL_Driver/Src/stm32f4xx_ll_usb.c ****   * @brief  De-activate and de-initialize a dedicated endpoint
 718:Drivers/STM32F4xx_HAL_Driver/Src/stm32f4xx_ll_usb.c ****   * @param  USBx  Selected device
 719:Drivers/STM32F4xx_HAL_Driver/Src/stm32f4xx_ll_usb.c ****   * @param  ep pointer to endpoint structure
 720:Drivers/STM32F4xx_HAL_Driver/Src/stm32f4xx_ll_usb.c ****   * @retval HAL status
 721:Drivers/STM32F4xx_HAL_Driver/Src/stm32f4xx_ll_usb.c ****   */
 722:Drivers/STM32F4xx_HAL_Driver/Src/stm32f4xx_ll_usb.c **** HAL_StatusTypeDef USB_DeactivateDedicatedEndpoint(const USB_OTG_GlobalTypeDef *USBx, const USB_OTG_
 723:Drivers/STM32F4xx_HAL_Driver/Src/stm32f4xx_ll_usb.c **** {
 724:Drivers/STM32F4xx_HAL_Driver/Src/stm32f4xx_ll_usb.c ****   uint32_t USBx_BASE = (uint32_t)USBx;
 725:Drivers/STM32F4xx_HAL_Driver/Src/stm32f4xx_ll_usb.c ****   uint32_t epnum = (uint32_t)ep->num;
 726:Drivers/STM32F4xx_HAL_Driver/Src/stm32f4xx_ll_usb.c **** 
 727:Drivers/STM32F4xx_HAL_Driver/Src/stm32f4xx_ll_usb.c ****   /* Read DEPCTLn register */
 728:Drivers/STM32F4xx_HAL_Driver/Src/stm32f4xx_ll_usb.c ****   if (ep->is_in == 1U)
 729:Drivers/STM32F4xx_HAL_Driver/Src/stm32f4xx_ll_usb.c ****   {
 730:Drivers/STM32F4xx_HAL_Driver/Src/stm32f4xx_ll_usb.c ****     if ((USBx_INEP(epnum)->DIEPCTL & USB_OTG_DIEPCTL_EPENA) == USB_OTG_DIEPCTL_EPENA)
 731:Drivers/STM32F4xx_HAL_Driver/Src/stm32f4xx_ll_usb.c ****     {
 732:Drivers/STM32F4xx_HAL_Driver/Src/stm32f4xx_ll_usb.c ****       USBx_INEP(epnum)->DIEPCTL  |= USB_OTG_DIEPCTL_SNAK;
 733:Drivers/STM32F4xx_HAL_Driver/Src/stm32f4xx_ll_usb.c ****       USBx_INEP(epnum)->DIEPCTL  |= USB_OTG_DIEPCTL_EPDIS;
 734:Drivers/STM32F4xx_HAL_Driver/Src/stm32f4xx_ll_usb.c ****     }
 735:Drivers/STM32F4xx_HAL_Driver/Src/stm32f4xx_ll_usb.c **** 
 736:Drivers/STM32F4xx_HAL_Driver/Src/stm32f4xx_ll_usb.c ****     USBx_INEP(epnum)->DIEPCTL &= ~ USB_OTG_DIEPCTL_USBAEP;
 737:Drivers/STM32F4xx_HAL_Driver/Src/stm32f4xx_ll_usb.c ****     USBx_DEVICE->DAINTMSK &= ~(USB_OTG_DAINTMSK_IEPM & (uint32_t)(1UL << (ep->num & EP_ADDR_MSK)));
 738:Drivers/STM32F4xx_HAL_Driver/Src/stm32f4xx_ll_usb.c ****   }
 739:Drivers/STM32F4xx_HAL_Driver/Src/stm32f4xx_ll_usb.c ****   else
 740:Drivers/STM32F4xx_HAL_Driver/Src/stm32f4xx_ll_usb.c ****   {
 741:Drivers/STM32F4xx_HAL_Driver/Src/stm32f4xx_ll_usb.c ****     if ((USBx_OUTEP(epnum)->DOEPCTL & USB_OTG_DOEPCTL_EPENA) == USB_OTG_DOEPCTL_EPENA)
 742:Drivers/STM32F4xx_HAL_Driver/Src/stm32f4xx_ll_usb.c ****     {
 743:Drivers/STM32F4xx_HAL_Driver/Src/stm32f4xx_ll_usb.c ****       USBx_OUTEP(epnum)->DOEPCTL  |= USB_OTG_DOEPCTL_SNAK;
 744:Drivers/STM32F4xx_HAL_Driver/Src/stm32f4xx_ll_usb.c ****       USBx_OUTEP(epnum)->DOEPCTL  |= USB_OTG_DOEPCTL_EPDIS;
 745:Drivers/STM32F4xx_HAL_Driver/Src/stm32f4xx_ll_usb.c ****     }
 746:Drivers/STM32F4xx_HAL_Driver/Src/stm32f4xx_ll_usb.c **** 
 747:Drivers/STM32F4xx_HAL_Driver/Src/stm32f4xx_ll_usb.c ****     USBx_OUTEP(epnum)->DOEPCTL &= ~USB_OTG_DOEPCTL_USBAEP;
 748:Drivers/STM32F4xx_HAL_Driver/Src/stm32f4xx_ll_usb.c ****     USBx_DEVICE->DAINTMSK &= ~(USB_OTG_DAINTMSK_OEPM & ((uint32_t)(1UL << (ep->num & EP_ADDR_MSK)) 
 749:Drivers/STM32F4xx_HAL_Driver/Src/stm32f4xx_ll_usb.c ****   }
 750:Drivers/STM32F4xx_HAL_Driver/Src/stm32f4xx_ll_usb.c **** 
 751:Drivers/STM32F4xx_HAL_Driver/Src/stm32f4xx_ll_usb.c ****   return HAL_OK;
 752:Drivers/STM32F4xx_HAL_Driver/Src/stm32f4xx_ll_usb.c **** }
 753:Drivers/STM32F4xx_HAL_Driver/Src/stm32f4xx_ll_usb.c **** 
 754:Drivers/STM32F4xx_HAL_Driver/Src/stm32f4xx_ll_usb.c **** /**
 755:Drivers/STM32F4xx_HAL_Driver/Src/stm32f4xx_ll_usb.c ****   * @brief  USB_EPStartXfer : setup and starts a transfer over an EP
 756:Drivers/STM32F4xx_HAL_Driver/Src/stm32f4xx_ll_usb.c ****   * @param  USBx  Selected device
 757:Drivers/STM32F4xx_HAL_Driver/Src/stm32f4xx_ll_usb.c ****   * @param  ep pointer to endpoint structure
 758:Drivers/STM32F4xx_HAL_Driver/Src/stm32f4xx_ll_usb.c ****   * @param  dma USB dma enabled or disabled
 759:Drivers/STM32F4xx_HAL_Driver/Src/stm32f4xx_ll_usb.c ****   *          This parameter can be one of these values:
 760:Drivers/STM32F4xx_HAL_Driver/Src/stm32f4xx_ll_usb.c ****   *           0 : DMA feature not used
 761:Drivers/STM32F4xx_HAL_Driver/Src/stm32f4xx_ll_usb.c ****   *           1 : DMA feature used
 762:Drivers/STM32F4xx_HAL_Driver/Src/stm32f4xx_ll_usb.c ****   * @retval HAL status
 763:Drivers/STM32F4xx_HAL_Driver/Src/stm32f4xx_ll_usb.c ****   */
 764:Drivers/STM32F4xx_HAL_Driver/Src/stm32f4xx_ll_usb.c **** HAL_StatusTypeDef USB_EPStartXfer(USB_OTG_GlobalTypeDef *USBx, USB_OTG_EPTypeDef *ep, uint8_t dma)
 765:Drivers/STM32F4xx_HAL_Driver/Src/stm32f4xx_ll_usb.c **** {
 766:Drivers/STM32F4xx_HAL_Driver/Src/stm32f4xx_ll_usb.c ****   uint32_t USBx_BASE = (uint32_t)USBx;
 767:Drivers/STM32F4xx_HAL_Driver/Src/stm32f4xx_ll_usb.c ****   uint32_t epnum = (uint32_t)ep->num;
 768:Drivers/STM32F4xx_HAL_Driver/Src/stm32f4xx_ll_usb.c ****   uint16_t pktcnt;
 769:Drivers/STM32F4xx_HAL_Driver/Src/stm32f4xx_ll_usb.c **** 
 770:Drivers/STM32F4xx_HAL_Driver/Src/stm32f4xx_ll_usb.c ****   /* IN endpoint */
 771:Drivers/STM32F4xx_HAL_Driver/Src/stm32f4xx_ll_usb.c ****   if (ep->is_in == 1U)
ARM GAS  C:\Users\ashto\AppData\Local\Temp\ccdF3pho.s 			page 15


 772:Drivers/STM32F4xx_HAL_Driver/Src/stm32f4xx_ll_usb.c ****   {
 773:Drivers/STM32F4xx_HAL_Driver/Src/stm32f4xx_ll_usb.c ****     /* Zero Length Packet? */
 774:Drivers/STM32F4xx_HAL_Driver/Src/stm32f4xx_ll_usb.c ****     if (ep->xfer_len == 0U)
 775:Drivers/STM32F4xx_HAL_Driver/Src/stm32f4xx_ll_usb.c ****     {
 776:Drivers/STM32F4xx_HAL_Driver/Src/stm32f4xx_ll_usb.c ****       USBx_INEP(epnum)->DIEPTSIZ &= ~(USB_OTG_DIEPTSIZ_PKTCNT);
 777:Drivers/STM32F4xx_HAL_Driver/Src/stm32f4xx_ll_usb.c ****       USBx_INEP(epnum)->DIEPTSIZ |= (USB_OTG_DIEPTSIZ_PKTCNT & (1U << 19));
 778:Drivers/STM32F4xx_HAL_Driver/Src/stm32f4xx_ll_usb.c ****       USBx_INEP(epnum)->DIEPTSIZ &= ~(USB_OTG_DIEPTSIZ_XFRSIZ);
 779:Drivers/STM32F4xx_HAL_Driver/Src/stm32f4xx_ll_usb.c ****     }
 780:Drivers/STM32F4xx_HAL_Driver/Src/stm32f4xx_ll_usb.c ****     else
 781:Drivers/STM32F4xx_HAL_Driver/Src/stm32f4xx_ll_usb.c ****     {
 782:Drivers/STM32F4xx_HAL_Driver/Src/stm32f4xx_ll_usb.c ****       /* Program the transfer size and packet count
 783:Drivers/STM32F4xx_HAL_Driver/Src/stm32f4xx_ll_usb.c ****       * as follows: xfersize = N * maxpacket +
 784:Drivers/STM32F4xx_HAL_Driver/Src/stm32f4xx_ll_usb.c ****       * short_packet pktcnt = N + (short_packet
 785:Drivers/STM32F4xx_HAL_Driver/Src/stm32f4xx_ll_usb.c ****       * exist ? 1 : 0)
 786:Drivers/STM32F4xx_HAL_Driver/Src/stm32f4xx_ll_usb.c ****       */
 787:Drivers/STM32F4xx_HAL_Driver/Src/stm32f4xx_ll_usb.c ****       USBx_INEP(epnum)->DIEPTSIZ &= ~(USB_OTG_DIEPTSIZ_XFRSIZ);
 788:Drivers/STM32F4xx_HAL_Driver/Src/stm32f4xx_ll_usb.c ****       USBx_INEP(epnum)->DIEPTSIZ &= ~(USB_OTG_DIEPTSIZ_PKTCNT);
 789:Drivers/STM32F4xx_HAL_Driver/Src/stm32f4xx_ll_usb.c **** 
 790:Drivers/STM32F4xx_HAL_Driver/Src/stm32f4xx_ll_usb.c ****       if (epnum == 0U)
 791:Drivers/STM32F4xx_HAL_Driver/Src/stm32f4xx_ll_usb.c ****       {
 792:Drivers/STM32F4xx_HAL_Driver/Src/stm32f4xx_ll_usb.c ****         if (ep->xfer_len > ep->maxpacket)
 793:Drivers/STM32F4xx_HAL_Driver/Src/stm32f4xx_ll_usb.c ****         {
 794:Drivers/STM32F4xx_HAL_Driver/Src/stm32f4xx_ll_usb.c ****           ep->xfer_len = ep->maxpacket;
 795:Drivers/STM32F4xx_HAL_Driver/Src/stm32f4xx_ll_usb.c ****         }
 796:Drivers/STM32F4xx_HAL_Driver/Src/stm32f4xx_ll_usb.c **** 
 797:Drivers/STM32F4xx_HAL_Driver/Src/stm32f4xx_ll_usb.c ****         USBx_INEP(epnum)->DIEPTSIZ |= (USB_OTG_DIEPTSIZ_PKTCNT & (1U << 19));
 798:Drivers/STM32F4xx_HAL_Driver/Src/stm32f4xx_ll_usb.c ****       }
 799:Drivers/STM32F4xx_HAL_Driver/Src/stm32f4xx_ll_usb.c ****       else
 800:Drivers/STM32F4xx_HAL_Driver/Src/stm32f4xx_ll_usb.c ****       {
 801:Drivers/STM32F4xx_HAL_Driver/Src/stm32f4xx_ll_usb.c ****         USBx_INEP(epnum)->DIEPTSIZ |= (USB_OTG_DIEPTSIZ_PKTCNT &
 802:Drivers/STM32F4xx_HAL_Driver/Src/stm32f4xx_ll_usb.c ****                                        (((ep->xfer_len + ep->maxpacket - 1U) / ep->maxpacket) << 19
 803:Drivers/STM32F4xx_HAL_Driver/Src/stm32f4xx_ll_usb.c ****       }
 804:Drivers/STM32F4xx_HAL_Driver/Src/stm32f4xx_ll_usb.c **** 
 805:Drivers/STM32F4xx_HAL_Driver/Src/stm32f4xx_ll_usb.c ****       USBx_INEP(epnum)->DIEPTSIZ |= (USB_OTG_DIEPTSIZ_XFRSIZ & ep->xfer_len);
 806:Drivers/STM32F4xx_HAL_Driver/Src/stm32f4xx_ll_usb.c **** 
 807:Drivers/STM32F4xx_HAL_Driver/Src/stm32f4xx_ll_usb.c ****       if (ep->type == EP_TYPE_ISOC)
 808:Drivers/STM32F4xx_HAL_Driver/Src/stm32f4xx_ll_usb.c ****       {
 809:Drivers/STM32F4xx_HAL_Driver/Src/stm32f4xx_ll_usb.c ****         USBx_INEP(epnum)->DIEPTSIZ &= ~(USB_OTG_DIEPTSIZ_MULCNT);
 810:Drivers/STM32F4xx_HAL_Driver/Src/stm32f4xx_ll_usb.c ****         USBx_INEP(epnum)->DIEPTSIZ |= (USB_OTG_DIEPTSIZ_MULCNT & (1U << 29));
 811:Drivers/STM32F4xx_HAL_Driver/Src/stm32f4xx_ll_usb.c ****       }
 812:Drivers/STM32F4xx_HAL_Driver/Src/stm32f4xx_ll_usb.c ****     }
 813:Drivers/STM32F4xx_HAL_Driver/Src/stm32f4xx_ll_usb.c **** 
 814:Drivers/STM32F4xx_HAL_Driver/Src/stm32f4xx_ll_usb.c ****     if (dma == 1U)
 815:Drivers/STM32F4xx_HAL_Driver/Src/stm32f4xx_ll_usb.c ****     {
 816:Drivers/STM32F4xx_HAL_Driver/Src/stm32f4xx_ll_usb.c ****       if ((uint32_t)ep->dma_addr != 0U)
 817:Drivers/STM32F4xx_HAL_Driver/Src/stm32f4xx_ll_usb.c ****       {
 818:Drivers/STM32F4xx_HAL_Driver/Src/stm32f4xx_ll_usb.c ****         USBx_INEP(epnum)->DIEPDMA = (uint32_t)(ep->dma_addr);
 819:Drivers/STM32F4xx_HAL_Driver/Src/stm32f4xx_ll_usb.c ****       }
 820:Drivers/STM32F4xx_HAL_Driver/Src/stm32f4xx_ll_usb.c **** 
 821:Drivers/STM32F4xx_HAL_Driver/Src/stm32f4xx_ll_usb.c ****       if (ep->type == EP_TYPE_ISOC)
 822:Drivers/STM32F4xx_HAL_Driver/Src/stm32f4xx_ll_usb.c ****       {
 823:Drivers/STM32F4xx_HAL_Driver/Src/stm32f4xx_ll_usb.c ****         if ((USBx_DEVICE->DSTS & (1U << 8)) == 0U)
 824:Drivers/STM32F4xx_HAL_Driver/Src/stm32f4xx_ll_usb.c ****         {
 825:Drivers/STM32F4xx_HAL_Driver/Src/stm32f4xx_ll_usb.c ****           USBx_INEP(epnum)->DIEPCTL |= USB_OTG_DIEPCTL_SODDFRM;
 826:Drivers/STM32F4xx_HAL_Driver/Src/stm32f4xx_ll_usb.c ****         }
 827:Drivers/STM32F4xx_HAL_Driver/Src/stm32f4xx_ll_usb.c ****         else
 828:Drivers/STM32F4xx_HAL_Driver/Src/stm32f4xx_ll_usb.c ****         {
ARM GAS  C:\Users\ashto\AppData\Local\Temp\ccdF3pho.s 			page 16


 829:Drivers/STM32F4xx_HAL_Driver/Src/stm32f4xx_ll_usb.c ****           USBx_INEP(epnum)->DIEPCTL |= USB_OTG_DIEPCTL_SD0PID_SEVNFRM;
 830:Drivers/STM32F4xx_HAL_Driver/Src/stm32f4xx_ll_usb.c ****         }
 831:Drivers/STM32F4xx_HAL_Driver/Src/stm32f4xx_ll_usb.c ****       }
 832:Drivers/STM32F4xx_HAL_Driver/Src/stm32f4xx_ll_usb.c **** 
 833:Drivers/STM32F4xx_HAL_Driver/Src/stm32f4xx_ll_usb.c ****       /* EP enable, IN data in FIFO */
 834:Drivers/STM32F4xx_HAL_Driver/Src/stm32f4xx_ll_usb.c ****       USBx_INEP(epnum)->DIEPCTL |= (USB_OTG_DIEPCTL_CNAK | USB_OTG_DIEPCTL_EPENA);
 835:Drivers/STM32F4xx_HAL_Driver/Src/stm32f4xx_ll_usb.c ****     }
 836:Drivers/STM32F4xx_HAL_Driver/Src/stm32f4xx_ll_usb.c ****     else
 837:Drivers/STM32F4xx_HAL_Driver/Src/stm32f4xx_ll_usb.c ****     {
 838:Drivers/STM32F4xx_HAL_Driver/Src/stm32f4xx_ll_usb.c ****       /* EP enable, IN data in FIFO */
 839:Drivers/STM32F4xx_HAL_Driver/Src/stm32f4xx_ll_usb.c ****       USBx_INEP(epnum)->DIEPCTL |= (USB_OTG_DIEPCTL_CNAK | USB_OTG_DIEPCTL_EPENA);
 840:Drivers/STM32F4xx_HAL_Driver/Src/stm32f4xx_ll_usb.c **** 
 841:Drivers/STM32F4xx_HAL_Driver/Src/stm32f4xx_ll_usb.c ****       if (ep->type != EP_TYPE_ISOC)
 842:Drivers/STM32F4xx_HAL_Driver/Src/stm32f4xx_ll_usb.c ****       {
 843:Drivers/STM32F4xx_HAL_Driver/Src/stm32f4xx_ll_usb.c ****         /* Enable the Tx FIFO Empty Interrupt for this EP */
 844:Drivers/STM32F4xx_HAL_Driver/Src/stm32f4xx_ll_usb.c ****         if (ep->xfer_len > 0U)
 845:Drivers/STM32F4xx_HAL_Driver/Src/stm32f4xx_ll_usb.c ****         {
 846:Drivers/STM32F4xx_HAL_Driver/Src/stm32f4xx_ll_usb.c ****           USBx_DEVICE->DIEPEMPMSK |= 1UL << (ep->num & EP_ADDR_MSK);
 847:Drivers/STM32F4xx_HAL_Driver/Src/stm32f4xx_ll_usb.c ****         }
 848:Drivers/STM32F4xx_HAL_Driver/Src/stm32f4xx_ll_usb.c ****       }
 849:Drivers/STM32F4xx_HAL_Driver/Src/stm32f4xx_ll_usb.c ****       else
 850:Drivers/STM32F4xx_HAL_Driver/Src/stm32f4xx_ll_usb.c ****       {
 851:Drivers/STM32F4xx_HAL_Driver/Src/stm32f4xx_ll_usb.c ****         if ((USBx_DEVICE->DSTS & (1U << 8)) == 0U)
 852:Drivers/STM32F4xx_HAL_Driver/Src/stm32f4xx_ll_usb.c ****         {
 853:Drivers/STM32F4xx_HAL_Driver/Src/stm32f4xx_ll_usb.c ****           USBx_INEP(epnum)->DIEPCTL |= USB_OTG_DIEPCTL_SODDFRM;
 854:Drivers/STM32F4xx_HAL_Driver/Src/stm32f4xx_ll_usb.c ****         }
 855:Drivers/STM32F4xx_HAL_Driver/Src/stm32f4xx_ll_usb.c ****         else
 856:Drivers/STM32F4xx_HAL_Driver/Src/stm32f4xx_ll_usb.c ****         {
 857:Drivers/STM32F4xx_HAL_Driver/Src/stm32f4xx_ll_usb.c ****           USBx_INEP(epnum)->DIEPCTL |= USB_OTG_DIEPCTL_SD0PID_SEVNFRM;
 858:Drivers/STM32F4xx_HAL_Driver/Src/stm32f4xx_ll_usb.c ****         }
 859:Drivers/STM32F4xx_HAL_Driver/Src/stm32f4xx_ll_usb.c **** 
 860:Drivers/STM32F4xx_HAL_Driver/Src/stm32f4xx_ll_usb.c ****         (void)USB_WritePacket(USBx, ep->xfer_buff, ep->num, (uint16_t)ep->xfer_len, dma);
 861:Drivers/STM32F4xx_HAL_Driver/Src/stm32f4xx_ll_usb.c ****       }
 862:Drivers/STM32F4xx_HAL_Driver/Src/stm32f4xx_ll_usb.c ****     }
 863:Drivers/STM32F4xx_HAL_Driver/Src/stm32f4xx_ll_usb.c ****   }
 864:Drivers/STM32F4xx_HAL_Driver/Src/stm32f4xx_ll_usb.c ****   else /* OUT endpoint */
 865:Drivers/STM32F4xx_HAL_Driver/Src/stm32f4xx_ll_usb.c ****   {
 866:Drivers/STM32F4xx_HAL_Driver/Src/stm32f4xx_ll_usb.c ****     /* Program the transfer size and packet count as follows:
 867:Drivers/STM32F4xx_HAL_Driver/Src/stm32f4xx_ll_usb.c ****     * pktcnt = N
 868:Drivers/STM32F4xx_HAL_Driver/Src/stm32f4xx_ll_usb.c ****     * xfersize = N * maxpacket
 869:Drivers/STM32F4xx_HAL_Driver/Src/stm32f4xx_ll_usb.c ****     */
 870:Drivers/STM32F4xx_HAL_Driver/Src/stm32f4xx_ll_usb.c ****     USBx_OUTEP(epnum)->DOEPTSIZ &= ~(USB_OTG_DOEPTSIZ_XFRSIZ);
 871:Drivers/STM32F4xx_HAL_Driver/Src/stm32f4xx_ll_usb.c ****     USBx_OUTEP(epnum)->DOEPTSIZ &= ~(USB_OTG_DOEPTSIZ_PKTCNT);
 872:Drivers/STM32F4xx_HAL_Driver/Src/stm32f4xx_ll_usb.c **** 
 873:Drivers/STM32F4xx_HAL_Driver/Src/stm32f4xx_ll_usb.c ****     if (epnum == 0U)
 874:Drivers/STM32F4xx_HAL_Driver/Src/stm32f4xx_ll_usb.c ****     {
 875:Drivers/STM32F4xx_HAL_Driver/Src/stm32f4xx_ll_usb.c ****       if (ep->xfer_len > 0U)
 876:Drivers/STM32F4xx_HAL_Driver/Src/stm32f4xx_ll_usb.c ****       {
 877:Drivers/STM32F4xx_HAL_Driver/Src/stm32f4xx_ll_usb.c ****         ep->xfer_len = ep->maxpacket;
 878:Drivers/STM32F4xx_HAL_Driver/Src/stm32f4xx_ll_usb.c ****       }
 879:Drivers/STM32F4xx_HAL_Driver/Src/stm32f4xx_ll_usb.c **** 
 880:Drivers/STM32F4xx_HAL_Driver/Src/stm32f4xx_ll_usb.c ****       /* Store transfer size, for EP0 this is equal to endpoint max packet size */
 881:Drivers/STM32F4xx_HAL_Driver/Src/stm32f4xx_ll_usb.c ****       ep->xfer_size = ep->maxpacket;
 882:Drivers/STM32F4xx_HAL_Driver/Src/stm32f4xx_ll_usb.c **** 
 883:Drivers/STM32F4xx_HAL_Driver/Src/stm32f4xx_ll_usb.c ****       USBx_OUTEP(epnum)->DOEPTSIZ |= (USB_OTG_DOEPTSIZ_XFRSIZ & ep->xfer_size);
 884:Drivers/STM32F4xx_HAL_Driver/Src/stm32f4xx_ll_usb.c ****       USBx_OUTEP(epnum)->DOEPTSIZ |= (USB_OTG_DOEPTSIZ_PKTCNT & (1U << 19));
 885:Drivers/STM32F4xx_HAL_Driver/Src/stm32f4xx_ll_usb.c ****     }
ARM GAS  C:\Users\ashto\AppData\Local\Temp\ccdF3pho.s 			page 17


 886:Drivers/STM32F4xx_HAL_Driver/Src/stm32f4xx_ll_usb.c ****     else
 887:Drivers/STM32F4xx_HAL_Driver/Src/stm32f4xx_ll_usb.c ****     {
 888:Drivers/STM32F4xx_HAL_Driver/Src/stm32f4xx_ll_usb.c ****       if (ep->xfer_len == 0U)
 889:Drivers/STM32F4xx_HAL_Driver/Src/stm32f4xx_ll_usb.c ****       {
 890:Drivers/STM32F4xx_HAL_Driver/Src/stm32f4xx_ll_usb.c ****         USBx_OUTEP(epnum)->DOEPTSIZ |= (USB_OTG_DOEPTSIZ_XFRSIZ & ep->maxpacket);
 891:Drivers/STM32F4xx_HAL_Driver/Src/stm32f4xx_ll_usb.c ****         USBx_OUTEP(epnum)->DOEPTSIZ |= (USB_OTG_DOEPTSIZ_PKTCNT & (1U << 19));
 892:Drivers/STM32F4xx_HAL_Driver/Src/stm32f4xx_ll_usb.c ****       }
 893:Drivers/STM32F4xx_HAL_Driver/Src/stm32f4xx_ll_usb.c ****       else
 894:Drivers/STM32F4xx_HAL_Driver/Src/stm32f4xx_ll_usb.c ****       {
 895:Drivers/STM32F4xx_HAL_Driver/Src/stm32f4xx_ll_usb.c ****         pktcnt = (uint16_t)((ep->xfer_len + ep->maxpacket - 1U) / ep->maxpacket);
 896:Drivers/STM32F4xx_HAL_Driver/Src/stm32f4xx_ll_usb.c ****         ep->xfer_size = ep->maxpacket * pktcnt;
 897:Drivers/STM32F4xx_HAL_Driver/Src/stm32f4xx_ll_usb.c **** 
 898:Drivers/STM32F4xx_HAL_Driver/Src/stm32f4xx_ll_usb.c ****         USBx_OUTEP(epnum)->DOEPTSIZ |= USB_OTG_DOEPTSIZ_PKTCNT & ((uint32_t)pktcnt << 19);
 899:Drivers/STM32F4xx_HAL_Driver/Src/stm32f4xx_ll_usb.c ****         USBx_OUTEP(epnum)->DOEPTSIZ |= USB_OTG_DOEPTSIZ_XFRSIZ & ep->xfer_size;
 900:Drivers/STM32F4xx_HAL_Driver/Src/stm32f4xx_ll_usb.c ****       }
 901:Drivers/STM32F4xx_HAL_Driver/Src/stm32f4xx_ll_usb.c ****     }
 902:Drivers/STM32F4xx_HAL_Driver/Src/stm32f4xx_ll_usb.c **** 
 903:Drivers/STM32F4xx_HAL_Driver/Src/stm32f4xx_ll_usb.c ****     if (dma == 1U)
 904:Drivers/STM32F4xx_HAL_Driver/Src/stm32f4xx_ll_usb.c ****     {
 905:Drivers/STM32F4xx_HAL_Driver/Src/stm32f4xx_ll_usb.c ****       if ((uint32_t)ep->xfer_buff != 0U)
 906:Drivers/STM32F4xx_HAL_Driver/Src/stm32f4xx_ll_usb.c ****       {
 907:Drivers/STM32F4xx_HAL_Driver/Src/stm32f4xx_ll_usb.c ****         USBx_OUTEP(epnum)->DOEPDMA = (uint32_t)(ep->xfer_buff);
 908:Drivers/STM32F4xx_HAL_Driver/Src/stm32f4xx_ll_usb.c ****       }
 909:Drivers/STM32F4xx_HAL_Driver/Src/stm32f4xx_ll_usb.c ****     }
 910:Drivers/STM32F4xx_HAL_Driver/Src/stm32f4xx_ll_usb.c **** 
 911:Drivers/STM32F4xx_HAL_Driver/Src/stm32f4xx_ll_usb.c ****     if (ep->type == EP_TYPE_ISOC)
 912:Drivers/STM32F4xx_HAL_Driver/Src/stm32f4xx_ll_usb.c ****     {
 913:Drivers/STM32F4xx_HAL_Driver/Src/stm32f4xx_ll_usb.c ****       if ((USBx_DEVICE->DSTS & (1U << 8)) == 0U)
 914:Drivers/STM32F4xx_HAL_Driver/Src/stm32f4xx_ll_usb.c ****       {
 915:Drivers/STM32F4xx_HAL_Driver/Src/stm32f4xx_ll_usb.c ****         USBx_OUTEP(epnum)->DOEPCTL |= USB_OTG_DOEPCTL_SODDFRM;
 916:Drivers/STM32F4xx_HAL_Driver/Src/stm32f4xx_ll_usb.c ****       }
 917:Drivers/STM32F4xx_HAL_Driver/Src/stm32f4xx_ll_usb.c ****       else
 918:Drivers/STM32F4xx_HAL_Driver/Src/stm32f4xx_ll_usb.c ****       {
 919:Drivers/STM32F4xx_HAL_Driver/Src/stm32f4xx_ll_usb.c ****         USBx_OUTEP(epnum)->DOEPCTL |= USB_OTG_DOEPCTL_SD0PID_SEVNFRM;
 920:Drivers/STM32F4xx_HAL_Driver/Src/stm32f4xx_ll_usb.c ****       }
 921:Drivers/STM32F4xx_HAL_Driver/Src/stm32f4xx_ll_usb.c ****     }
 922:Drivers/STM32F4xx_HAL_Driver/Src/stm32f4xx_ll_usb.c ****     /* EP enable */
 923:Drivers/STM32F4xx_HAL_Driver/Src/stm32f4xx_ll_usb.c ****     USBx_OUTEP(epnum)->DOEPCTL |= (USB_OTG_DOEPCTL_CNAK | USB_OTG_DOEPCTL_EPENA);
 924:Drivers/STM32F4xx_HAL_Driver/Src/stm32f4xx_ll_usb.c ****   }
 925:Drivers/STM32F4xx_HAL_Driver/Src/stm32f4xx_ll_usb.c **** 
 926:Drivers/STM32F4xx_HAL_Driver/Src/stm32f4xx_ll_usb.c ****   return HAL_OK;
 927:Drivers/STM32F4xx_HAL_Driver/Src/stm32f4xx_ll_usb.c **** }
 928:Drivers/STM32F4xx_HAL_Driver/Src/stm32f4xx_ll_usb.c **** 
 929:Drivers/STM32F4xx_HAL_Driver/Src/stm32f4xx_ll_usb.c **** 
 930:Drivers/STM32F4xx_HAL_Driver/Src/stm32f4xx_ll_usb.c **** /**
 931:Drivers/STM32F4xx_HAL_Driver/Src/stm32f4xx_ll_usb.c ****    * @brief  USB_EPStoptXfer  Stop transfer on an EP
 932:Drivers/STM32F4xx_HAL_Driver/Src/stm32f4xx_ll_usb.c ****    * @param  USBx  usb device instance
 933:Drivers/STM32F4xx_HAL_Driver/Src/stm32f4xx_ll_usb.c ****    * @param  ep pointer to endpoint structure
 934:Drivers/STM32F4xx_HAL_Driver/Src/stm32f4xx_ll_usb.c ****    * @retval HAL status
 935:Drivers/STM32F4xx_HAL_Driver/Src/stm32f4xx_ll_usb.c ****    */
 936:Drivers/STM32F4xx_HAL_Driver/Src/stm32f4xx_ll_usb.c **** HAL_StatusTypeDef USB_EPStopXfer(const USB_OTG_GlobalTypeDef *USBx, USB_OTG_EPTypeDef *ep)
 937:Drivers/STM32F4xx_HAL_Driver/Src/stm32f4xx_ll_usb.c **** {
 938:Drivers/STM32F4xx_HAL_Driver/Src/stm32f4xx_ll_usb.c ****   __IO uint32_t count = 0U;
 939:Drivers/STM32F4xx_HAL_Driver/Src/stm32f4xx_ll_usb.c ****   HAL_StatusTypeDef ret = HAL_OK;
 940:Drivers/STM32F4xx_HAL_Driver/Src/stm32f4xx_ll_usb.c ****   uint32_t USBx_BASE = (uint32_t)USBx;
 941:Drivers/STM32F4xx_HAL_Driver/Src/stm32f4xx_ll_usb.c **** 
 942:Drivers/STM32F4xx_HAL_Driver/Src/stm32f4xx_ll_usb.c ****   /* IN endpoint */
ARM GAS  C:\Users\ashto\AppData\Local\Temp\ccdF3pho.s 			page 18


 943:Drivers/STM32F4xx_HAL_Driver/Src/stm32f4xx_ll_usb.c ****   if (ep->is_in == 1U)
 944:Drivers/STM32F4xx_HAL_Driver/Src/stm32f4xx_ll_usb.c ****   {
 945:Drivers/STM32F4xx_HAL_Driver/Src/stm32f4xx_ll_usb.c ****     /* EP enable, IN data in FIFO */
 946:Drivers/STM32F4xx_HAL_Driver/Src/stm32f4xx_ll_usb.c ****     if (((USBx_INEP(ep->num)->DIEPCTL) & USB_OTG_DIEPCTL_EPENA) == USB_OTG_DIEPCTL_EPENA)
 947:Drivers/STM32F4xx_HAL_Driver/Src/stm32f4xx_ll_usb.c ****     {
 948:Drivers/STM32F4xx_HAL_Driver/Src/stm32f4xx_ll_usb.c ****       USBx_INEP(ep->num)->DIEPCTL |= (USB_OTG_DIEPCTL_SNAK);
 949:Drivers/STM32F4xx_HAL_Driver/Src/stm32f4xx_ll_usb.c ****       USBx_INEP(ep->num)->DIEPCTL |= (USB_OTG_DIEPCTL_EPDIS);
 950:Drivers/STM32F4xx_HAL_Driver/Src/stm32f4xx_ll_usb.c **** 
 951:Drivers/STM32F4xx_HAL_Driver/Src/stm32f4xx_ll_usb.c ****       do
 952:Drivers/STM32F4xx_HAL_Driver/Src/stm32f4xx_ll_usb.c ****       {
 953:Drivers/STM32F4xx_HAL_Driver/Src/stm32f4xx_ll_usb.c ****         count++;
 954:Drivers/STM32F4xx_HAL_Driver/Src/stm32f4xx_ll_usb.c **** 
 955:Drivers/STM32F4xx_HAL_Driver/Src/stm32f4xx_ll_usb.c ****         if (count > 10000U)
 956:Drivers/STM32F4xx_HAL_Driver/Src/stm32f4xx_ll_usb.c ****         {
 957:Drivers/STM32F4xx_HAL_Driver/Src/stm32f4xx_ll_usb.c ****           ret = HAL_ERROR;
 958:Drivers/STM32F4xx_HAL_Driver/Src/stm32f4xx_ll_usb.c ****           break;
 959:Drivers/STM32F4xx_HAL_Driver/Src/stm32f4xx_ll_usb.c ****         }
 960:Drivers/STM32F4xx_HAL_Driver/Src/stm32f4xx_ll_usb.c ****       } while (((USBx_INEP(ep->num)->DIEPCTL) & USB_OTG_DIEPCTL_EPENA) ==  USB_OTG_DIEPCTL_EPENA);
 961:Drivers/STM32F4xx_HAL_Driver/Src/stm32f4xx_ll_usb.c ****     }
 962:Drivers/STM32F4xx_HAL_Driver/Src/stm32f4xx_ll_usb.c ****   }
 963:Drivers/STM32F4xx_HAL_Driver/Src/stm32f4xx_ll_usb.c ****   else /* OUT endpoint */
 964:Drivers/STM32F4xx_HAL_Driver/Src/stm32f4xx_ll_usb.c ****   {
 965:Drivers/STM32F4xx_HAL_Driver/Src/stm32f4xx_ll_usb.c ****     if (((USBx_OUTEP(ep->num)->DOEPCTL) & USB_OTG_DOEPCTL_EPENA) == USB_OTG_DOEPCTL_EPENA)
 966:Drivers/STM32F4xx_HAL_Driver/Src/stm32f4xx_ll_usb.c ****     {
 967:Drivers/STM32F4xx_HAL_Driver/Src/stm32f4xx_ll_usb.c ****       USBx_OUTEP(ep->num)->DOEPCTL |= (USB_OTG_DOEPCTL_SNAK);
 968:Drivers/STM32F4xx_HAL_Driver/Src/stm32f4xx_ll_usb.c ****       USBx_OUTEP(ep->num)->DOEPCTL |= (USB_OTG_DOEPCTL_EPDIS);
 969:Drivers/STM32F4xx_HAL_Driver/Src/stm32f4xx_ll_usb.c **** 
 970:Drivers/STM32F4xx_HAL_Driver/Src/stm32f4xx_ll_usb.c ****       do
 971:Drivers/STM32F4xx_HAL_Driver/Src/stm32f4xx_ll_usb.c ****       {
 972:Drivers/STM32F4xx_HAL_Driver/Src/stm32f4xx_ll_usb.c ****         count++;
 973:Drivers/STM32F4xx_HAL_Driver/Src/stm32f4xx_ll_usb.c **** 
 974:Drivers/STM32F4xx_HAL_Driver/Src/stm32f4xx_ll_usb.c ****         if (count > 10000U)
 975:Drivers/STM32F4xx_HAL_Driver/Src/stm32f4xx_ll_usb.c ****         {
 976:Drivers/STM32F4xx_HAL_Driver/Src/stm32f4xx_ll_usb.c ****           ret = HAL_ERROR;
 977:Drivers/STM32F4xx_HAL_Driver/Src/stm32f4xx_ll_usb.c ****           break;
 978:Drivers/STM32F4xx_HAL_Driver/Src/stm32f4xx_ll_usb.c ****         }
 979:Drivers/STM32F4xx_HAL_Driver/Src/stm32f4xx_ll_usb.c ****       } while (((USBx_OUTEP(ep->num)->DOEPCTL) & USB_OTG_DOEPCTL_EPENA) ==  USB_OTG_DOEPCTL_EPENA);
 980:Drivers/STM32F4xx_HAL_Driver/Src/stm32f4xx_ll_usb.c ****     }
 981:Drivers/STM32F4xx_HAL_Driver/Src/stm32f4xx_ll_usb.c ****   }
 982:Drivers/STM32F4xx_HAL_Driver/Src/stm32f4xx_ll_usb.c **** 
 983:Drivers/STM32F4xx_HAL_Driver/Src/stm32f4xx_ll_usb.c ****   return ret;
 984:Drivers/STM32F4xx_HAL_Driver/Src/stm32f4xx_ll_usb.c **** }
 985:Drivers/STM32F4xx_HAL_Driver/Src/stm32f4xx_ll_usb.c **** 
 986:Drivers/STM32F4xx_HAL_Driver/Src/stm32f4xx_ll_usb.c **** 
 987:Drivers/STM32F4xx_HAL_Driver/Src/stm32f4xx_ll_usb.c **** /**
 988:Drivers/STM32F4xx_HAL_Driver/Src/stm32f4xx_ll_usb.c ****   * @brief  USB_WritePacket : Writes a packet into the Tx FIFO associated
 989:Drivers/STM32F4xx_HAL_Driver/Src/stm32f4xx_ll_usb.c ****   *         with the EP/channel
 990:Drivers/STM32F4xx_HAL_Driver/Src/stm32f4xx_ll_usb.c ****   * @param  USBx  Selected device
 991:Drivers/STM32F4xx_HAL_Driver/Src/stm32f4xx_ll_usb.c ****   * @param  src   pointer to source buffer
 992:Drivers/STM32F4xx_HAL_Driver/Src/stm32f4xx_ll_usb.c ****   * @param  ch_ep_num  endpoint or host channel number
 993:Drivers/STM32F4xx_HAL_Driver/Src/stm32f4xx_ll_usb.c ****   * @param  len  Number of bytes to write
 994:Drivers/STM32F4xx_HAL_Driver/Src/stm32f4xx_ll_usb.c ****   * @param  dma USB dma enabled or disabled
 995:Drivers/STM32F4xx_HAL_Driver/Src/stm32f4xx_ll_usb.c ****   *          This parameter can be one of these values:
 996:Drivers/STM32F4xx_HAL_Driver/Src/stm32f4xx_ll_usb.c ****   *           0 : DMA feature not used
 997:Drivers/STM32F4xx_HAL_Driver/Src/stm32f4xx_ll_usb.c ****   *           1 : DMA feature used
 998:Drivers/STM32F4xx_HAL_Driver/Src/stm32f4xx_ll_usb.c ****   * @retval HAL status
 999:Drivers/STM32F4xx_HAL_Driver/Src/stm32f4xx_ll_usb.c ****   */
ARM GAS  C:\Users\ashto\AppData\Local\Temp\ccdF3pho.s 			page 19


1000:Drivers/STM32F4xx_HAL_Driver/Src/stm32f4xx_ll_usb.c **** HAL_StatusTypeDef USB_WritePacket(const USB_OTG_GlobalTypeDef *USBx, uint8_t *src,
1001:Drivers/STM32F4xx_HAL_Driver/Src/stm32f4xx_ll_usb.c ****                                   uint8_t ch_ep_num, uint16_t len, uint8_t dma)
1002:Drivers/STM32F4xx_HAL_Driver/Src/stm32f4xx_ll_usb.c **** {
1003:Drivers/STM32F4xx_HAL_Driver/Src/stm32f4xx_ll_usb.c ****   uint32_t USBx_BASE = (uint32_t)USBx;
1004:Drivers/STM32F4xx_HAL_Driver/Src/stm32f4xx_ll_usb.c ****   uint8_t *pSrc = src;
1005:Drivers/STM32F4xx_HAL_Driver/Src/stm32f4xx_ll_usb.c ****   uint32_t count32b;
1006:Drivers/STM32F4xx_HAL_Driver/Src/stm32f4xx_ll_usb.c ****   uint32_t i;
1007:Drivers/STM32F4xx_HAL_Driver/Src/stm32f4xx_ll_usb.c **** 
1008:Drivers/STM32F4xx_HAL_Driver/Src/stm32f4xx_ll_usb.c ****   if (dma == 0U)
1009:Drivers/STM32F4xx_HAL_Driver/Src/stm32f4xx_ll_usb.c ****   {
1010:Drivers/STM32F4xx_HAL_Driver/Src/stm32f4xx_ll_usb.c ****     count32b = ((uint32_t)len + 3U) / 4U;
1011:Drivers/STM32F4xx_HAL_Driver/Src/stm32f4xx_ll_usb.c ****     for (i = 0U; i < count32b; i++)
1012:Drivers/STM32F4xx_HAL_Driver/Src/stm32f4xx_ll_usb.c ****     {
1013:Drivers/STM32F4xx_HAL_Driver/Src/stm32f4xx_ll_usb.c ****       USBx_DFIFO((uint32_t)ch_ep_num) = __UNALIGNED_UINT32_READ(pSrc);
1014:Drivers/STM32F4xx_HAL_Driver/Src/stm32f4xx_ll_usb.c ****       pSrc++;
1015:Drivers/STM32F4xx_HAL_Driver/Src/stm32f4xx_ll_usb.c ****       pSrc++;
1016:Drivers/STM32F4xx_HAL_Driver/Src/stm32f4xx_ll_usb.c ****       pSrc++;
1017:Drivers/STM32F4xx_HAL_Driver/Src/stm32f4xx_ll_usb.c ****       pSrc++;
1018:Drivers/STM32F4xx_HAL_Driver/Src/stm32f4xx_ll_usb.c ****     }
1019:Drivers/STM32F4xx_HAL_Driver/Src/stm32f4xx_ll_usb.c ****   }
1020:Drivers/STM32F4xx_HAL_Driver/Src/stm32f4xx_ll_usb.c **** 
1021:Drivers/STM32F4xx_HAL_Driver/Src/stm32f4xx_ll_usb.c ****   return HAL_OK;
1022:Drivers/STM32F4xx_HAL_Driver/Src/stm32f4xx_ll_usb.c **** }
1023:Drivers/STM32F4xx_HAL_Driver/Src/stm32f4xx_ll_usb.c **** 
1024:Drivers/STM32F4xx_HAL_Driver/Src/stm32f4xx_ll_usb.c **** /**
1025:Drivers/STM32F4xx_HAL_Driver/Src/stm32f4xx_ll_usb.c ****   * @brief  USB_ReadPacket : read a packet from the RX FIFO
1026:Drivers/STM32F4xx_HAL_Driver/Src/stm32f4xx_ll_usb.c ****   * @param  USBx  Selected device
1027:Drivers/STM32F4xx_HAL_Driver/Src/stm32f4xx_ll_usb.c ****   * @param  dest  source pointer
1028:Drivers/STM32F4xx_HAL_Driver/Src/stm32f4xx_ll_usb.c ****   * @param  len  Number of bytes to read
1029:Drivers/STM32F4xx_HAL_Driver/Src/stm32f4xx_ll_usb.c ****   * @retval pointer to destination buffer
1030:Drivers/STM32F4xx_HAL_Driver/Src/stm32f4xx_ll_usb.c ****   */
1031:Drivers/STM32F4xx_HAL_Driver/Src/stm32f4xx_ll_usb.c **** void *USB_ReadPacket(const USB_OTG_GlobalTypeDef *USBx, uint8_t *dest, uint16_t len)
1032:Drivers/STM32F4xx_HAL_Driver/Src/stm32f4xx_ll_usb.c **** {
1033:Drivers/STM32F4xx_HAL_Driver/Src/stm32f4xx_ll_usb.c ****   uint32_t USBx_BASE = (uint32_t)USBx;
1034:Drivers/STM32F4xx_HAL_Driver/Src/stm32f4xx_ll_usb.c ****   uint8_t *pDest = dest;
1035:Drivers/STM32F4xx_HAL_Driver/Src/stm32f4xx_ll_usb.c ****   uint32_t pData;
1036:Drivers/STM32F4xx_HAL_Driver/Src/stm32f4xx_ll_usb.c ****   uint32_t i;
1037:Drivers/STM32F4xx_HAL_Driver/Src/stm32f4xx_ll_usb.c ****   uint32_t count32b = (uint32_t)len >> 2U;
1038:Drivers/STM32F4xx_HAL_Driver/Src/stm32f4xx_ll_usb.c ****   uint16_t remaining_bytes = len % 4U;
1039:Drivers/STM32F4xx_HAL_Driver/Src/stm32f4xx_ll_usb.c **** 
1040:Drivers/STM32F4xx_HAL_Driver/Src/stm32f4xx_ll_usb.c ****   for (i = 0U; i < count32b; i++)
1041:Drivers/STM32F4xx_HAL_Driver/Src/stm32f4xx_ll_usb.c ****   {
1042:Drivers/STM32F4xx_HAL_Driver/Src/stm32f4xx_ll_usb.c ****     __UNALIGNED_UINT32_WRITE(pDest, USBx_DFIFO(0U));
1043:Drivers/STM32F4xx_HAL_Driver/Src/stm32f4xx_ll_usb.c ****     pDest++;
1044:Drivers/STM32F4xx_HAL_Driver/Src/stm32f4xx_ll_usb.c ****     pDest++;
1045:Drivers/STM32F4xx_HAL_Driver/Src/stm32f4xx_ll_usb.c ****     pDest++;
1046:Drivers/STM32F4xx_HAL_Driver/Src/stm32f4xx_ll_usb.c ****     pDest++;
1047:Drivers/STM32F4xx_HAL_Driver/Src/stm32f4xx_ll_usb.c ****   }
1048:Drivers/STM32F4xx_HAL_Driver/Src/stm32f4xx_ll_usb.c **** 
1049:Drivers/STM32F4xx_HAL_Driver/Src/stm32f4xx_ll_usb.c ****   /* When Number of data is not word aligned, read the remaining byte */
1050:Drivers/STM32F4xx_HAL_Driver/Src/stm32f4xx_ll_usb.c ****   if (remaining_bytes != 0U)
1051:Drivers/STM32F4xx_HAL_Driver/Src/stm32f4xx_ll_usb.c ****   {
1052:Drivers/STM32F4xx_HAL_Driver/Src/stm32f4xx_ll_usb.c ****     i = 0U;
1053:Drivers/STM32F4xx_HAL_Driver/Src/stm32f4xx_ll_usb.c ****     __UNALIGNED_UINT32_WRITE(&pData, USBx_DFIFO(0U));
1054:Drivers/STM32F4xx_HAL_Driver/Src/stm32f4xx_ll_usb.c **** 
1055:Drivers/STM32F4xx_HAL_Driver/Src/stm32f4xx_ll_usb.c ****     do
1056:Drivers/STM32F4xx_HAL_Driver/Src/stm32f4xx_ll_usb.c ****     {
ARM GAS  C:\Users\ashto\AppData\Local\Temp\ccdF3pho.s 			page 20


1057:Drivers/STM32F4xx_HAL_Driver/Src/stm32f4xx_ll_usb.c ****       *(uint8_t *)pDest = (uint8_t)(pData >> (8U * (uint8_t)(i)));
1058:Drivers/STM32F4xx_HAL_Driver/Src/stm32f4xx_ll_usb.c ****       i++;
1059:Drivers/STM32F4xx_HAL_Driver/Src/stm32f4xx_ll_usb.c ****       pDest++;
1060:Drivers/STM32F4xx_HAL_Driver/Src/stm32f4xx_ll_usb.c ****       remaining_bytes--;
1061:Drivers/STM32F4xx_HAL_Driver/Src/stm32f4xx_ll_usb.c ****     } while (remaining_bytes != 0U);
1062:Drivers/STM32F4xx_HAL_Driver/Src/stm32f4xx_ll_usb.c ****   }
1063:Drivers/STM32F4xx_HAL_Driver/Src/stm32f4xx_ll_usb.c **** 
1064:Drivers/STM32F4xx_HAL_Driver/Src/stm32f4xx_ll_usb.c ****   return ((void *)pDest);
1065:Drivers/STM32F4xx_HAL_Driver/Src/stm32f4xx_ll_usb.c **** }
1066:Drivers/STM32F4xx_HAL_Driver/Src/stm32f4xx_ll_usb.c **** 
1067:Drivers/STM32F4xx_HAL_Driver/Src/stm32f4xx_ll_usb.c **** /**
1068:Drivers/STM32F4xx_HAL_Driver/Src/stm32f4xx_ll_usb.c ****   * @brief  USB_EPSetStall : set a stall condition over an EP
1069:Drivers/STM32F4xx_HAL_Driver/Src/stm32f4xx_ll_usb.c ****   * @param  USBx  Selected device
1070:Drivers/STM32F4xx_HAL_Driver/Src/stm32f4xx_ll_usb.c ****   * @param  ep pointer to endpoint structure
1071:Drivers/STM32F4xx_HAL_Driver/Src/stm32f4xx_ll_usb.c ****   * @retval HAL status
1072:Drivers/STM32F4xx_HAL_Driver/Src/stm32f4xx_ll_usb.c ****   */
1073:Drivers/STM32F4xx_HAL_Driver/Src/stm32f4xx_ll_usb.c **** HAL_StatusTypeDef USB_EPSetStall(const USB_OTG_GlobalTypeDef *USBx, const USB_OTG_EPTypeDef *ep)
1074:Drivers/STM32F4xx_HAL_Driver/Src/stm32f4xx_ll_usb.c **** {
1075:Drivers/STM32F4xx_HAL_Driver/Src/stm32f4xx_ll_usb.c ****   uint32_t USBx_BASE = (uint32_t)USBx;
1076:Drivers/STM32F4xx_HAL_Driver/Src/stm32f4xx_ll_usb.c ****   uint32_t epnum = (uint32_t)ep->num;
1077:Drivers/STM32F4xx_HAL_Driver/Src/stm32f4xx_ll_usb.c **** 
1078:Drivers/STM32F4xx_HAL_Driver/Src/stm32f4xx_ll_usb.c ****   if (ep->is_in == 1U)
1079:Drivers/STM32F4xx_HAL_Driver/Src/stm32f4xx_ll_usb.c ****   {
1080:Drivers/STM32F4xx_HAL_Driver/Src/stm32f4xx_ll_usb.c ****     if (((USBx_INEP(epnum)->DIEPCTL & USB_OTG_DIEPCTL_EPENA) == 0U) && (epnum != 0U))
1081:Drivers/STM32F4xx_HAL_Driver/Src/stm32f4xx_ll_usb.c ****     {
1082:Drivers/STM32F4xx_HAL_Driver/Src/stm32f4xx_ll_usb.c ****       USBx_INEP(epnum)->DIEPCTL &= ~(USB_OTG_DIEPCTL_EPDIS);
1083:Drivers/STM32F4xx_HAL_Driver/Src/stm32f4xx_ll_usb.c ****     }
1084:Drivers/STM32F4xx_HAL_Driver/Src/stm32f4xx_ll_usb.c ****     USBx_INEP(epnum)->DIEPCTL |= USB_OTG_DIEPCTL_STALL;
1085:Drivers/STM32F4xx_HAL_Driver/Src/stm32f4xx_ll_usb.c ****   }
1086:Drivers/STM32F4xx_HAL_Driver/Src/stm32f4xx_ll_usb.c ****   else
1087:Drivers/STM32F4xx_HAL_Driver/Src/stm32f4xx_ll_usb.c ****   {
1088:Drivers/STM32F4xx_HAL_Driver/Src/stm32f4xx_ll_usb.c ****     if (((USBx_OUTEP(epnum)->DOEPCTL & USB_OTG_DOEPCTL_EPENA) == 0U) && (epnum != 0U))
1089:Drivers/STM32F4xx_HAL_Driver/Src/stm32f4xx_ll_usb.c ****     {
1090:Drivers/STM32F4xx_HAL_Driver/Src/stm32f4xx_ll_usb.c ****       USBx_OUTEP(epnum)->DOEPCTL &= ~(USB_OTG_DOEPCTL_EPDIS);
1091:Drivers/STM32F4xx_HAL_Driver/Src/stm32f4xx_ll_usb.c ****     }
1092:Drivers/STM32F4xx_HAL_Driver/Src/stm32f4xx_ll_usb.c ****     USBx_OUTEP(epnum)->DOEPCTL |= USB_OTG_DOEPCTL_STALL;
1093:Drivers/STM32F4xx_HAL_Driver/Src/stm32f4xx_ll_usb.c ****   }
1094:Drivers/STM32F4xx_HAL_Driver/Src/stm32f4xx_ll_usb.c **** 
1095:Drivers/STM32F4xx_HAL_Driver/Src/stm32f4xx_ll_usb.c ****   return HAL_OK;
1096:Drivers/STM32F4xx_HAL_Driver/Src/stm32f4xx_ll_usb.c **** }
1097:Drivers/STM32F4xx_HAL_Driver/Src/stm32f4xx_ll_usb.c **** 
1098:Drivers/STM32F4xx_HAL_Driver/Src/stm32f4xx_ll_usb.c **** /**
1099:Drivers/STM32F4xx_HAL_Driver/Src/stm32f4xx_ll_usb.c ****   * @brief  USB_EPClearStall : Clear a stall condition over an EP
1100:Drivers/STM32F4xx_HAL_Driver/Src/stm32f4xx_ll_usb.c ****   * @param  USBx  Selected device
1101:Drivers/STM32F4xx_HAL_Driver/Src/stm32f4xx_ll_usb.c ****   * @param  ep pointer to endpoint structure
1102:Drivers/STM32F4xx_HAL_Driver/Src/stm32f4xx_ll_usb.c ****   * @retval HAL status
1103:Drivers/STM32F4xx_HAL_Driver/Src/stm32f4xx_ll_usb.c ****   */
1104:Drivers/STM32F4xx_HAL_Driver/Src/stm32f4xx_ll_usb.c **** HAL_StatusTypeDef USB_EPClearStall(const USB_OTG_GlobalTypeDef *USBx, const USB_OTG_EPTypeDef *ep)
1105:Drivers/STM32F4xx_HAL_Driver/Src/stm32f4xx_ll_usb.c **** {
1106:Drivers/STM32F4xx_HAL_Driver/Src/stm32f4xx_ll_usb.c ****   uint32_t USBx_BASE = (uint32_t)USBx;
1107:Drivers/STM32F4xx_HAL_Driver/Src/stm32f4xx_ll_usb.c ****   uint32_t epnum = (uint32_t)ep->num;
1108:Drivers/STM32F4xx_HAL_Driver/Src/stm32f4xx_ll_usb.c **** 
1109:Drivers/STM32F4xx_HAL_Driver/Src/stm32f4xx_ll_usb.c ****   if (ep->is_in == 1U)
1110:Drivers/STM32F4xx_HAL_Driver/Src/stm32f4xx_ll_usb.c ****   {
1111:Drivers/STM32F4xx_HAL_Driver/Src/stm32f4xx_ll_usb.c ****     USBx_INEP(epnum)->DIEPCTL &= ~USB_OTG_DIEPCTL_STALL;
1112:Drivers/STM32F4xx_HAL_Driver/Src/stm32f4xx_ll_usb.c ****     if ((ep->type == EP_TYPE_INTR) || (ep->type == EP_TYPE_BULK))
1113:Drivers/STM32F4xx_HAL_Driver/Src/stm32f4xx_ll_usb.c ****     {
ARM GAS  C:\Users\ashto\AppData\Local\Temp\ccdF3pho.s 			page 21


1114:Drivers/STM32F4xx_HAL_Driver/Src/stm32f4xx_ll_usb.c ****       USBx_INEP(epnum)->DIEPCTL |= USB_OTG_DIEPCTL_SD0PID_SEVNFRM; /* DATA0 */
1115:Drivers/STM32F4xx_HAL_Driver/Src/stm32f4xx_ll_usb.c ****     }
1116:Drivers/STM32F4xx_HAL_Driver/Src/stm32f4xx_ll_usb.c ****   }
1117:Drivers/STM32F4xx_HAL_Driver/Src/stm32f4xx_ll_usb.c ****   else
1118:Drivers/STM32F4xx_HAL_Driver/Src/stm32f4xx_ll_usb.c ****   {
1119:Drivers/STM32F4xx_HAL_Driver/Src/stm32f4xx_ll_usb.c ****     USBx_OUTEP(epnum)->DOEPCTL &= ~USB_OTG_DOEPCTL_STALL;
1120:Drivers/STM32F4xx_HAL_Driver/Src/stm32f4xx_ll_usb.c ****     if ((ep->type == EP_TYPE_INTR) || (ep->type == EP_TYPE_BULK))
1121:Drivers/STM32F4xx_HAL_Driver/Src/stm32f4xx_ll_usb.c ****     {
1122:Drivers/STM32F4xx_HAL_Driver/Src/stm32f4xx_ll_usb.c ****       USBx_OUTEP(epnum)->DOEPCTL |= USB_OTG_DOEPCTL_SD0PID_SEVNFRM; /* DATA0 */
1123:Drivers/STM32F4xx_HAL_Driver/Src/stm32f4xx_ll_usb.c ****     }
1124:Drivers/STM32F4xx_HAL_Driver/Src/stm32f4xx_ll_usb.c ****   }
1125:Drivers/STM32F4xx_HAL_Driver/Src/stm32f4xx_ll_usb.c ****   return HAL_OK;
1126:Drivers/STM32F4xx_HAL_Driver/Src/stm32f4xx_ll_usb.c **** }
1127:Drivers/STM32F4xx_HAL_Driver/Src/stm32f4xx_ll_usb.c **** 
1128:Drivers/STM32F4xx_HAL_Driver/Src/stm32f4xx_ll_usb.c **** /**
1129:Drivers/STM32F4xx_HAL_Driver/Src/stm32f4xx_ll_usb.c ****   * @brief  USB_StopDevice : Stop the usb device mode
1130:Drivers/STM32F4xx_HAL_Driver/Src/stm32f4xx_ll_usb.c ****   * @param  USBx  Selected device
1131:Drivers/STM32F4xx_HAL_Driver/Src/stm32f4xx_ll_usb.c ****   * @retval HAL status
1132:Drivers/STM32F4xx_HAL_Driver/Src/stm32f4xx_ll_usb.c ****   */
1133:Drivers/STM32F4xx_HAL_Driver/Src/stm32f4xx_ll_usb.c **** HAL_StatusTypeDef USB_StopDevice(USB_OTG_GlobalTypeDef *USBx)
1134:Drivers/STM32F4xx_HAL_Driver/Src/stm32f4xx_ll_usb.c **** {
1135:Drivers/STM32F4xx_HAL_Driver/Src/stm32f4xx_ll_usb.c ****   HAL_StatusTypeDef ret;
1136:Drivers/STM32F4xx_HAL_Driver/Src/stm32f4xx_ll_usb.c ****   uint32_t USBx_BASE = (uint32_t)USBx;
1137:Drivers/STM32F4xx_HAL_Driver/Src/stm32f4xx_ll_usb.c ****   uint32_t i;
1138:Drivers/STM32F4xx_HAL_Driver/Src/stm32f4xx_ll_usb.c **** 
1139:Drivers/STM32F4xx_HAL_Driver/Src/stm32f4xx_ll_usb.c ****   /* Clear Pending interrupt */
1140:Drivers/STM32F4xx_HAL_Driver/Src/stm32f4xx_ll_usb.c ****   for (i = 0U; i < 15U; i++)
1141:Drivers/STM32F4xx_HAL_Driver/Src/stm32f4xx_ll_usb.c ****   {
1142:Drivers/STM32F4xx_HAL_Driver/Src/stm32f4xx_ll_usb.c ****     USBx_INEP(i)->DIEPINT = 0xFB7FU;
1143:Drivers/STM32F4xx_HAL_Driver/Src/stm32f4xx_ll_usb.c ****     USBx_OUTEP(i)->DOEPINT = 0xFB7FU;
1144:Drivers/STM32F4xx_HAL_Driver/Src/stm32f4xx_ll_usb.c ****   }
1145:Drivers/STM32F4xx_HAL_Driver/Src/stm32f4xx_ll_usb.c **** 
1146:Drivers/STM32F4xx_HAL_Driver/Src/stm32f4xx_ll_usb.c ****   /* Clear interrupt masks */
1147:Drivers/STM32F4xx_HAL_Driver/Src/stm32f4xx_ll_usb.c ****   USBx_DEVICE->DIEPMSK  = 0U;
1148:Drivers/STM32F4xx_HAL_Driver/Src/stm32f4xx_ll_usb.c ****   USBx_DEVICE->DOEPMSK  = 0U;
1149:Drivers/STM32F4xx_HAL_Driver/Src/stm32f4xx_ll_usb.c ****   USBx_DEVICE->DAINTMSK = 0U;
1150:Drivers/STM32F4xx_HAL_Driver/Src/stm32f4xx_ll_usb.c **** 
1151:Drivers/STM32F4xx_HAL_Driver/Src/stm32f4xx_ll_usb.c ****   /* Flush the FIFO */
1152:Drivers/STM32F4xx_HAL_Driver/Src/stm32f4xx_ll_usb.c ****   ret = USB_FlushRxFifo(USBx);
1153:Drivers/STM32F4xx_HAL_Driver/Src/stm32f4xx_ll_usb.c ****   if (ret != HAL_OK)
1154:Drivers/STM32F4xx_HAL_Driver/Src/stm32f4xx_ll_usb.c ****   {
1155:Drivers/STM32F4xx_HAL_Driver/Src/stm32f4xx_ll_usb.c ****     return ret;
1156:Drivers/STM32F4xx_HAL_Driver/Src/stm32f4xx_ll_usb.c ****   }
1157:Drivers/STM32F4xx_HAL_Driver/Src/stm32f4xx_ll_usb.c **** 
1158:Drivers/STM32F4xx_HAL_Driver/Src/stm32f4xx_ll_usb.c ****   ret = USB_FlushTxFifo(USBx,  0x10U);
1159:Drivers/STM32F4xx_HAL_Driver/Src/stm32f4xx_ll_usb.c ****   if (ret != HAL_OK)
1160:Drivers/STM32F4xx_HAL_Driver/Src/stm32f4xx_ll_usb.c ****   {
1161:Drivers/STM32F4xx_HAL_Driver/Src/stm32f4xx_ll_usb.c ****     return ret;
1162:Drivers/STM32F4xx_HAL_Driver/Src/stm32f4xx_ll_usb.c ****   }
1163:Drivers/STM32F4xx_HAL_Driver/Src/stm32f4xx_ll_usb.c **** 
1164:Drivers/STM32F4xx_HAL_Driver/Src/stm32f4xx_ll_usb.c ****   return ret;
1165:Drivers/STM32F4xx_HAL_Driver/Src/stm32f4xx_ll_usb.c **** }
1166:Drivers/STM32F4xx_HAL_Driver/Src/stm32f4xx_ll_usb.c **** 
1167:Drivers/STM32F4xx_HAL_Driver/Src/stm32f4xx_ll_usb.c **** /**
1168:Drivers/STM32F4xx_HAL_Driver/Src/stm32f4xx_ll_usb.c ****   * @brief  USB_SetDevAddress : Stop the usb device mode
1169:Drivers/STM32F4xx_HAL_Driver/Src/stm32f4xx_ll_usb.c ****   * @param  USBx  Selected device
1170:Drivers/STM32F4xx_HAL_Driver/Src/stm32f4xx_ll_usb.c ****   * @param  address  new device address to be assigned
ARM GAS  C:\Users\ashto\AppData\Local\Temp\ccdF3pho.s 			page 22


1171:Drivers/STM32F4xx_HAL_Driver/Src/stm32f4xx_ll_usb.c ****   *          This parameter can be a value from 0 to 255
1172:Drivers/STM32F4xx_HAL_Driver/Src/stm32f4xx_ll_usb.c ****   * @retval HAL status
1173:Drivers/STM32F4xx_HAL_Driver/Src/stm32f4xx_ll_usb.c ****   */
1174:Drivers/STM32F4xx_HAL_Driver/Src/stm32f4xx_ll_usb.c **** HAL_StatusTypeDef USB_SetDevAddress(const USB_OTG_GlobalTypeDef *USBx, uint8_t address)
1175:Drivers/STM32F4xx_HAL_Driver/Src/stm32f4xx_ll_usb.c **** {
1176:Drivers/STM32F4xx_HAL_Driver/Src/stm32f4xx_ll_usb.c ****   uint32_t USBx_BASE = (uint32_t)USBx;
1177:Drivers/STM32F4xx_HAL_Driver/Src/stm32f4xx_ll_usb.c **** 
1178:Drivers/STM32F4xx_HAL_Driver/Src/stm32f4xx_ll_usb.c ****   USBx_DEVICE->DCFG &= ~(USB_OTG_DCFG_DAD);
1179:Drivers/STM32F4xx_HAL_Driver/Src/stm32f4xx_ll_usb.c ****   USBx_DEVICE->DCFG |= ((uint32_t)address << 4) & USB_OTG_DCFG_DAD;
1180:Drivers/STM32F4xx_HAL_Driver/Src/stm32f4xx_ll_usb.c **** 
1181:Drivers/STM32F4xx_HAL_Driver/Src/stm32f4xx_ll_usb.c ****   return HAL_OK;
1182:Drivers/STM32F4xx_HAL_Driver/Src/stm32f4xx_ll_usb.c **** }
1183:Drivers/STM32F4xx_HAL_Driver/Src/stm32f4xx_ll_usb.c **** 
1184:Drivers/STM32F4xx_HAL_Driver/Src/stm32f4xx_ll_usb.c **** /**
1185:Drivers/STM32F4xx_HAL_Driver/Src/stm32f4xx_ll_usb.c ****   * @brief  USB_DevConnect : Connect the USB device by enabling Rpu
1186:Drivers/STM32F4xx_HAL_Driver/Src/stm32f4xx_ll_usb.c ****   * @param  USBx  Selected device
1187:Drivers/STM32F4xx_HAL_Driver/Src/stm32f4xx_ll_usb.c ****   * @retval HAL status
1188:Drivers/STM32F4xx_HAL_Driver/Src/stm32f4xx_ll_usb.c ****   */
1189:Drivers/STM32F4xx_HAL_Driver/Src/stm32f4xx_ll_usb.c **** HAL_StatusTypeDef USB_DevConnect(const USB_OTG_GlobalTypeDef *USBx)
1190:Drivers/STM32F4xx_HAL_Driver/Src/stm32f4xx_ll_usb.c **** {
1191:Drivers/STM32F4xx_HAL_Driver/Src/stm32f4xx_ll_usb.c ****   uint32_t USBx_BASE = (uint32_t)USBx;
1192:Drivers/STM32F4xx_HAL_Driver/Src/stm32f4xx_ll_usb.c **** 
1193:Drivers/STM32F4xx_HAL_Driver/Src/stm32f4xx_ll_usb.c ****   /* In case phy is stopped, ensure to ungate and restore the phy CLK */
1194:Drivers/STM32F4xx_HAL_Driver/Src/stm32f4xx_ll_usb.c ****   USBx_PCGCCTL &= ~(USB_OTG_PCGCCTL_STOPCLK | USB_OTG_PCGCCTL_GATECLK);
1195:Drivers/STM32F4xx_HAL_Driver/Src/stm32f4xx_ll_usb.c **** 
1196:Drivers/STM32F4xx_HAL_Driver/Src/stm32f4xx_ll_usb.c ****   USBx_DEVICE->DCTL &= ~USB_OTG_DCTL_SDIS;
1197:Drivers/STM32F4xx_HAL_Driver/Src/stm32f4xx_ll_usb.c **** 
1198:Drivers/STM32F4xx_HAL_Driver/Src/stm32f4xx_ll_usb.c ****   return HAL_OK;
1199:Drivers/STM32F4xx_HAL_Driver/Src/stm32f4xx_ll_usb.c **** }
1200:Drivers/STM32F4xx_HAL_Driver/Src/stm32f4xx_ll_usb.c **** 
1201:Drivers/STM32F4xx_HAL_Driver/Src/stm32f4xx_ll_usb.c **** /**
1202:Drivers/STM32F4xx_HAL_Driver/Src/stm32f4xx_ll_usb.c ****   * @brief  USB_DevDisconnect : Disconnect the USB device by disabling Rpu
1203:Drivers/STM32F4xx_HAL_Driver/Src/stm32f4xx_ll_usb.c ****   * @param  USBx  Selected device
1204:Drivers/STM32F4xx_HAL_Driver/Src/stm32f4xx_ll_usb.c ****   * @retval HAL status
1205:Drivers/STM32F4xx_HAL_Driver/Src/stm32f4xx_ll_usb.c ****   */
1206:Drivers/STM32F4xx_HAL_Driver/Src/stm32f4xx_ll_usb.c **** HAL_StatusTypeDef USB_DevDisconnect(const USB_OTG_GlobalTypeDef *USBx)
1207:Drivers/STM32F4xx_HAL_Driver/Src/stm32f4xx_ll_usb.c **** {
1208:Drivers/STM32F4xx_HAL_Driver/Src/stm32f4xx_ll_usb.c ****   uint32_t USBx_BASE = (uint32_t)USBx;
1209:Drivers/STM32F4xx_HAL_Driver/Src/stm32f4xx_ll_usb.c **** 
1210:Drivers/STM32F4xx_HAL_Driver/Src/stm32f4xx_ll_usb.c ****   /* In case phy is stopped, ensure to ungate and restore the phy CLK */
1211:Drivers/STM32F4xx_HAL_Driver/Src/stm32f4xx_ll_usb.c ****   USBx_PCGCCTL &= ~(USB_OTG_PCGCCTL_STOPCLK | USB_OTG_PCGCCTL_GATECLK);
1212:Drivers/STM32F4xx_HAL_Driver/Src/stm32f4xx_ll_usb.c **** 
1213:Drivers/STM32F4xx_HAL_Driver/Src/stm32f4xx_ll_usb.c ****   USBx_DEVICE->DCTL |= USB_OTG_DCTL_SDIS;
1214:Drivers/STM32F4xx_HAL_Driver/Src/stm32f4xx_ll_usb.c **** 
1215:Drivers/STM32F4xx_HAL_Driver/Src/stm32f4xx_ll_usb.c ****   return HAL_OK;
1216:Drivers/STM32F4xx_HAL_Driver/Src/stm32f4xx_ll_usb.c **** }
1217:Drivers/STM32F4xx_HAL_Driver/Src/stm32f4xx_ll_usb.c **** 
1218:Drivers/STM32F4xx_HAL_Driver/Src/stm32f4xx_ll_usb.c **** /**
1219:Drivers/STM32F4xx_HAL_Driver/Src/stm32f4xx_ll_usb.c ****   * @brief  USB_ReadInterrupts: return the global USB interrupt status
1220:Drivers/STM32F4xx_HAL_Driver/Src/stm32f4xx_ll_usb.c ****   * @param  USBx  Selected device
1221:Drivers/STM32F4xx_HAL_Driver/Src/stm32f4xx_ll_usb.c ****   * @retval USB Global Interrupt status
1222:Drivers/STM32F4xx_HAL_Driver/Src/stm32f4xx_ll_usb.c ****   */
1223:Drivers/STM32F4xx_HAL_Driver/Src/stm32f4xx_ll_usb.c **** uint32_t USB_ReadInterrupts(USB_OTG_GlobalTypeDef const *USBx)
1224:Drivers/STM32F4xx_HAL_Driver/Src/stm32f4xx_ll_usb.c **** {
1225:Drivers/STM32F4xx_HAL_Driver/Src/stm32f4xx_ll_usb.c ****   uint32_t tmpreg;
1226:Drivers/STM32F4xx_HAL_Driver/Src/stm32f4xx_ll_usb.c **** 
1227:Drivers/STM32F4xx_HAL_Driver/Src/stm32f4xx_ll_usb.c ****   tmpreg = USBx->GINTSTS;
ARM GAS  C:\Users\ashto\AppData\Local\Temp\ccdF3pho.s 			page 23


1228:Drivers/STM32F4xx_HAL_Driver/Src/stm32f4xx_ll_usb.c ****   tmpreg &= USBx->GINTMSK;
1229:Drivers/STM32F4xx_HAL_Driver/Src/stm32f4xx_ll_usb.c **** 
1230:Drivers/STM32F4xx_HAL_Driver/Src/stm32f4xx_ll_usb.c ****   return tmpreg;
1231:Drivers/STM32F4xx_HAL_Driver/Src/stm32f4xx_ll_usb.c **** }
1232:Drivers/STM32F4xx_HAL_Driver/Src/stm32f4xx_ll_usb.c **** 
1233:Drivers/STM32F4xx_HAL_Driver/Src/stm32f4xx_ll_usb.c **** /**
1234:Drivers/STM32F4xx_HAL_Driver/Src/stm32f4xx_ll_usb.c ****   * @brief  USB_ReadChInterrupts: return USB channel interrupt status
1235:Drivers/STM32F4xx_HAL_Driver/Src/stm32f4xx_ll_usb.c ****   * @param  USBx  Selected device
1236:Drivers/STM32F4xx_HAL_Driver/Src/stm32f4xx_ll_usb.c ****   * @param  chnum Channel number
1237:Drivers/STM32F4xx_HAL_Driver/Src/stm32f4xx_ll_usb.c ****   * @retval USB Channel Interrupt status
1238:Drivers/STM32F4xx_HAL_Driver/Src/stm32f4xx_ll_usb.c ****   */
1239:Drivers/STM32F4xx_HAL_Driver/Src/stm32f4xx_ll_usb.c **** uint32_t USB_ReadChInterrupts(const USB_OTG_GlobalTypeDef *USBx, uint8_t chnum)
1240:Drivers/STM32F4xx_HAL_Driver/Src/stm32f4xx_ll_usb.c **** {
1241:Drivers/STM32F4xx_HAL_Driver/Src/stm32f4xx_ll_usb.c ****   uint32_t USBx_BASE = (uint32_t)USBx;
1242:Drivers/STM32F4xx_HAL_Driver/Src/stm32f4xx_ll_usb.c ****   uint32_t tmpreg;
1243:Drivers/STM32F4xx_HAL_Driver/Src/stm32f4xx_ll_usb.c **** 
1244:Drivers/STM32F4xx_HAL_Driver/Src/stm32f4xx_ll_usb.c ****   tmpreg = USBx_HC(chnum)->HCINT;
1245:Drivers/STM32F4xx_HAL_Driver/Src/stm32f4xx_ll_usb.c ****   tmpreg &= USBx_HC(chnum)->HCINTMSK;
1246:Drivers/STM32F4xx_HAL_Driver/Src/stm32f4xx_ll_usb.c **** 
1247:Drivers/STM32F4xx_HAL_Driver/Src/stm32f4xx_ll_usb.c ****   return tmpreg;
1248:Drivers/STM32F4xx_HAL_Driver/Src/stm32f4xx_ll_usb.c **** }
1249:Drivers/STM32F4xx_HAL_Driver/Src/stm32f4xx_ll_usb.c **** 
1250:Drivers/STM32F4xx_HAL_Driver/Src/stm32f4xx_ll_usb.c **** /**
1251:Drivers/STM32F4xx_HAL_Driver/Src/stm32f4xx_ll_usb.c ****   * @brief  USB_ReadDevAllOutEpInterrupt: return the USB device OUT endpoints interrupt status
1252:Drivers/STM32F4xx_HAL_Driver/Src/stm32f4xx_ll_usb.c ****   * @param  USBx  Selected device
1253:Drivers/STM32F4xx_HAL_Driver/Src/stm32f4xx_ll_usb.c ****   * @retval USB Device OUT EP interrupt status
1254:Drivers/STM32F4xx_HAL_Driver/Src/stm32f4xx_ll_usb.c ****   */
1255:Drivers/STM32F4xx_HAL_Driver/Src/stm32f4xx_ll_usb.c **** uint32_t USB_ReadDevAllOutEpInterrupt(const USB_OTG_GlobalTypeDef *USBx)
1256:Drivers/STM32F4xx_HAL_Driver/Src/stm32f4xx_ll_usb.c **** {
1257:Drivers/STM32F4xx_HAL_Driver/Src/stm32f4xx_ll_usb.c ****   uint32_t USBx_BASE = (uint32_t)USBx;
1258:Drivers/STM32F4xx_HAL_Driver/Src/stm32f4xx_ll_usb.c ****   uint32_t tmpreg;
1259:Drivers/STM32F4xx_HAL_Driver/Src/stm32f4xx_ll_usb.c **** 
1260:Drivers/STM32F4xx_HAL_Driver/Src/stm32f4xx_ll_usb.c ****   tmpreg  = USBx_DEVICE->DAINT;
1261:Drivers/STM32F4xx_HAL_Driver/Src/stm32f4xx_ll_usb.c ****   tmpreg &= USBx_DEVICE->DAINTMSK;
1262:Drivers/STM32F4xx_HAL_Driver/Src/stm32f4xx_ll_usb.c **** 
1263:Drivers/STM32F4xx_HAL_Driver/Src/stm32f4xx_ll_usb.c ****   return ((tmpreg & 0xffff0000U) >> 16);
1264:Drivers/STM32F4xx_HAL_Driver/Src/stm32f4xx_ll_usb.c **** }
1265:Drivers/STM32F4xx_HAL_Driver/Src/stm32f4xx_ll_usb.c **** 
1266:Drivers/STM32F4xx_HAL_Driver/Src/stm32f4xx_ll_usb.c **** /**
1267:Drivers/STM32F4xx_HAL_Driver/Src/stm32f4xx_ll_usb.c ****   * @brief  USB_ReadDevAllInEpInterrupt: return the USB device IN endpoints interrupt status
1268:Drivers/STM32F4xx_HAL_Driver/Src/stm32f4xx_ll_usb.c ****   * @param  USBx  Selected device
1269:Drivers/STM32F4xx_HAL_Driver/Src/stm32f4xx_ll_usb.c ****   * @retval USB Device IN EP interrupt status
1270:Drivers/STM32F4xx_HAL_Driver/Src/stm32f4xx_ll_usb.c ****   */
1271:Drivers/STM32F4xx_HAL_Driver/Src/stm32f4xx_ll_usb.c **** uint32_t USB_ReadDevAllInEpInterrupt(const USB_OTG_GlobalTypeDef *USBx)
1272:Drivers/STM32F4xx_HAL_Driver/Src/stm32f4xx_ll_usb.c **** {
1273:Drivers/STM32F4xx_HAL_Driver/Src/stm32f4xx_ll_usb.c ****   uint32_t USBx_BASE = (uint32_t)USBx;
1274:Drivers/STM32F4xx_HAL_Driver/Src/stm32f4xx_ll_usb.c ****   uint32_t tmpreg;
1275:Drivers/STM32F4xx_HAL_Driver/Src/stm32f4xx_ll_usb.c **** 
1276:Drivers/STM32F4xx_HAL_Driver/Src/stm32f4xx_ll_usb.c ****   tmpreg  = USBx_DEVICE->DAINT;
1277:Drivers/STM32F4xx_HAL_Driver/Src/stm32f4xx_ll_usb.c ****   tmpreg &= USBx_DEVICE->DAINTMSK;
1278:Drivers/STM32F4xx_HAL_Driver/Src/stm32f4xx_ll_usb.c **** 
1279:Drivers/STM32F4xx_HAL_Driver/Src/stm32f4xx_ll_usb.c ****   return ((tmpreg & 0xFFFFU));
1280:Drivers/STM32F4xx_HAL_Driver/Src/stm32f4xx_ll_usb.c **** }
1281:Drivers/STM32F4xx_HAL_Driver/Src/stm32f4xx_ll_usb.c **** 
1282:Drivers/STM32F4xx_HAL_Driver/Src/stm32f4xx_ll_usb.c **** /**
1283:Drivers/STM32F4xx_HAL_Driver/Src/stm32f4xx_ll_usb.c ****   * @brief  Returns Device OUT EP Interrupt register
1284:Drivers/STM32F4xx_HAL_Driver/Src/stm32f4xx_ll_usb.c ****   * @param  USBx  Selected device
ARM GAS  C:\Users\ashto\AppData\Local\Temp\ccdF3pho.s 			page 24


1285:Drivers/STM32F4xx_HAL_Driver/Src/stm32f4xx_ll_usb.c ****   * @param  epnum  endpoint number
1286:Drivers/STM32F4xx_HAL_Driver/Src/stm32f4xx_ll_usb.c ****   *          This parameter can be a value from 0 to 15
1287:Drivers/STM32F4xx_HAL_Driver/Src/stm32f4xx_ll_usb.c ****   * @retval Device OUT EP Interrupt register
1288:Drivers/STM32F4xx_HAL_Driver/Src/stm32f4xx_ll_usb.c ****   */
1289:Drivers/STM32F4xx_HAL_Driver/Src/stm32f4xx_ll_usb.c **** uint32_t USB_ReadDevOutEPInterrupt(const USB_OTG_GlobalTypeDef *USBx, uint8_t epnum)
1290:Drivers/STM32F4xx_HAL_Driver/Src/stm32f4xx_ll_usb.c **** {
1291:Drivers/STM32F4xx_HAL_Driver/Src/stm32f4xx_ll_usb.c ****   uint32_t USBx_BASE = (uint32_t)USBx;
1292:Drivers/STM32F4xx_HAL_Driver/Src/stm32f4xx_ll_usb.c ****   uint32_t tmpreg;
1293:Drivers/STM32F4xx_HAL_Driver/Src/stm32f4xx_ll_usb.c **** 
1294:Drivers/STM32F4xx_HAL_Driver/Src/stm32f4xx_ll_usb.c ****   tmpreg  = USBx_OUTEP((uint32_t)epnum)->DOEPINT;
1295:Drivers/STM32F4xx_HAL_Driver/Src/stm32f4xx_ll_usb.c ****   tmpreg &= USBx_DEVICE->DOEPMSK;
1296:Drivers/STM32F4xx_HAL_Driver/Src/stm32f4xx_ll_usb.c **** 
1297:Drivers/STM32F4xx_HAL_Driver/Src/stm32f4xx_ll_usb.c ****   return tmpreg;
1298:Drivers/STM32F4xx_HAL_Driver/Src/stm32f4xx_ll_usb.c **** }
1299:Drivers/STM32F4xx_HAL_Driver/Src/stm32f4xx_ll_usb.c **** 
1300:Drivers/STM32F4xx_HAL_Driver/Src/stm32f4xx_ll_usb.c **** /**
1301:Drivers/STM32F4xx_HAL_Driver/Src/stm32f4xx_ll_usb.c ****   * @brief  Returns Device IN EP Interrupt register
1302:Drivers/STM32F4xx_HAL_Driver/Src/stm32f4xx_ll_usb.c ****   * @param  USBx  Selected device
1303:Drivers/STM32F4xx_HAL_Driver/Src/stm32f4xx_ll_usb.c ****   * @param  epnum  endpoint number
1304:Drivers/STM32F4xx_HAL_Driver/Src/stm32f4xx_ll_usb.c ****   *          This parameter can be a value from 0 to 15
1305:Drivers/STM32F4xx_HAL_Driver/Src/stm32f4xx_ll_usb.c ****   * @retval Device IN EP Interrupt register
1306:Drivers/STM32F4xx_HAL_Driver/Src/stm32f4xx_ll_usb.c ****   */
1307:Drivers/STM32F4xx_HAL_Driver/Src/stm32f4xx_ll_usb.c **** uint32_t USB_ReadDevInEPInterrupt(const USB_OTG_GlobalTypeDef *USBx, uint8_t epnum)
1308:Drivers/STM32F4xx_HAL_Driver/Src/stm32f4xx_ll_usb.c **** {
1309:Drivers/STM32F4xx_HAL_Driver/Src/stm32f4xx_ll_usb.c ****   uint32_t USBx_BASE = (uint32_t)USBx;
1310:Drivers/STM32F4xx_HAL_Driver/Src/stm32f4xx_ll_usb.c ****   uint32_t tmpreg;
1311:Drivers/STM32F4xx_HAL_Driver/Src/stm32f4xx_ll_usb.c ****   uint32_t msk;
1312:Drivers/STM32F4xx_HAL_Driver/Src/stm32f4xx_ll_usb.c ****   uint32_t emp;
1313:Drivers/STM32F4xx_HAL_Driver/Src/stm32f4xx_ll_usb.c **** 
1314:Drivers/STM32F4xx_HAL_Driver/Src/stm32f4xx_ll_usb.c ****   msk = USBx_DEVICE->DIEPMSK;
1315:Drivers/STM32F4xx_HAL_Driver/Src/stm32f4xx_ll_usb.c ****   emp = USBx_DEVICE->DIEPEMPMSK;
1316:Drivers/STM32F4xx_HAL_Driver/Src/stm32f4xx_ll_usb.c ****   msk |= ((emp >> (epnum & EP_ADDR_MSK)) & 0x1U) << 7;
1317:Drivers/STM32F4xx_HAL_Driver/Src/stm32f4xx_ll_usb.c ****   tmpreg = USBx_INEP((uint32_t)epnum)->DIEPINT & msk;
1318:Drivers/STM32F4xx_HAL_Driver/Src/stm32f4xx_ll_usb.c **** 
1319:Drivers/STM32F4xx_HAL_Driver/Src/stm32f4xx_ll_usb.c ****   return tmpreg;
1320:Drivers/STM32F4xx_HAL_Driver/Src/stm32f4xx_ll_usb.c **** }
1321:Drivers/STM32F4xx_HAL_Driver/Src/stm32f4xx_ll_usb.c **** 
1322:Drivers/STM32F4xx_HAL_Driver/Src/stm32f4xx_ll_usb.c **** /**
1323:Drivers/STM32F4xx_HAL_Driver/Src/stm32f4xx_ll_usb.c ****   * @brief  USB_ClearInterrupts: clear a USB interrupt
1324:Drivers/STM32F4xx_HAL_Driver/Src/stm32f4xx_ll_usb.c ****   * @param  USBx  Selected device
1325:Drivers/STM32F4xx_HAL_Driver/Src/stm32f4xx_ll_usb.c ****   * @param  interrupt  flag
1326:Drivers/STM32F4xx_HAL_Driver/Src/stm32f4xx_ll_usb.c ****   * @retval None
1327:Drivers/STM32F4xx_HAL_Driver/Src/stm32f4xx_ll_usb.c ****   */
1328:Drivers/STM32F4xx_HAL_Driver/Src/stm32f4xx_ll_usb.c **** void  USB_ClearInterrupts(USB_OTG_GlobalTypeDef *USBx, uint32_t interrupt)
1329:Drivers/STM32F4xx_HAL_Driver/Src/stm32f4xx_ll_usb.c **** {
1330:Drivers/STM32F4xx_HAL_Driver/Src/stm32f4xx_ll_usb.c ****   USBx->GINTSTS &= interrupt;
1331:Drivers/STM32F4xx_HAL_Driver/Src/stm32f4xx_ll_usb.c **** }
1332:Drivers/STM32F4xx_HAL_Driver/Src/stm32f4xx_ll_usb.c **** 
1333:Drivers/STM32F4xx_HAL_Driver/Src/stm32f4xx_ll_usb.c **** /**
1334:Drivers/STM32F4xx_HAL_Driver/Src/stm32f4xx_ll_usb.c ****   * @brief  Returns USB core mode
1335:Drivers/STM32F4xx_HAL_Driver/Src/stm32f4xx_ll_usb.c ****   * @param  USBx  Selected device
1336:Drivers/STM32F4xx_HAL_Driver/Src/stm32f4xx_ll_usb.c ****   * @retval return core mode : Host or Device
1337:Drivers/STM32F4xx_HAL_Driver/Src/stm32f4xx_ll_usb.c ****   *          This parameter can be one of these values:
1338:Drivers/STM32F4xx_HAL_Driver/Src/stm32f4xx_ll_usb.c ****   *           0 : Host
1339:Drivers/STM32F4xx_HAL_Driver/Src/stm32f4xx_ll_usb.c ****   *           1 : Device
1340:Drivers/STM32F4xx_HAL_Driver/Src/stm32f4xx_ll_usb.c ****   */
1341:Drivers/STM32F4xx_HAL_Driver/Src/stm32f4xx_ll_usb.c **** uint32_t USB_GetMode(const USB_OTG_GlobalTypeDef *USBx)
ARM GAS  C:\Users\ashto\AppData\Local\Temp\ccdF3pho.s 			page 25


1342:Drivers/STM32F4xx_HAL_Driver/Src/stm32f4xx_ll_usb.c **** {
1343:Drivers/STM32F4xx_HAL_Driver/Src/stm32f4xx_ll_usb.c ****   return ((USBx->GINTSTS) & 0x1U);
1344:Drivers/STM32F4xx_HAL_Driver/Src/stm32f4xx_ll_usb.c **** }
1345:Drivers/STM32F4xx_HAL_Driver/Src/stm32f4xx_ll_usb.c **** 
1346:Drivers/STM32F4xx_HAL_Driver/Src/stm32f4xx_ll_usb.c **** /**
1347:Drivers/STM32F4xx_HAL_Driver/Src/stm32f4xx_ll_usb.c ****   * @brief  Activate EP0 for Setup transactions
1348:Drivers/STM32F4xx_HAL_Driver/Src/stm32f4xx_ll_usb.c ****   * @param  USBx  Selected device
1349:Drivers/STM32F4xx_HAL_Driver/Src/stm32f4xx_ll_usb.c ****   * @retval HAL status
1350:Drivers/STM32F4xx_HAL_Driver/Src/stm32f4xx_ll_usb.c ****   */
1351:Drivers/STM32F4xx_HAL_Driver/Src/stm32f4xx_ll_usb.c **** HAL_StatusTypeDef USB_ActivateSetup(const USB_OTG_GlobalTypeDef *USBx)
1352:Drivers/STM32F4xx_HAL_Driver/Src/stm32f4xx_ll_usb.c **** {
1353:Drivers/STM32F4xx_HAL_Driver/Src/stm32f4xx_ll_usb.c ****   uint32_t USBx_BASE = (uint32_t)USBx;
1354:Drivers/STM32F4xx_HAL_Driver/Src/stm32f4xx_ll_usb.c **** 
1355:Drivers/STM32F4xx_HAL_Driver/Src/stm32f4xx_ll_usb.c ****   /* Set the MPS of the IN EP0 to 64 bytes */
1356:Drivers/STM32F4xx_HAL_Driver/Src/stm32f4xx_ll_usb.c ****   USBx_INEP(0U)->DIEPCTL &= ~USB_OTG_DIEPCTL_MPSIZ;
1357:Drivers/STM32F4xx_HAL_Driver/Src/stm32f4xx_ll_usb.c **** 
1358:Drivers/STM32F4xx_HAL_Driver/Src/stm32f4xx_ll_usb.c ****   USBx_DEVICE->DCTL |= USB_OTG_DCTL_CGINAK;
1359:Drivers/STM32F4xx_HAL_Driver/Src/stm32f4xx_ll_usb.c **** 
1360:Drivers/STM32F4xx_HAL_Driver/Src/stm32f4xx_ll_usb.c ****   return HAL_OK;
1361:Drivers/STM32F4xx_HAL_Driver/Src/stm32f4xx_ll_usb.c **** }
1362:Drivers/STM32F4xx_HAL_Driver/Src/stm32f4xx_ll_usb.c **** 
1363:Drivers/STM32F4xx_HAL_Driver/Src/stm32f4xx_ll_usb.c **** /**
1364:Drivers/STM32F4xx_HAL_Driver/Src/stm32f4xx_ll_usb.c ****   * @brief  Prepare the EP0 to start the first control setup
1365:Drivers/STM32F4xx_HAL_Driver/Src/stm32f4xx_ll_usb.c ****   * @param  USBx  Selected device
1366:Drivers/STM32F4xx_HAL_Driver/Src/stm32f4xx_ll_usb.c ****   * @param  dma USB dma enabled or disabled
1367:Drivers/STM32F4xx_HAL_Driver/Src/stm32f4xx_ll_usb.c ****   *          This parameter can be one of these values:
1368:Drivers/STM32F4xx_HAL_Driver/Src/stm32f4xx_ll_usb.c ****   *           0 : DMA feature not used
1369:Drivers/STM32F4xx_HAL_Driver/Src/stm32f4xx_ll_usb.c ****   *           1 : DMA feature used
1370:Drivers/STM32F4xx_HAL_Driver/Src/stm32f4xx_ll_usb.c ****   * @param  psetup  pointer to setup packet
1371:Drivers/STM32F4xx_HAL_Driver/Src/stm32f4xx_ll_usb.c ****   * @retval HAL status
1372:Drivers/STM32F4xx_HAL_Driver/Src/stm32f4xx_ll_usb.c ****   */
1373:Drivers/STM32F4xx_HAL_Driver/Src/stm32f4xx_ll_usb.c **** HAL_StatusTypeDef USB_EP0_OutStart(const USB_OTG_GlobalTypeDef *USBx, uint8_t dma, const uint8_t *p
1374:Drivers/STM32F4xx_HAL_Driver/Src/stm32f4xx_ll_usb.c **** {
1375:Drivers/STM32F4xx_HAL_Driver/Src/stm32f4xx_ll_usb.c ****   uint32_t USBx_BASE = (uint32_t)USBx;
1376:Drivers/STM32F4xx_HAL_Driver/Src/stm32f4xx_ll_usb.c ****   uint32_t gSNPSiD = *(__IO const uint32_t *)(&USBx->CID + 0x1U);
1377:Drivers/STM32F4xx_HAL_Driver/Src/stm32f4xx_ll_usb.c **** 
1378:Drivers/STM32F4xx_HAL_Driver/Src/stm32f4xx_ll_usb.c ****   if (gSNPSiD > USB_OTG_CORE_ID_300A)
1379:Drivers/STM32F4xx_HAL_Driver/Src/stm32f4xx_ll_usb.c ****   {
1380:Drivers/STM32F4xx_HAL_Driver/Src/stm32f4xx_ll_usb.c ****     if ((USBx_OUTEP(0U)->DOEPCTL & USB_OTG_DOEPCTL_EPENA) == USB_OTG_DOEPCTL_EPENA)
1381:Drivers/STM32F4xx_HAL_Driver/Src/stm32f4xx_ll_usb.c ****     {
1382:Drivers/STM32F4xx_HAL_Driver/Src/stm32f4xx_ll_usb.c ****       return HAL_OK;
1383:Drivers/STM32F4xx_HAL_Driver/Src/stm32f4xx_ll_usb.c ****     }
1384:Drivers/STM32F4xx_HAL_Driver/Src/stm32f4xx_ll_usb.c ****   }
1385:Drivers/STM32F4xx_HAL_Driver/Src/stm32f4xx_ll_usb.c **** 
1386:Drivers/STM32F4xx_HAL_Driver/Src/stm32f4xx_ll_usb.c ****   USBx_OUTEP(0U)->DOEPTSIZ = 0U;
1387:Drivers/STM32F4xx_HAL_Driver/Src/stm32f4xx_ll_usb.c ****   USBx_OUTEP(0U)->DOEPTSIZ |= (USB_OTG_DOEPTSIZ_PKTCNT & (1U << 19));
1388:Drivers/STM32F4xx_HAL_Driver/Src/stm32f4xx_ll_usb.c ****   USBx_OUTEP(0U)->DOEPTSIZ |= (3U * 8U);
1389:Drivers/STM32F4xx_HAL_Driver/Src/stm32f4xx_ll_usb.c ****   USBx_OUTEP(0U)->DOEPTSIZ |=  USB_OTG_DOEPTSIZ_STUPCNT;
1390:Drivers/STM32F4xx_HAL_Driver/Src/stm32f4xx_ll_usb.c **** 
1391:Drivers/STM32F4xx_HAL_Driver/Src/stm32f4xx_ll_usb.c ****   if (dma == 1U)
1392:Drivers/STM32F4xx_HAL_Driver/Src/stm32f4xx_ll_usb.c ****   {
1393:Drivers/STM32F4xx_HAL_Driver/Src/stm32f4xx_ll_usb.c ****     USBx_OUTEP(0U)->DOEPDMA = (uint32_t)psetup;
1394:Drivers/STM32F4xx_HAL_Driver/Src/stm32f4xx_ll_usb.c ****     /* EP enable */
1395:Drivers/STM32F4xx_HAL_Driver/Src/stm32f4xx_ll_usb.c ****     USBx_OUTEP(0U)->DOEPCTL |= USB_OTG_DOEPCTL_EPENA | USB_OTG_DOEPCTL_USBAEP;
1396:Drivers/STM32F4xx_HAL_Driver/Src/stm32f4xx_ll_usb.c ****   }
1397:Drivers/STM32F4xx_HAL_Driver/Src/stm32f4xx_ll_usb.c **** 
1398:Drivers/STM32F4xx_HAL_Driver/Src/stm32f4xx_ll_usb.c ****   return HAL_OK;
ARM GAS  C:\Users\ashto\AppData\Local\Temp\ccdF3pho.s 			page 26


1399:Drivers/STM32F4xx_HAL_Driver/Src/stm32f4xx_ll_usb.c **** }
1400:Drivers/STM32F4xx_HAL_Driver/Src/stm32f4xx_ll_usb.c **** 
1401:Drivers/STM32F4xx_HAL_Driver/Src/stm32f4xx_ll_usb.c **** /**
1402:Drivers/STM32F4xx_HAL_Driver/Src/stm32f4xx_ll_usb.c ****   * @brief  Reset the USB Core (needed after USB clock settings change)
1403:Drivers/STM32F4xx_HAL_Driver/Src/stm32f4xx_ll_usb.c ****   * @param  USBx  Selected device
1404:Drivers/STM32F4xx_HAL_Driver/Src/stm32f4xx_ll_usb.c ****   * @retval HAL status
1405:Drivers/STM32F4xx_HAL_Driver/Src/stm32f4xx_ll_usb.c ****   */
1406:Drivers/STM32F4xx_HAL_Driver/Src/stm32f4xx_ll_usb.c **** static HAL_StatusTypeDef USB_CoreReset(USB_OTG_GlobalTypeDef *USBx)
1407:Drivers/STM32F4xx_HAL_Driver/Src/stm32f4xx_ll_usb.c **** {
  29              		.loc 1 1407 1 view -0
  30              		.cfi_startproc
  31              		@ args = 0, pretend = 0, frame = 8
  32              		@ frame_needed = 0, uses_anonymous_args = 0
  33              		@ link register save eliminated.
  34              		.loc 1 1407 1 is_stmt 0 view .LVU1
  35 0000 82B0     		sub	sp, sp, #8
  36              	.LCFI0:
  37              		.cfi_def_cfa_offset 8
1408:Drivers/STM32F4xx_HAL_Driver/Src/stm32f4xx_ll_usb.c ****   __IO uint32_t count = 0U;
  38              		.loc 1 1408 3 is_stmt 1 view .LVU2
  39              		.loc 1 1408 17 is_stmt 0 view .LVU3
  40 0002 0023     		movs	r3, #0
  41 0004 0193     		str	r3, [sp, #4]
  42              	.L3:
1409:Drivers/STM32F4xx_HAL_Driver/Src/stm32f4xx_ll_usb.c **** 
1410:Drivers/STM32F4xx_HAL_Driver/Src/stm32f4xx_ll_usb.c ****   /* Wait for AHB master IDLE state. */
1411:Drivers/STM32F4xx_HAL_Driver/Src/stm32f4xx_ll_usb.c ****   do
  43              		.loc 1 1411 3 is_stmt 1 view .LVU4
1412:Drivers/STM32F4xx_HAL_Driver/Src/stm32f4xx_ll_usb.c ****   {
1413:Drivers/STM32F4xx_HAL_Driver/Src/stm32f4xx_ll_usb.c ****     count++;
  44              		.loc 1 1413 5 view .LVU5
  45              		.loc 1 1413 10 is_stmt 0 view .LVU6
  46 0006 019B     		ldr	r3, [sp, #4]
  47 0008 0133     		adds	r3, r3, #1
  48 000a 0193     		str	r3, [sp, #4]
1414:Drivers/STM32F4xx_HAL_Driver/Src/stm32f4xx_ll_usb.c **** 
1415:Drivers/STM32F4xx_HAL_Driver/Src/stm32f4xx_ll_usb.c ****     if (count > HAL_USB_TIMEOUT)
  49              		.loc 1 1415 5 is_stmt 1 view .LVU7
  50              		.loc 1 1415 15 is_stmt 0 view .LVU8
  51 000c 019B     		ldr	r3, [sp, #4]
  52              		.loc 1 1415 8 view .LVU9
  53 000e B3F1706F 		cmp	r3, #251658240
  54 0012 15D8     		bhi	.L5
1416:Drivers/STM32F4xx_HAL_Driver/Src/stm32f4xx_ll_usb.c ****     {
1417:Drivers/STM32F4xx_HAL_Driver/Src/stm32f4xx_ll_usb.c ****       return HAL_TIMEOUT;
1418:Drivers/STM32F4xx_HAL_Driver/Src/stm32f4xx_ll_usb.c ****     }
1419:Drivers/STM32F4xx_HAL_Driver/Src/stm32f4xx_ll_usb.c ****   } while ((USBx->GRSTCTL & USB_OTG_GRSTCTL_AHBIDL) == 0U);
  55              		.loc 1 1419 11 is_stmt 1 view .LVU10
  56              		.loc 1 1419 17 is_stmt 0 view .LVU11
  57 0014 0369     		ldr	r3, [r0, #16]
  58              		.loc 1 1419 3 view .LVU12
  59 0016 002B     		cmp	r3, #0
  60 0018 F5DA     		bge	.L3
1420:Drivers/STM32F4xx_HAL_Driver/Src/stm32f4xx_ll_usb.c **** 
1421:Drivers/STM32F4xx_HAL_Driver/Src/stm32f4xx_ll_usb.c ****   /* Core Soft Reset */
1422:Drivers/STM32F4xx_HAL_Driver/Src/stm32f4xx_ll_usb.c ****   count = 0U;
  61              		.loc 1 1422 3 is_stmt 1 view .LVU13
ARM GAS  C:\Users\ashto\AppData\Local\Temp\ccdF3pho.s 			page 27


  62              		.loc 1 1422 9 is_stmt 0 view .LVU14
  63 001a 0023     		movs	r3, #0
  64 001c 0193     		str	r3, [sp, #4]
1423:Drivers/STM32F4xx_HAL_Driver/Src/stm32f4xx_ll_usb.c ****   USBx->GRSTCTL |= USB_OTG_GRSTCTL_CSRST;
  65              		.loc 1 1423 3 is_stmt 1 view .LVU15
  66              		.loc 1 1423 17 is_stmt 0 view .LVU16
  67 001e 0369     		ldr	r3, [r0, #16]
  68 0020 43F00103 		orr	r3, r3, #1
  69 0024 0361     		str	r3, [r0, #16]
  70              	.L4:
1424:Drivers/STM32F4xx_HAL_Driver/Src/stm32f4xx_ll_usb.c **** 
1425:Drivers/STM32F4xx_HAL_Driver/Src/stm32f4xx_ll_usb.c ****   do
  71              		.loc 1 1425 3 is_stmt 1 view .LVU17
1426:Drivers/STM32F4xx_HAL_Driver/Src/stm32f4xx_ll_usb.c ****   {
1427:Drivers/STM32F4xx_HAL_Driver/Src/stm32f4xx_ll_usb.c ****     count++;
  72              		.loc 1 1427 5 view .LVU18
  73              		.loc 1 1427 10 is_stmt 0 view .LVU19
  74 0026 019B     		ldr	r3, [sp, #4]
  75 0028 0133     		adds	r3, r3, #1
  76 002a 0193     		str	r3, [sp, #4]
1428:Drivers/STM32F4xx_HAL_Driver/Src/stm32f4xx_ll_usb.c **** 
1429:Drivers/STM32F4xx_HAL_Driver/Src/stm32f4xx_ll_usb.c ****     if (count > HAL_USB_TIMEOUT)
  77              		.loc 1 1429 5 is_stmt 1 view .LVU20
  78              		.loc 1 1429 15 is_stmt 0 view .LVU21
  79 002c 019B     		ldr	r3, [sp, #4]
  80              		.loc 1 1429 8 view .LVU22
  81 002e B3F1706F 		cmp	r3, #251658240
  82 0032 08D8     		bhi	.L6
1430:Drivers/STM32F4xx_HAL_Driver/Src/stm32f4xx_ll_usb.c ****     {
1431:Drivers/STM32F4xx_HAL_Driver/Src/stm32f4xx_ll_usb.c ****       return HAL_TIMEOUT;
1432:Drivers/STM32F4xx_HAL_Driver/Src/stm32f4xx_ll_usb.c ****     }
1433:Drivers/STM32F4xx_HAL_Driver/Src/stm32f4xx_ll_usb.c ****   } while ((USBx->GRSTCTL & USB_OTG_GRSTCTL_CSRST) == USB_OTG_GRSTCTL_CSRST);
  83              		.loc 1 1433 11 is_stmt 1 view .LVU23
  84              		.loc 1 1433 17 is_stmt 0 view .LVU24
  85 0034 0369     		ldr	r3, [r0, #16]
  86              		.loc 1 1433 3 view .LVU25
  87 0036 13F0010F 		tst	r3, #1
  88 003a F4D1     		bne	.L4
1434:Drivers/STM32F4xx_HAL_Driver/Src/stm32f4xx_ll_usb.c **** 
1435:Drivers/STM32F4xx_HAL_Driver/Src/stm32f4xx_ll_usb.c ****   return HAL_OK;
  89              		.loc 1 1435 10 view .LVU26
  90 003c 0020     		movs	r0, #0
  91              	.LVL1:
  92              		.loc 1 1435 10 view .LVU27
  93 003e 00E0     		b	.L2
  94              	.LVL2:
  95              	.L5:
1417:Drivers/STM32F4xx_HAL_Driver/Src/stm32f4xx_ll_usb.c ****     }
  96              		.loc 1 1417 14 view .LVU28
  97 0040 0320     		movs	r0, #3
  98              	.LVL3:
  99              	.L2:
1436:Drivers/STM32F4xx_HAL_Driver/Src/stm32f4xx_ll_usb.c **** }
 100              		.loc 1 1436 1 view .LVU29
 101 0042 02B0     		add	sp, sp, #8
 102              	.LCFI1:
 103              		.cfi_remember_state
ARM GAS  C:\Users\ashto\AppData\Local\Temp\ccdF3pho.s 			page 28


 104              		.cfi_def_cfa_offset 0
 105              		@ sp needed
 106 0044 7047     		bx	lr
 107              	.LVL4:
 108              	.L6:
 109              	.LCFI2:
 110              		.cfi_restore_state
1431:Drivers/STM32F4xx_HAL_Driver/Src/stm32f4xx_ll_usb.c ****     }
 111              		.loc 1 1431 14 view .LVU30
 112 0046 0320     		movs	r0, #3
 113              	.LVL5:
1431:Drivers/STM32F4xx_HAL_Driver/Src/stm32f4xx_ll_usb.c ****     }
 114              		.loc 1 1431 14 view .LVU31
 115 0048 FBE7     		b	.L2
 116              		.cfi_endproc
 117              	.LFE168:
 119              		.section	.text.USB_CoreInit,"ax",%progbits
 120              		.align	1
 121              		.global	USB_CoreInit
 122              		.syntax unified
 123              		.thumb
 124              		.thumb_func
 126              	USB_CoreInit:
 127              	.LVL6:
 128              	.LFB134:
  84:Drivers/STM32F4xx_HAL_Driver/Src/stm32f4xx_ll_usb.c ****   HAL_StatusTypeDef ret;
 129              		.loc 1 84 1 is_stmt 1 view -0
 130              		.cfi_startproc
 131              		@ args = 20, pretend = 16, frame = 0
 132              		@ frame_needed = 0, uses_anonymous_args = 0
  84:Drivers/STM32F4xx_HAL_Driver/Src/stm32f4xx_ll_usb.c ****   HAL_StatusTypeDef ret;
 133              		.loc 1 84 1 is_stmt 0 view .LVU33
 134 0000 84B0     		sub	sp, sp, #16
 135              	.LCFI3:
 136              		.cfi_def_cfa_offset 16
 137 0002 10B5     		push	{r4, lr}
 138              	.LCFI4:
 139              		.cfi_def_cfa_offset 24
 140              		.cfi_offset 4, -24
 141              		.cfi_offset 14, -20
 142 0004 0446     		mov	r4, r0
 143 0006 03A8     		add	r0, sp, #12
 144 0008 80E80E00 		stm	r0, {r1, r2, r3}
  85:Drivers/STM32F4xx_HAL_Driver/Src/stm32f4xx_ll_usb.c ****   if (cfg.phy_itface == USB_OTG_ULPI_PHY)
 145              		.loc 1 85 3 is_stmt 1 view .LVU34
  86:Drivers/STM32F4xx_HAL_Driver/Src/stm32f4xx_ll_usb.c ****   {
 146              		.loc 1 86 3 view .LVU35
  86:Drivers/STM32F4xx_HAL_Driver/Src/stm32f4xx_ll_usb.c ****   {
 147              		.loc 1 86 10 is_stmt 0 view .LVU36
 148 000c 9DF81130 		ldrb	r3, [sp, #17]	@ zero_extendqisi2
  86:Drivers/STM32F4xx_HAL_Driver/Src/stm32f4xx_ll_usb.c ****   {
 149              		.loc 1 86 6 view .LVU37
 150 0010 012B     		cmp	r3, #1
 151 0012 21D1     		bne	.L9
  88:Drivers/STM32F4xx_HAL_Driver/Src/stm32f4xx_ll_usb.c **** 
 152              		.loc 1 88 5 is_stmt 1 view .LVU38
  88:Drivers/STM32F4xx_HAL_Driver/Src/stm32f4xx_ll_usb.c **** 
ARM GAS  C:\Users\ashto\AppData\Local\Temp\ccdF3pho.s 			page 29


 153              		.loc 1 88 17 is_stmt 0 view .LVU39
 154 0014 A36B     		ldr	r3, [r4, #56]
 155 0016 23F48033 		bic	r3, r3, #65536
 156 001a A363     		str	r3, [r4, #56]
  91:Drivers/STM32F4xx_HAL_Driver/Src/stm32f4xx_ll_usb.c **** 
 157              		.loc 1 91 5 is_stmt 1 view .LVU40
  91:Drivers/STM32F4xx_HAL_Driver/Src/stm32f4xx_ll_usb.c **** 
 158              		.loc 1 91 19 is_stmt 0 view .LVU41
 159 001c E368     		ldr	r3, [r4, #12]
 160 001e 23F48403 		bic	r3, r3, #4325376
 161 0022 23F04003 		bic	r3, r3, #64
 162 0026 E360     		str	r3, [r4, #12]
  94:Drivers/STM32F4xx_HAL_Driver/Src/stm32f4xx_ll_usb.c ****     if (cfg.use_external_vbus == 1U)
 163              		.loc 1 94 5 is_stmt 1 view .LVU42
  94:Drivers/STM32F4xx_HAL_Driver/Src/stm32f4xx_ll_usb.c ****     if (cfg.use_external_vbus == 1U)
 164              		.loc 1 94 19 is_stmt 0 view .LVU43
 165 0028 E368     		ldr	r3, [r4, #12]
 166 002a 23F44013 		bic	r3, r3, #3145728
 167 002e E360     		str	r3, [r4, #12]
  95:Drivers/STM32F4xx_HAL_Driver/Src/stm32f4xx_ll_usb.c ****     {
 168              		.loc 1 95 5 is_stmt 1 view .LVU44
  95:Drivers/STM32F4xx_HAL_Driver/Src/stm32f4xx_ll_usb.c ****     {
 169              		.loc 1 95 12 is_stmt 0 view .LVU45
 170 0030 9DF81830 		ldrb	r3, [sp, #24]	@ zero_extendqisi2
  95:Drivers/STM32F4xx_HAL_Driver/Src/stm32f4xx_ll_usb.c ****     {
 171              		.loc 1 95 8 view .LVU46
 172 0034 012B     		cmp	r3, #1
 173 0036 0AD0     		beq	.L15
 174              	.L10:
 101:Drivers/STM32F4xx_HAL_Driver/Src/stm32f4xx_ll_usb.c ****   }
 175              		.loc 1 101 5 is_stmt 1 view .LVU47
 101:Drivers/STM32F4xx_HAL_Driver/Src/stm32f4xx_ll_usb.c ****   }
 176              		.loc 1 101 11 is_stmt 0 view .LVU48
 177 0038 2046     		mov	r0, r4
 178              	.LVL7:
 101:Drivers/STM32F4xx_HAL_Driver/Src/stm32f4xx_ll_usb.c ****   }
 179              		.loc 1 101 11 view .LVU49
 180 003a FFF7FEFF 		bl	USB_CoreReset
 181              	.LVL8:
 182              	.L11:
 123:Drivers/STM32F4xx_HAL_Driver/Src/stm32f4xx_ll_usb.c ****   {
 183              		.loc 1 123 3 is_stmt 1 view .LVU50
 123:Drivers/STM32F4xx_HAL_Driver/Src/stm32f4xx_ll_usb.c ****   {
 184              		.loc 1 123 10 is_stmt 0 view .LVU51
 185 003e 9DF80E30 		ldrb	r3, [sp, #14]	@ zero_extendqisi2
 123:Drivers/STM32F4xx_HAL_Driver/Src/stm32f4xx_ll_usb.c ****   {
 186              		.loc 1 123 6 view .LVU52
 187 0042 012B     		cmp	r3, #1
 188 0044 1CD0     		beq	.L16
 189              	.L13:
 129:Drivers/STM32F4xx_HAL_Driver/Src/stm32f4xx_ll_usb.c **** }
 190              		.loc 1 129 3 is_stmt 1 view .LVU53
 130:Drivers/STM32F4xx_HAL_Driver/Src/stm32f4xx_ll_usb.c **** 
 191              		.loc 1 130 1 is_stmt 0 view .LVU54
 192 0046 BDE81040 		pop	{r4, lr}
 193              	.LCFI5:
 194              		.cfi_remember_state
ARM GAS  C:\Users\ashto\AppData\Local\Temp\ccdF3pho.s 			page 30


 195              		.cfi_restore 14
 196              		.cfi_restore 4
 197              		.cfi_def_cfa_offset 16
 198              	.LVL9:
 130:Drivers/STM32F4xx_HAL_Driver/Src/stm32f4xx_ll_usb.c **** 
 199              		.loc 1 130 1 view .LVU55
 200 004a 04B0     		add	sp, sp, #16
 201              	.LCFI6:
 202              		.cfi_def_cfa_offset 0
 203 004c 7047     		bx	lr
 204              	.LVL10:
 205              	.L15:
 206              	.LCFI7:
 207              		.cfi_restore_state
  97:Drivers/STM32F4xx_HAL_Driver/Src/stm32f4xx_ll_usb.c ****     }
 208              		.loc 1 97 7 is_stmt 1 view .LVU56
  97:Drivers/STM32F4xx_HAL_Driver/Src/stm32f4xx_ll_usb.c ****     }
 209              		.loc 1 97 21 is_stmt 0 view .LVU57
 210 004e E368     		ldr	r3, [r4, #12]
 211 0050 43F48013 		orr	r3, r3, #1048576
 212 0054 E360     		str	r3, [r4, #12]
 213 0056 EFE7     		b	.L10
 214              	.L9:
 106:Drivers/STM32F4xx_HAL_Driver/Src/stm32f4xx_ll_usb.c **** 
 215              		.loc 1 106 5 is_stmt 1 view .LVU58
 106:Drivers/STM32F4xx_HAL_Driver/Src/stm32f4xx_ll_usb.c **** 
 216              		.loc 1 106 19 is_stmt 0 view .LVU59
 217 0058 E368     		ldr	r3, [r4, #12]
 218 005a 43F04003 		orr	r3, r3, #64
 219 005e E360     		str	r3, [r4, #12]
 109:Drivers/STM32F4xx_HAL_Driver/Src/stm32f4xx_ll_usb.c **** 
 220              		.loc 1 109 5 is_stmt 1 view .LVU60
 109:Drivers/STM32F4xx_HAL_Driver/Src/stm32f4xx_ll_usb.c **** 
 221              		.loc 1 109 11 is_stmt 0 view .LVU61
 222 0060 2046     		mov	r0, r4
 223              	.LVL11:
 109:Drivers/STM32F4xx_HAL_Driver/Src/stm32f4xx_ll_usb.c **** 
 224              		.loc 1 109 11 view .LVU62
 225 0062 FFF7FEFF 		bl	USB_CoreReset
 226              	.LVL12:
 111:Drivers/STM32F4xx_HAL_Driver/Src/stm32f4xx_ll_usb.c ****     {
 227              		.loc 1 111 5 is_stmt 1 view .LVU63
 111:Drivers/STM32F4xx_HAL_Driver/Src/stm32f4xx_ll_usb.c ****     {
 228              		.loc 1 111 12 is_stmt 0 view .LVU64
 229 0066 9DF81530 		ldrb	r3, [sp, #21]	@ zero_extendqisi2
 111:Drivers/STM32F4xx_HAL_Driver/Src/stm32f4xx_ll_usb.c ****     {
 230              		.loc 1 111 8 view .LVU65
 231 006a 23B9     		cbnz	r3, .L12
 114:Drivers/STM32F4xx_HAL_Driver/Src/stm32f4xx_ll_usb.c ****     }
 232              		.loc 1 114 7 is_stmt 1 view .LVU66
 114:Drivers/STM32F4xx_HAL_Driver/Src/stm32f4xx_ll_usb.c ****     }
 233              		.loc 1 114 19 is_stmt 0 view .LVU67
 234 006c A36B     		ldr	r3, [r4, #56]
 235 006e 43F48033 		orr	r3, r3, #65536
 236 0072 A363     		str	r3, [r4, #56]
 237 0074 E3E7     		b	.L11
 238              	.L12:
ARM GAS  C:\Users\ashto\AppData\Local\Temp\ccdF3pho.s 			page 31


 119:Drivers/STM32F4xx_HAL_Driver/Src/stm32f4xx_ll_usb.c ****     }
 239              		.loc 1 119 7 is_stmt 1 view .LVU68
 119:Drivers/STM32F4xx_HAL_Driver/Src/stm32f4xx_ll_usb.c ****     }
 240              		.loc 1 119 19 is_stmt 0 view .LVU69
 241 0076 A36B     		ldr	r3, [r4, #56]
 242 0078 23F48033 		bic	r3, r3, #65536
 243 007c A363     		str	r3, [r4, #56]
 244 007e DEE7     		b	.L11
 245              	.L16:
 125:Drivers/STM32F4xx_HAL_Driver/Src/stm32f4xx_ll_usb.c ****     USBx->GAHBCFG |= USB_OTG_GAHBCFG_DMAEN;
 246              		.loc 1 125 5 is_stmt 1 view .LVU70
 125:Drivers/STM32F4xx_HAL_Driver/Src/stm32f4xx_ll_usb.c ****     USBx->GAHBCFG |= USB_OTG_GAHBCFG_DMAEN;
 247              		.loc 1 125 19 is_stmt 0 view .LVU71
 248 0080 A368     		ldr	r3, [r4, #8]
 249 0082 43F00603 		orr	r3, r3, #6
 250 0086 A360     		str	r3, [r4, #8]
 126:Drivers/STM32F4xx_HAL_Driver/Src/stm32f4xx_ll_usb.c ****   }
 251              		.loc 1 126 5 is_stmt 1 view .LVU72
 126:Drivers/STM32F4xx_HAL_Driver/Src/stm32f4xx_ll_usb.c ****   }
 252              		.loc 1 126 19 is_stmt 0 view .LVU73
 253 0088 A368     		ldr	r3, [r4, #8]
 254 008a 43F02003 		orr	r3, r3, #32
 255 008e A360     		str	r3, [r4, #8]
 256 0090 D9E7     		b	.L13
 257              		.cfi_endproc
 258              	.LFE134:
 260              		.section	.text.USB_SetTurnaroundTime,"ax",%progbits
 261              		.align	1
 262              		.global	USB_SetTurnaroundTime
 263              		.syntax unified
 264              		.thumb
 265              		.thumb_func
 267              	USB_SetTurnaroundTime:
 268              	.LVL13:
 269              	.LFB135:
 141:Drivers/STM32F4xx_HAL_Driver/Src/stm32f4xx_ll_usb.c ****   uint32_t UsbTrd;
 270              		.loc 1 141 1 is_stmt 1 view -0
 271              		.cfi_startproc
 272              		@ args = 0, pretend = 0, frame = 0
 273              		@ frame_needed = 0, uses_anonymous_args = 0
 274              		@ link register save eliminated.
 142:Drivers/STM32F4xx_HAL_Driver/Src/stm32f4xx_ll_usb.c **** 
 275              		.loc 1 142 3 view .LVU75
 148:Drivers/STM32F4xx_HAL_Driver/Src/stm32f4xx_ll_usb.c ****   {
 276              		.loc 1 148 3 view .LVU76
 148:Drivers/STM32F4xx_HAL_Driver/Src/stm32f4xx_ll_usb.c ****   {
 277              		.loc 1 148 6 is_stmt 0 view .LVU77
 278 0000 022A     		cmp	r2, #2
 279 0002 0AD0     		beq	.L29
 203:Drivers/STM32F4xx_HAL_Driver/Src/stm32f4xx_ll_usb.c ****   }
 280              		.loc 1 203 12 view .LVU78
 281 0004 0921     		movs	r1, #9
 282              	.LVL14:
 283              	.L18:
 210:Drivers/STM32F4xx_HAL_Driver/Src/stm32f4xx_ll_usb.c ****   USBx->GUSBCFG |= (uint32_t)((UsbTrd << 10) & USB_OTG_GUSBCFG_TRDT);
 284              		.loc 1 210 3 is_stmt 1 view .LVU79
 210:Drivers/STM32F4xx_HAL_Driver/Src/stm32f4xx_ll_usb.c ****   USBx->GUSBCFG |= (uint32_t)((UsbTrd << 10) & USB_OTG_GUSBCFG_TRDT);
ARM GAS  C:\Users\ashto\AppData\Local\Temp\ccdF3pho.s 			page 32


 285              		.loc 1 210 17 is_stmt 0 view .LVU80
 286 0006 C268     		ldr	r2, [r0, #12]
 287 0008 22F47052 		bic	r2, r2, #15360
 288 000c C260     		str	r2, [r0, #12]
 211:Drivers/STM32F4xx_HAL_Driver/Src/stm32f4xx_ll_usb.c **** 
 289              		.loc 1 211 3 is_stmt 1 view .LVU81
 211:Drivers/STM32F4xx_HAL_Driver/Src/stm32f4xx_ll_usb.c **** 
 290              		.loc 1 211 17 is_stmt 0 view .LVU82
 291 000e C368     		ldr	r3, [r0, #12]
 292 0010 43EA8123 		orr	r3, r3, r1, lsl #10
 293 0014 C360     		str	r3, [r0, #12]
 213:Drivers/STM32F4xx_HAL_Driver/Src/stm32f4xx_ll_usb.c **** }
 294              		.loc 1 213 3 is_stmt 1 view .LVU83
 214:Drivers/STM32F4xx_HAL_Driver/Src/stm32f4xx_ll_usb.c **** 
 295              		.loc 1 214 1 is_stmt 0 view .LVU84
 296 0016 0020     		movs	r0, #0
 297              	.LVL15:
 214:Drivers/STM32F4xx_HAL_Driver/Src/stm32f4xx_ll_usb.c **** 
 298              		.loc 1 214 1 view .LVU85
 299 0018 7047     		bx	lr
 300              	.LVL16:
 301              	.L29:
 150:Drivers/STM32F4xx_HAL_Driver/Src/stm32f4xx_ll_usb.c ****     {
 302              		.loc 1 150 5 is_stmt 1 view .LVU86
 150:Drivers/STM32F4xx_HAL_Driver/Src/stm32f4xx_ll_usb.c ****     {
 303              		.loc 1 150 29 is_stmt 0 view .LVU87
 304 001a 234B     		ldr	r3, .L30
 305 001c 0B44     		add	r3, r3, r1
 150:Drivers/STM32F4xx_HAL_Driver/Src/stm32f4xx_ll_usb.c ****     {
 306              		.loc 1 150 8 view .LVU88
 307 001e 234A     		ldr	r2, .L30+4
 308              	.LVL17:
 150:Drivers/STM32F4xx_HAL_Driver/Src/stm32f4xx_ll_usb.c ****     {
 309              		.loc 1 150 8 view .LVU89
 310 0020 9342     		cmp	r3, r2
 311 0022 2FD9     		bls	.L20
 155:Drivers/STM32F4xx_HAL_Driver/Src/stm32f4xx_ll_usb.c ****     {
 312              		.loc 1 155 10 is_stmt 1 view .LVU90
 155:Drivers/STM32F4xx_HAL_Driver/Src/stm32f4xx_ll_usb.c ****     {
 313              		.loc 1 155 34 is_stmt 0 view .LVU91
 314 0024 224B     		ldr	r3, .L30+8
 315 0026 0B44     		add	r3, r3, r1
 155:Drivers/STM32F4xx_HAL_Driver/Src/stm32f4xx_ll_usb.c ****     {
 316              		.loc 1 155 13 view .LVU92
 317 0028 224A     		ldr	r2, .L30+12
 318 002a 9342     		cmp	r3, r2
 319 002c 2CD9     		bls	.L21
 160:Drivers/STM32F4xx_HAL_Driver/Src/stm32f4xx_ll_usb.c ****     {
 320              		.loc 1 160 10 is_stmt 1 view .LVU93
 160:Drivers/STM32F4xx_HAL_Driver/Src/stm32f4xx_ll_usb.c ****     {
 321              		.loc 1 160 34 is_stmt 0 view .LVU94
 322 002e A1F57403 		sub	r3, r1, #15990784
 323 0032 A3F51053 		sub	r3, r3, #9216
 160:Drivers/STM32F4xx_HAL_Driver/Src/stm32f4xx_ll_usb.c ****     {
 324              		.loc 1 160 13 view .LVU95
 325 0036 204A     		ldr	r2, .L30+16
 326 0038 9342     		cmp	r3, r2
ARM GAS  C:\Users\ashto\AppData\Local\Temp\ccdF3pho.s 			page 33


 327 003a 27D9     		bls	.L22
 165:Drivers/STM32F4xx_HAL_Driver/Src/stm32f4xx_ll_usb.c ****     {
 328              		.loc 1 165 10 is_stmt 1 view .LVU96
 165:Drivers/STM32F4xx_HAL_Driver/Src/stm32f4xx_ll_usb.c ****     {
 329              		.loc 1 165 34 is_stmt 0 view .LVU97
 330 003c A1F18373 		sub	r3, r1, #17170432
 331 0040 A3F5E743 		sub	r3, r3, #29568
 165:Drivers/STM32F4xx_HAL_Driver/Src/stm32f4xx_ll_usb.c ****     {
 332              		.loc 1 165 13 view .LVU98
 333 0044 1D4A     		ldr	r2, .L30+20
 334 0046 9342     		cmp	r3, r2
 335 0048 22D3     		bcc	.L23
 170:Drivers/STM32F4xx_HAL_Driver/Src/stm32f4xx_ll_usb.c ****     {
 336              		.loc 1 170 10 is_stmt 1 view .LVU99
 170:Drivers/STM32F4xx_HAL_Driver/Src/stm32f4xx_ll_usb.c ****     {
 337              		.loc 1 170 34 is_stmt 0 view .LVU100
 338 004a 1D4B     		ldr	r3, .L30+24
 339 004c 0B44     		add	r3, r3, r1
 170:Drivers/STM32F4xx_HAL_Driver/Src/stm32f4xx_ll_usb.c ****     {
 340              		.loc 1 170 13 view .LVU101
 341 004e 1D4A     		ldr	r2, .L30+28
 342 0050 9342     		cmp	r3, r2
 343 0052 1FD9     		bls	.L24
 175:Drivers/STM32F4xx_HAL_Driver/Src/stm32f4xx_ll_usb.c ****     {
 344              		.loc 1 175 10 is_stmt 1 view .LVU102
 175:Drivers/STM32F4xx_HAL_Driver/Src/stm32f4xx_ll_usb.c ****     {
 345              		.loc 1 175 34 is_stmt 0 view .LVU103
 346 0054 1C4B     		ldr	r3, .L30+32
 347 0056 0B44     		add	r3, r3, r1
 175:Drivers/STM32F4xx_HAL_Driver/Src/stm32f4xx_ll_usb.c ****     {
 348              		.loc 1 175 13 view .LVU104
 349 0058 1C4A     		ldr	r2, .L30+36
 350 005a 9342     		cmp	r3, r2
 351 005c 1CD3     		bcc	.L25
 180:Drivers/STM32F4xx_HAL_Driver/Src/stm32f4xx_ll_usb.c ****     {
 352              		.loc 1 180 10 is_stmt 1 view .LVU105
 180:Drivers/STM32F4xx_HAL_Driver/Src/stm32f4xx_ll_usb.c ****     {
 353              		.loc 1 180 34 is_stmt 0 view .LVU106
 354 005e 1C4B     		ldr	r3, .L30+40
 355 0060 0B44     		add	r3, r3, r1
 180:Drivers/STM32F4xx_HAL_Driver/Src/stm32f4xx_ll_usb.c ****     {
 356              		.loc 1 180 13 view .LVU107
 357 0062 1C4A     		ldr	r2, .L30+44
 358 0064 9342     		cmp	r3, r2
 359 0066 19D3     		bcc	.L26
 185:Drivers/STM32F4xx_HAL_Driver/Src/stm32f4xx_ll_usb.c ****     {
 360              		.loc 1 185 10 is_stmt 1 view .LVU108
 185:Drivers/STM32F4xx_HAL_Driver/Src/stm32f4xx_ll_usb.c ****     {
 361              		.loc 1 185 34 is_stmt 0 view .LVU109
 362 0068 A1F1B773 		sub	r3, r1, #23986176
 363 006c A3F55853 		sub	r3, r3, #13824
 185:Drivers/STM32F4xx_HAL_Driver/Src/stm32f4xx_ll_usb.c ****     {
 364              		.loc 1 185 13 view .LVU110
 365 0070 194A     		ldr	r2, .L30+48
 366 0072 9342     		cmp	r3, r2
 367 0074 14D3     		bcc	.L27
 190:Drivers/STM32F4xx_HAL_Driver/Src/stm32f4xx_ll_usb.c ****     {
ARM GAS  C:\Users\ashto\AppData\Local\Temp\ccdF3pho.s 			page 34


 368              		.loc 1 190 10 is_stmt 1 view .LVU111
 190:Drivers/STM32F4xx_HAL_Driver/Src/stm32f4xx_ll_usb.c ****     {
 369              		.loc 1 190 34 is_stmt 0 view .LVU112
 370 0076 194B     		ldr	r3, .L30+52
 371 0078 0B44     		add	r3, r3, r1
 190:Drivers/STM32F4xx_HAL_Driver/Src/stm32f4xx_ll_usb.c ****     {
 372              		.loc 1 190 13 view .LVU113
 373 007a 194A     		ldr	r2, .L30+56
 374 007c 9342     		cmp	r3, r2
 375 007e 11D2     		bcs	.L28
 193:Drivers/STM32F4xx_HAL_Driver/Src/stm32f4xx_ll_usb.c ****     }
 376              		.loc 1 193 14 view .LVU114
 377 0080 0721     		movs	r1, #7
 378              	.LVL18:
 193:Drivers/STM32F4xx_HAL_Driver/Src/stm32f4xx_ll_usb.c ****     }
 379              		.loc 1 193 14 view .LVU115
 380 0082 C0E7     		b	.L18
 381              	.LVL19:
 382              	.L20:
 153:Drivers/STM32F4xx_HAL_Driver/Src/stm32f4xx_ll_usb.c ****     }
 383              		.loc 1 153 14 view .LVU116
 384 0084 0F21     		movs	r1, #15
 385              	.LVL20:
 153:Drivers/STM32F4xx_HAL_Driver/Src/stm32f4xx_ll_usb.c ****     }
 386              		.loc 1 153 14 view .LVU117
 387 0086 BEE7     		b	.L18
 388              	.LVL21:
 389              	.L21:
 158:Drivers/STM32F4xx_HAL_Driver/Src/stm32f4xx_ll_usb.c ****     }
 390              		.loc 1 158 14 view .LVU118
 391 0088 0E21     		movs	r1, #14
 392              	.LVL22:
 158:Drivers/STM32F4xx_HAL_Driver/Src/stm32f4xx_ll_usb.c ****     }
 393              		.loc 1 158 14 view .LVU119
 394 008a BCE7     		b	.L18
 395              	.LVL23:
 396              	.L22:
 163:Drivers/STM32F4xx_HAL_Driver/Src/stm32f4xx_ll_usb.c ****     }
 397              		.loc 1 163 14 view .LVU120
 398 008c 0D21     		movs	r1, #13
 399              	.LVL24:
 163:Drivers/STM32F4xx_HAL_Driver/Src/stm32f4xx_ll_usb.c ****     }
 400              		.loc 1 163 14 view .LVU121
 401 008e BAE7     		b	.L18
 402              	.LVL25:
 403              	.L23:
 168:Drivers/STM32F4xx_HAL_Driver/Src/stm32f4xx_ll_usb.c ****     }
 404              		.loc 1 168 14 view .LVU122
 405 0090 0C21     		movs	r1, #12
 406              	.LVL26:
 168:Drivers/STM32F4xx_HAL_Driver/Src/stm32f4xx_ll_usb.c ****     }
 407              		.loc 1 168 14 view .LVU123
 408 0092 B8E7     		b	.L18
 409              	.LVL27:
 410              	.L24:
 173:Drivers/STM32F4xx_HAL_Driver/Src/stm32f4xx_ll_usb.c ****     }
 411              		.loc 1 173 14 view .LVU124
ARM GAS  C:\Users\ashto\AppData\Local\Temp\ccdF3pho.s 			page 35


 412 0094 0B21     		movs	r1, #11
 413              	.LVL28:
 173:Drivers/STM32F4xx_HAL_Driver/Src/stm32f4xx_ll_usb.c ****     }
 414              		.loc 1 173 14 view .LVU125
 415 0096 B6E7     		b	.L18
 416              	.LVL29:
 417              	.L25:
 178:Drivers/STM32F4xx_HAL_Driver/Src/stm32f4xx_ll_usb.c ****     }
 418              		.loc 1 178 14 view .LVU126
 419 0098 0A21     		movs	r1, #10
 420              	.LVL30:
 178:Drivers/STM32F4xx_HAL_Driver/Src/stm32f4xx_ll_usb.c ****     }
 421              		.loc 1 178 14 view .LVU127
 422 009a B4E7     		b	.L18
 423              	.LVL31:
 424              	.L26:
 183:Drivers/STM32F4xx_HAL_Driver/Src/stm32f4xx_ll_usb.c ****     }
 425              		.loc 1 183 14 view .LVU128
 426 009c 0921     		movs	r1, #9
 427              	.LVL32:
 183:Drivers/STM32F4xx_HAL_Driver/Src/stm32f4xx_ll_usb.c ****     }
 428              		.loc 1 183 14 view .LVU129
 429 009e B2E7     		b	.L18
 430              	.LVL33:
 431              	.L27:
 188:Drivers/STM32F4xx_HAL_Driver/Src/stm32f4xx_ll_usb.c ****     }
 432              		.loc 1 188 14 view .LVU130
 433 00a0 0821     		movs	r1, #8
 434              	.LVL34:
 188:Drivers/STM32F4xx_HAL_Driver/Src/stm32f4xx_ll_usb.c ****     }
 435              		.loc 1 188 14 view .LVU131
 436 00a2 B0E7     		b	.L18
 437              	.LVL35:
 438              	.L28:
 198:Drivers/STM32F4xx_HAL_Driver/Src/stm32f4xx_ll_usb.c ****     }
 439              		.loc 1 198 14 view .LVU132
 440 00a4 0621     		movs	r1, #6
 441              	.LVL36:
 198:Drivers/STM32F4xx_HAL_Driver/Src/stm32f4xx_ll_usb.c ****     }
 442              		.loc 1 198 14 view .LVU133
 443 00a6 AEE7     		b	.L18
 444              	.L31:
 445              		.align	2
 446              	.L30:
 447 00a8 405327FF 		.word	-14200000
 448 00ac FF340C00 		.word	799999
 449 00b0 401E1BFF 		.word	-15000000
 450 00b4 3F420F00 		.word	999999
 451 00b8 7F4F1200 		.word	1199999
 452 00bc 20D61300 		.word	1300000
 453 00c0 60B6E5FE 		.word	-18500000
 454 00c4 5FE31600 		.word	1499999
 455 00c8 00D3CEFE 		.word	-20000000
 456 00cc 40771B00 		.word	1800000
 457 00d0 C05BB3FE 		.word	-21800000
 458 00d4 C0912100 		.word	2200000
 459 00d8 20753800 		.word	3700000
ARM GAS  C:\Users\ashto\AppData\Local\Temp\ccdF3pho.s 			page 36


 460 00dc E05459FE 		.word	-27700000
 461 00e0 E09C4100 		.word	4300000
 462              		.cfi_endproc
 463              	.LFE135:
 465              		.section	.text.USB_EnableGlobalInt,"ax",%progbits
 466              		.align	1
 467              		.global	USB_EnableGlobalInt
 468              		.syntax unified
 469              		.thumb
 470              		.thumb_func
 472              	USB_EnableGlobalInt:
 473              	.LVL37:
 474              	.LFB136:
 223:Drivers/STM32F4xx_HAL_Driver/Src/stm32f4xx_ll_usb.c ****   USBx->GAHBCFG |= USB_OTG_GAHBCFG_GINT;
 475              		.loc 1 223 1 is_stmt 1 view -0
 476              		.cfi_startproc
 477              		@ args = 0, pretend = 0, frame = 0
 478              		@ frame_needed = 0, uses_anonymous_args = 0
 479              		@ link register save eliminated.
 224:Drivers/STM32F4xx_HAL_Driver/Src/stm32f4xx_ll_usb.c ****   return HAL_OK;
 480              		.loc 1 224 3 view .LVU135
 224:Drivers/STM32F4xx_HAL_Driver/Src/stm32f4xx_ll_usb.c ****   return HAL_OK;
 481              		.loc 1 224 17 is_stmt 0 view .LVU136
 482 0000 8368     		ldr	r3, [r0, #8]
 483 0002 43F00103 		orr	r3, r3, #1
 484 0006 8360     		str	r3, [r0, #8]
 225:Drivers/STM32F4xx_HAL_Driver/Src/stm32f4xx_ll_usb.c **** }
 485              		.loc 1 225 3 is_stmt 1 view .LVU137
 226:Drivers/STM32F4xx_HAL_Driver/Src/stm32f4xx_ll_usb.c **** 
 486              		.loc 1 226 1 is_stmt 0 view .LVU138
 487 0008 0020     		movs	r0, #0
 488              	.LVL38:
 226:Drivers/STM32F4xx_HAL_Driver/Src/stm32f4xx_ll_usb.c **** 
 489              		.loc 1 226 1 view .LVU139
 490 000a 7047     		bx	lr
 491              		.cfi_endproc
 492              	.LFE136:
 494              		.section	.text.USB_DisableGlobalInt,"ax",%progbits
 495              		.align	1
 496              		.global	USB_DisableGlobalInt
 497              		.syntax unified
 498              		.thumb
 499              		.thumb_func
 501              	USB_DisableGlobalInt:
 502              	.LVL39:
 503              	.LFB137:
 235:Drivers/STM32F4xx_HAL_Driver/Src/stm32f4xx_ll_usb.c ****   USBx->GAHBCFG &= ~USB_OTG_GAHBCFG_GINT;
 504              		.loc 1 235 1 is_stmt 1 view -0
 505              		.cfi_startproc
 506              		@ args = 0, pretend = 0, frame = 0
 507              		@ frame_needed = 0, uses_anonymous_args = 0
 508              		@ link register save eliminated.
 236:Drivers/STM32F4xx_HAL_Driver/Src/stm32f4xx_ll_usb.c ****   return HAL_OK;
 509              		.loc 1 236 3 view .LVU141
 236:Drivers/STM32F4xx_HAL_Driver/Src/stm32f4xx_ll_usb.c ****   return HAL_OK;
 510              		.loc 1 236 17 is_stmt 0 view .LVU142
 511 0000 8368     		ldr	r3, [r0, #8]
ARM GAS  C:\Users\ashto\AppData\Local\Temp\ccdF3pho.s 			page 37


 512 0002 23F00103 		bic	r3, r3, #1
 513 0006 8360     		str	r3, [r0, #8]
 237:Drivers/STM32F4xx_HAL_Driver/Src/stm32f4xx_ll_usb.c **** }
 514              		.loc 1 237 3 is_stmt 1 view .LVU143
 238:Drivers/STM32F4xx_HAL_Driver/Src/stm32f4xx_ll_usb.c **** 
 515              		.loc 1 238 1 is_stmt 0 view .LVU144
 516 0008 0020     		movs	r0, #0
 517              	.LVL40:
 238:Drivers/STM32F4xx_HAL_Driver/Src/stm32f4xx_ll_usb.c **** 
 518              		.loc 1 238 1 view .LVU145
 519 000a 7047     		bx	lr
 520              		.cfi_endproc
 521              	.LFE137:
 523              		.section	.text.USB_FlushTxFifo,"ax",%progbits
 524              		.align	1
 525              		.global	USB_FlushTxFifo
 526              		.syntax unified
 527              		.thumb
 528              		.thumb_func
 530              	USB_FlushTxFifo:
 531              	.LVL41:
 532              	.LFB140:
 474:Drivers/STM32F4xx_HAL_Driver/Src/stm32f4xx_ll_usb.c ****   __IO uint32_t count = 0U;
 533              		.loc 1 474 1 is_stmt 1 view -0
 534              		.cfi_startproc
 535              		@ args = 0, pretend = 0, frame = 8
 536              		@ frame_needed = 0, uses_anonymous_args = 0
 537              		@ link register save eliminated.
 474:Drivers/STM32F4xx_HAL_Driver/Src/stm32f4xx_ll_usb.c ****   __IO uint32_t count = 0U;
 538              		.loc 1 474 1 is_stmt 0 view .LVU147
 539 0000 82B0     		sub	sp, sp, #8
 540              	.LCFI8:
 541              		.cfi_def_cfa_offset 8
 475:Drivers/STM32F4xx_HAL_Driver/Src/stm32f4xx_ll_usb.c **** 
 542              		.loc 1 475 3 is_stmt 1 view .LVU148
 475:Drivers/STM32F4xx_HAL_Driver/Src/stm32f4xx_ll_usb.c **** 
 543              		.loc 1 475 17 is_stmt 0 view .LVU149
 544 0002 0023     		movs	r3, #0
 545 0004 0193     		str	r3, [sp, #4]
 546              	.L36:
 478:Drivers/STM32F4xx_HAL_Driver/Src/stm32f4xx_ll_usb.c ****   {
 547              		.loc 1 478 3 is_stmt 1 view .LVU150
 480:Drivers/STM32F4xx_HAL_Driver/Src/stm32f4xx_ll_usb.c **** 
 548              		.loc 1 480 5 view .LVU151
 480:Drivers/STM32F4xx_HAL_Driver/Src/stm32f4xx_ll_usb.c **** 
 549              		.loc 1 480 10 is_stmt 0 view .LVU152
 550 0006 019B     		ldr	r3, [sp, #4]
 551 0008 0133     		adds	r3, r3, #1
 552 000a 0193     		str	r3, [sp, #4]
 482:Drivers/STM32F4xx_HAL_Driver/Src/stm32f4xx_ll_usb.c ****     {
 553              		.loc 1 482 5 is_stmt 1 view .LVU153
 482:Drivers/STM32F4xx_HAL_Driver/Src/stm32f4xx_ll_usb.c ****     {
 554              		.loc 1 482 15 is_stmt 0 view .LVU154
 555 000c 019B     		ldr	r3, [sp, #4]
 482:Drivers/STM32F4xx_HAL_Driver/Src/stm32f4xx_ll_usb.c ****     {
 556              		.loc 1 482 8 view .LVU155
 557 000e B3F1706F 		cmp	r3, #251658240
ARM GAS  C:\Users\ashto\AppData\Local\Temp\ccdF3pho.s 			page 38


 558 0012 15D8     		bhi	.L38
 486:Drivers/STM32F4xx_HAL_Driver/Src/stm32f4xx_ll_usb.c **** 
 559              		.loc 1 486 11 is_stmt 1 view .LVU156
 486:Drivers/STM32F4xx_HAL_Driver/Src/stm32f4xx_ll_usb.c **** 
 560              		.loc 1 486 17 is_stmt 0 view .LVU157
 561 0014 0369     		ldr	r3, [r0, #16]
 486:Drivers/STM32F4xx_HAL_Driver/Src/stm32f4xx_ll_usb.c **** 
 562              		.loc 1 486 3 view .LVU158
 563 0016 002B     		cmp	r3, #0
 564 0018 F5DA     		bge	.L36
 489:Drivers/STM32F4xx_HAL_Driver/Src/stm32f4xx_ll_usb.c ****   USBx->GRSTCTL = (USB_OTG_GRSTCTL_TXFFLSH | (num << 6));
 565              		.loc 1 489 3 is_stmt 1 view .LVU159
 489:Drivers/STM32F4xx_HAL_Driver/Src/stm32f4xx_ll_usb.c ****   USBx->GRSTCTL = (USB_OTG_GRSTCTL_TXFFLSH | (num << 6));
 566              		.loc 1 489 9 is_stmt 0 view .LVU160
 567 001a 0023     		movs	r3, #0
 568 001c 0193     		str	r3, [sp, #4]
 490:Drivers/STM32F4xx_HAL_Driver/Src/stm32f4xx_ll_usb.c **** 
 569              		.loc 1 490 3 is_stmt 1 view .LVU161
 490:Drivers/STM32F4xx_HAL_Driver/Src/stm32f4xx_ll_usb.c **** 
 570              		.loc 1 490 51 is_stmt 0 view .LVU162
 571 001e 8901     		lsls	r1, r1, #6
 572              	.LVL42:
 490:Drivers/STM32F4xx_HAL_Driver/Src/stm32f4xx_ll_usb.c **** 
 573              		.loc 1 490 44 view .LVU163
 574 0020 41F02001 		orr	r1, r1, #32
 490:Drivers/STM32F4xx_HAL_Driver/Src/stm32f4xx_ll_usb.c **** 
 575              		.loc 1 490 17 view .LVU164
 576 0024 0161     		str	r1, [r0, #16]
 577              	.L37:
 492:Drivers/STM32F4xx_HAL_Driver/Src/stm32f4xx_ll_usb.c ****   {
 578              		.loc 1 492 3 is_stmt 1 view .LVU165
 494:Drivers/STM32F4xx_HAL_Driver/Src/stm32f4xx_ll_usb.c **** 
 579              		.loc 1 494 5 view .LVU166
 494:Drivers/STM32F4xx_HAL_Driver/Src/stm32f4xx_ll_usb.c **** 
 580              		.loc 1 494 10 is_stmt 0 view .LVU167
 581 0026 019B     		ldr	r3, [sp, #4]
 582 0028 0133     		adds	r3, r3, #1
 583 002a 0193     		str	r3, [sp, #4]
 496:Drivers/STM32F4xx_HAL_Driver/Src/stm32f4xx_ll_usb.c ****     {
 584              		.loc 1 496 5 is_stmt 1 view .LVU168
 496:Drivers/STM32F4xx_HAL_Driver/Src/stm32f4xx_ll_usb.c ****     {
 585              		.loc 1 496 15 is_stmt 0 view .LVU169
 586 002c 019B     		ldr	r3, [sp, #4]
 496:Drivers/STM32F4xx_HAL_Driver/Src/stm32f4xx_ll_usb.c ****     {
 587              		.loc 1 496 8 view .LVU170
 588 002e B3F1706F 		cmp	r3, #251658240
 589 0032 08D8     		bhi	.L39
 500:Drivers/STM32F4xx_HAL_Driver/Src/stm32f4xx_ll_usb.c **** 
 590              		.loc 1 500 11 is_stmt 1 view .LVU171
 500:Drivers/STM32F4xx_HAL_Driver/Src/stm32f4xx_ll_usb.c **** 
 591              		.loc 1 500 17 is_stmt 0 view .LVU172
 592 0034 0369     		ldr	r3, [r0, #16]
 500:Drivers/STM32F4xx_HAL_Driver/Src/stm32f4xx_ll_usb.c **** 
 593              		.loc 1 500 3 view .LVU173
 594 0036 13F0200F 		tst	r3, #32
 595 003a F4D1     		bne	.L37
 502:Drivers/STM32F4xx_HAL_Driver/Src/stm32f4xx_ll_usb.c **** }
ARM GAS  C:\Users\ashto\AppData\Local\Temp\ccdF3pho.s 			page 39


 596              		.loc 1 502 10 view .LVU174
 597 003c 0020     		movs	r0, #0
 598              	.LVL43:
 502:Drivers/STM32F4xx_HAL_Driver/Src/stm32f4xx_ll_usb.c **** }
 599              		.loc 1 502 10 view .LVU175
 600 003e 00E0     		b	.L35
 601              	.LVL44:
 602              	.L38:
 484:Drivers/STM32F4xx_HAL_Driver/Src/stm32f4xx_ll_usb.c ****     }
 603              		.loc 1 484 14 view .LVU176
 604 0040 0320     		movs	r0, #3
 605              	.LVL45:
 606              	.L35:
 503:Drivers/STM32F4xx_HAL_Driver/Src/stm32f4xx_ll_usb.c **** 
 607              		.loc 1 503 1 view .LVU177
 608 0042 02B0     		add	sp, sp, #8
 609              	.LCFI9:
 610              		.cfi_remember_state
 611              		.cfi_def_cfa_offset 0
 612              		@ sp needed
 613 0044 7047     		bx	lr
 614              	.LVL46:
 615              	.L39:
 616              	.LCFI10:
 617              		.cfi_restore_state
 498:Drivers/STM32F4xx_HAL_Driver/Src/stm32f4xx_ll_usb.c ****     }
 618              		.loc 1 498 14 view .LVU178
 619 0046 0320     		movs	r0, #3
 620              	.LVL47:
 498:Drivers/STM32F4xx_HAL_Driver/Src/stm32f4xx_ll_usb.c ****     }
 621              		.loc 1 498 14 view .LVU179
 622 0048 FBE7     		b	.L35
 623              		.cfi_endproc
 624              	.LFE140:
 626              		.section	.text.USB_FlushRxFifo,"ax",%progbits
 627              		.align	1
 628              		.global	USB_FlushRxFifo
 629              		.syntax unified
 630              		.thumb
 631              		.thumb_func
 633              	USB_FlushRxFifo:
 634              	.LVL48:
 635              	.LFB141:
 511:Drivers/STM32F4xx_HAL_Driver/Src/stm32f4xx_ll_usb.c ****   __IO uint32_t count = 0U;
 636              		.loc 1 511 1 is_stmt 1 view -0
 637              		.cfi_startproc
 638              		@ args = 0, pretend = 0, frame = 8
 639              		@ frame_needed = 0, uses_anonymous_args = 0
 640              		@ link register save eliminated.
 511:Drivers/STM32F4xx_HAL_Driver/Src/stm32f4xx_ll_usb.c ****   __IO uint32_t count = 0U;
 641              		.loc 1 511 1 is_stmt 0 view .LVU181
 642 0000 82B0     		sub	sp, sp, #8
 643              	.LCFI11:
 644              		.cfi_def_cfa_offset 8
 512:Drivers/STM32F4xx_HAL_Driver/Src/stm32f4xx_ll_usb.c **** 
 645              		.loc 1 512 3 is_stmt 1 view .LVU182
 512:Drivers/STM32F4xx_HAL_Driver/Src/stm32f4xx_ll_usb.c **** 
ARM GAS  C:\Users\ashto\AppData\Local\Temp\ccdF3pho.s 			page 40


 646              		.loc 1 512 17 is_stmt 0 view .LVU183
 647 0002 0023     		movs	r3, #0
 648 0004 0193     		str	r3, [sp, #4]
 649              	.L43:
 515:Drivers/STM32F4xx_HAL_Driver/Src/stm32f4xx_ll_usb.c ****   {
 650              		.loc 1 515 3 is_stmt 1 view .LVU184
 517:Drivers/STM32F4xx_HAL_Driver/Src/stm32f4xx_ll_usb.c **** 
 651              		.loc 1 517 5 view .LVU185
 517:Drivers/STM32F4xx_HAL_Driver/Src/stm32f4xx_ll_usb.c **** 
 652              		.loc 1 517 10 is_stmt 0 view .LVU186
 653 0006 019B     		ldr	r3, [sp, #4]
 654 0008 0133     		adds	r3, r3, #1
 655 000a 0193     		str	r3, [sp, #4]
 519:Drivers/STM32F4xx_HAL_Driver/Src/stm32f4xx_ll_usb.c ****     {
 656              		.loc 1 519 5 is_stmt 1 view .LVU187
 519:Drivers/STM32F4xx_HAL_Driver/Src/stm32f4xx_ll_usb.c ****     {
 657              		.loc 1 519 15 is_stmt 0 view .LVU188
 658 000c 019B     		ldr	r3, [sp, #4]
 519:Drivers/STM32F4xx_HAL_Driver/Src/stm32f4xx_ll_usb.c ****     {
 659              		.loc 1 519 8 view .LVU189
 660 000e B3F1706F 		cmp	r3, #251658240
 661 0012 13D8     		bhi	.L45
 523:Drivers/STM32F4xx_HAL_Driver/Src/stm32f4xx_ll_usb.c **** 
 662              		.loc 1 523 11 is_stmt 1 view .LVU190
 523:Drivers/STM32F4xx_HAL_Driver/Src/stm32f4xx_ll_usb.c **** 
 663              		.loc 1 523 17 is_stmt 0 view .LVU191
 664 0014 0369     		ldr	r3, [r0, #16]
 523:Drivers/STM32F4xx_HAL_Driver/Src/stm32f4xx_ll_usb.c **** 
 665              		.loc 1 523 3 view .LVU192
 666 0016 002B     		cmp	r3, #0
 667 0018 F5DA     		bge	.L43
 526:Drivers/STM32F4xx_HAL_Driver/Src/stm32f4xx_ll_usb.c ****   USBx->GRSTCTL = USB_OTG_GRSTCTL_RXFFLSH;
 668              		.loc 1 526 3 is_stmt 1 view .LVU193
 526:Drivers/STM32F4xx_HAL_Driver/Src/stm32f4xx_ll_usb.c ****   USBx->GRSTCTL = USB_OTG_GRSTCTL_RXFFLSH;
 669              		.loc 1 526 9 is_stmt 0 view .LVU194
 670 001a 0023     		movs	r3, #0
 671 001c 0193     		str	r3, [sp, #4]
 527:Drivers/STM32F4xx_HAL_Driver/Src/stm32f4xx_ll_usb.c **** 
 672              		.loc 1 527 3 is_stmt 1 view .LVU195
 527:Drivers/STM32F4xx_HAL_Driver/Src/stm32f4xx_ll_usb.c **** 
 673              		.loc 1 527 17 is_stmt 0 view .LVU196
 674 001e 1023     		movs	r3, #16
 675 0020 0361     		str	r3, [r0, #16]
 676              	.L44:
 529:Drivers/STM32F4xx_HAL_Driver/Src/stm32f4xx_ll_usb.c ****   {
 677              		.loc 1 529 3 is_stmt 1 view .LVU197
 531:Drivers/STM32F4xx_HAL_Driver/Src/stm32f4xx_ll_usb.c **** 
 678              		.loc 1 531 5 view .LVU198
 531:Drivers/STM32F4xx_HAL_Driver/Src/stm32f4xx_ll_usb.c **** 
 679              		.loc 1 531 10 is_stmt 0 view .LVU199
 680 0022 019B     		ldr	r3, [sp, #4]
 681 0024 0133     		adds	r3, r3, #1
 682 0026 0193     		str	r3, [sp, #4]
 533:Drivers/STM32F4xx_HAL_Driver/Src/stm32f4xx_ll_usb.c ****     {
 683              		.loc 1 533 5 is_stmt 1 view .LVU200
 533:Drivers/STM32F4xx_HAL_Driver/Src/stm32f4xx_ll_usb.c ****     {
 684              		.loc 1 533 15 is_stmt 0 view .LVU201
ARM GAS  C:\Users\ashto\AppData\Local\Temp\ccdF3pho.s 			page 41


 685 0028 019B     		ldr	r3, [sp, #4]
 533:Drivers/STM32F4xx_HAL_Driver/Src/stm32f4xx_ll_usb.c ****     {
 686              		.loc 1 533 8 view .LVU202
 687 002a B3F1706F 		cmp	r3, #251658240
 688 002e 08D8     		bhi	.L46
 537:Drivers/STM32F4xx_HAL_Driver/Src/stm32f4xx_ll_usb.c **** 
 689              		.loc 1 537 11 is_stmt 1 view .LVU203
 537:Drivers/STM32F4xx_HAL_Driver/Src/stm32f4xx_ll_usb.c **** 
 690              		.loc 1 537 17 is_stmt 0 view .LVU204
 691 0030 0369     		ldr	r3, [r0, #16]
 537:Drivers/STM32F4xx_HAL_Driver/Src/stm32f4xx_ll_usb.c **** 
 692              		.loc 1 537 3 view .LVU205
 693 0032 13F0100F 		tst	r3, #16
 694 0036 F4D1     		bne	.L44
 539:Drivers/STM32F4xx_HAL_Driver/Src/stm32f4xx_ll_usb.c **** }
 695              		.loc 1 539 10 view .LVU206
 696 0038 0020     		movs	r0, #0
 697              	.LVL49:
 539:Drivers/STM32F4xx_HAL_Driver/Src/stm32f4xx_ll_usb.c **** }
 698              		.loc 1 539 10 view .LVU207
 699 003a 00E0     		b	.L42
 700              	.LVL50:
 701              	.L45:
 521:Drivers/STM32F4xx_HAL_Driver/Src/stm32f4xx_ll_usb.c ****     }
 702              		.loc 1 521 14 view .LVU208
 703 003c 0320     		movs	r0, #3
 704              	.LVL51:
 705              	.L42:
 540:Drivers/STM32F4xx_HAL_Driver/Src/stm32f4xx_ll_usb.c **** 
 706              		.loc 1 540 1 view .LVU209
 707 003e 02B0     		add	sp, sp, #8
 708              	.LCFI12:
 709              		.cfi_remember_state
 710              		.cfi_def_cfa_offset 0
 711              		@ sp needed
 712 0040 7047     		bx	lr
 713              	.LVL52:
 714              	.L46:
 715              	.LCFI13:
 716              		.cfi_restore_state
 535:Drivers/STM32F4xx_HAL_Driver/Src/stm32f4xx_ll_usb.c ****     }
 717              		.loc 1 535 14 view .LVU210
 718 0042 0320     		movs	r0, #3
 719              	.LVL53:
 535:Drivers/STM32F4xx_HAL_Driver/Src/stm32f4xx_ll_usb.c ****     }
 720              		.loc 1 535 14 view .LVU211
 721 0044 FBE7     		b	.L42
 722              		.cfi_endproc
 723              	.LFE141:
 725              		.section	.text.USB_SetDevSpeed,"ax",%progbits
 726              		.align	1
 727              		.global	USB_SetDevSpeed
 728              		.syntax unified
 729              		.thumb
 730              		.thumb_func
 732              	USB_SetDevSpeed:
 733              	.LVL54:
ARM GAS  C:\Users\ashto\AppData\Local\Temp\ccdF3pho.s 			page 42


 734              	.LFB142:
 554:Drivers/STM32F4xx_HAL_Driver/Src/stm32f4xx_ll_usb.c ****   uint32_t USBx_BASE = (uint32_t)USBx;
 735              		.loc 1 554 1 is_stmt 1 view -0
 736              		.cfi_startproc
 737              		@ args = 0, pretend = 0, frame = 0
 738              		@ frame_needed = 0, uses_anonymous_args = 0
 739              		@ link register save eliminated.
 555:Drivers/STM32F4xx_HAL_Driver/Src/stm32f4xx_ll_usb.c **** 
 740              		.loc 1 555 3 view .LVU213
 557:Drivers/STM32F4xx_HAL_Driver/Src/stm32f4xx_ll_usb.c ****   return HAL_OK;
 741              		.loc 1 557 3 view .LVU214
 557:Drivers/STM32F4xx_HAL_Driver/Src/stm32f4xx_ll_usb.c ****   return HAL_OK;
 742              		.loc 1 557 21 is_stmt 0 view .LVU215
 743 0000 D0F80038 		ldr	r3, [r0, #2048]
 744 0004 1943     		orrs	r1, r1, r3
 745              	.LVL55:
 557:Drivers/STM32F4xx_HAL_Driver/Src/stm32f4xx_ll_usb.c ****   return HAL_OK;
 746              		.loc 1 557 21 view .LVU216
 747 0006 C0F80018 		str	r1, [r0, #2048]
 558:Drivers/STM32F4xx_HAL_Driver/Src/stm32f4xx_ll_usb.c **** }
 748              		.loc 1 558 3 is_stmt 1 view .LVU217
 559:Drivers/STM32F4xx_HAL_Driver/Src/stm32f4xx_ll_usb.c **** 
 749              		.loc 1 559 1 is_stmt 0 view .LVU218
 750 000a 0020     		movs	r0, #0
 751              	.LVL56:
 559:Drivers/STM32F4xx_HAL_Driver/Src/stm32f4xx_ll_usb.c **** 
 752              		.loc 1 559 1 view .LVU219
 753 000c 7047     		bx	lr
 754              		.cfi_endproc
 755              	.LFE142:
 757              		.section	.text.USB_DevInit,"ax",%progbits
 758              		.align	1
 759              		.global	USB_DevInit
 760              		.syntax unified
 761              		.thumb
 762              		.thumb_func
 764              	USB_DevInit:
 765              	.LVL57:
 766              	.LFB139:
 297:Drivers/STM32F4xx_HAL_Driver/Src/stm32f4xx_ll_usb.c ****   HAL_StatusTypeDef ret = HAL_OK;
 767              		.loc 1 297 1 is_stmt 1 view -0
 768              		.cfi_startproc
 769              		@ args = 20, pretend = 16, frame = 0
 770              		@ frame_needed = 0, uses_anonymous_args = 0
 297:Drivers/STM32F4xx_HAL_Driver/Src/stm32f4xx_ll_usb.c ****   HAL_StatusTypeDef ret = HAL_OK;
 771              		.loc 1 297 1 is_stmt 0 view .LVU221
 772 0000 84B0     		sub	sp, sp, #16
 773              	.LCFI14:
 774              		.cfi_def_cfa_offset 16
 775 0002 F8B5     		push	{r3, r4, r5, r6, r7, lr}
 776              	.LCFI15:
 777              		.cfi_def_cfa_offset 40
 778              		.cfi_offset 3, -40
 779              		.cfi_offset 4, -36
 780              		.cfi_offset 5, -32
 781              		.cfi_offset 6, -28
 782              		.cfi_offset 7, -24
ARM GAS  C:\Users\ashto\AppData\Local\Temp\ccdF3pho.s 			page 43


 783              		.cfi_offset 14, -20
 784 0004 0446     		mov	r4, r0
 785 0006 07A8     		add	r0, sp, #28
 786 0008 80E80E00 		stm	r0, {r1, r2, r3}
 298:Drivers/STM32F4xx_HAL_Driver/Src/stm32f4xx_ll_usb.c ****   uint32_t USBx_BASE = (uint32_t)USBx;
 787              		.loc 1 298 3 is_stmt 1 view .LVU222
 788              	.LVL58:
 299:Drivers/STM32F4xx_HAL_Driver/Src/stm32f4xx_ll_usb.c ****   uint32_t i;
 789              		.loc 1 299 3 view .LVU223
 300:Drivers/STM32F4xx_HAL_Driver/Src/stm32f4xx_ll_usb.c **** 
 790              		.loc 1 300 3 view .LVU224
 302:Drivers/STM32F4xx_HAL_Driver/Src/stm32f4xx_ll_usb.c ****   {
 791              		.loc 1 302 3 view .LVU225
 302:Drivers/STM32F4xx_HAL_Driver/Src/stm32f4xx_ll_usb.c ****   {
 792              		.loc 1 302 10 is_stmt 0 view .LVU226
 793 000c 0023     		movs	r3, #0
 302:Drivers/STM32F4xx_HAL_Driver/Src/stm32f4xx_ll_usb.c ****   {
 794              		.loc 1 302 3 view .LVU227
 795 000e 06E0     		b	.L50
 796              	.LVL59:
 797              	.L51:
 304:Drivers/STM32F4xx_HAL_Driver/Src/stm32f4xx_ll_usb.c ****   }
 798              		.loc 1 304 5 is_stmt 1 discriminator 3 view .LVU228
 304:Drivers/STM32F4xx_HAL_Driver/Src/stm32f4xx_ll_usb.c ****   }
 799              		.loc 1 304 22 is_stmt 0 discriminator 3 view .LVU229
 800 0010 03F14002 		add	r2, r3, #64
 801 0014 04EB8202 		add	r2, r4, r2, lsl #2
 802 0018 0021     		movs	r1, #0
 803 001a 5160     		str	r1, [r2, #4]
 302:Drivers/STM32F4xx_HAL_Driver/Src/stm32f4xx_ll_usb.c ****   {
 804              		.loc 1 302 25 is_stmt 1 discriminator 3 view .LVU230
 302:Drivers/STM32F4xx_HAL_Driver/Src/stm32f4xx_ll_usb.c ****   {
 805              		.loc 1 302 26 is_stmt 0 discriminator 3 view .LVU231
 806 001c 0133     		adds	r3, r3, #1
 807              	.LVL60:
 808              	.L50:
 302:Drivers/STM32F4xx_HAL_Driver/Src/stm32f4xx_ll_usb.c ****   {
 809              		.loc 1 302 16 is_stmt 1 discriminator 1 view .LVU232
 302:Drivers/STM32F4xx_HAL_Driver/Src/stm32f4xx_ll_usb.c ****   {
 810              		.loc 1 302 3 is_stmt 0 discriminator 1 view .LVU233
 811 001e 0E2B     		cmp	r3, #14
 812 0020 F6D9     		bls	.L51
 329:Drivers/STM32F4xx_HAL_Driver/Src/stm32f4xx_ll_usb.c ****   {
 813              		.loc 1 329 3 is_stmt 1 view .LVU234
 329:Drivers/STM32F4xx_HAL_Driver/Src/stm32f4xx_ll_usb.c ****   {
 814              		.loc 1 329 10 is_stmt 0 view .LVU235
 815 0022 9DF82660 		ldrb	r6, [sp, #38]	@ zero_extendqisi2
 329:Drivers/STM32F4xx_HAL_Driver/Src/stm32f4xx_ll_usb.c ****   {
 816              		.loc 1 329 6 view .LVU236
 817 0026 06BB     		cbnz	r6, .L52
 335:Drivers/STM32F4xx_HAL_Driver/Src/stm32f4xx_ll_usb.c ****     USBx->GCCFG |= USB_OTG_GCCFG_NOVBUSSENS;
 818              		.loc 1 335 5 is_stmt 1 view .LVU237
 335:Drivers/STM32F4xx_HAL_Driver/Src/stm32f4xx_ll_usb.c ****     USBx->GCCFG |= USB_OTG_GCCFG_NOVBUSSENS;
 819              		.loc 1 335 23 is_stmt 0 view .LVU238
 820 0028 D4F80438 		ldr	r3, [r4, #2052]
 821              	.LVL61:
 335:Drivers/STM32F4xx_HAL_Driver/Src/stm32f4xx_ll_usb.c ****     USBx->GCCFG |= USB_OTG_GCCFG_NOVBUSSENS;
ARM GAS  C:\Users\ashto\AppData\Local\Temp\ccdF3pho.s 			page 44


 822              		.loc 1 335 23 view .LVU239
 823 002c 43F00203 		orr	r3, r3, #2
 824 0030 C4F80438 		str	r3, [r4, #2052]
 336:Drivers/STM32F4xx_HAL_Driver/Src/stm32f4xx_ll_usb.c ****     USBx->GCCFG &= ~USB_OTG_GCCFG_VBUSBSEN;
 825              		.loc 1 336 5 is_stmt 1 view .LVU240
 336:Drivers/STM32F4xx_HAL_Driver/Src/stm32f4xx_ll_usb.c ****     USBx->GCCFG &= ~USB_OTG_GCCFG_VBUSBSEN;
 826              		.loc 1 336 17 is_stmt 0 view .LVU241
 827 0034 A36B     		ldr	r3, [r4, #56]
 828 0036 43F40013 		orr	r3, r3, #2097152
 829 003a A363     		str	r3, [r4, #56]
 337:Drivers/STM32F4xx_HAL_Driver/Src/stm32f4xx_ll_usb.c ****     USBx->GCCFG &= ~USB_OTG_GCCFG_VBUSASEN;
 830              		.loc 1 337 5 is_stmt 1 view .LVU242
 337:Drivers/STM32F4xx_HAL_Driver/Src/stm32f4xx_ll_usb.c ****     USBx->GCCFG &= ~USB_OTG_GCCFG_VBUSASEN;
 831              		.loc 1 337 17 is_stmt 0 view .LVU243
 832 003c A36B     		ldr	r3, [r4, #56]
 833 003e 23F40023 		bic	r3, r3, #524288
 834 0042 A363     		str	r3, [r4, #56]
 338:Drivers/STM32F4xx_HAL_Driver/Src/stm32f4xx_ll_usb.c ****   }
 835              		.loc 1 338 5 is_stmt 1 view .LVU244
 338:Drivers/STM32F4xx_HAL_Driver/Src/stm32f4xx_ll_usb.c ****   }
 836              		.loc 1 338 17 is_stmt 0 view .LVU245
 837 0044 A36B     		ldr	r3, [r4, #56]
 838 0046 23F48023 		bic	r3, r3, #262144
 839 004a A363     		str	r3, [r4, #56]
 840              	.L53:
 351:Drivers/STM32F4xx_HAL_Driver/Src/stm32f4xx_ll_usb.c **** 
 841              		.loc 1 351 3 is_stmt 1 view .LVU246
 351:Drivers/STM32F4xx_HAL_Driver/Src/stm32f4xx_ll_usb.c **** 
 842              		.loc 1 351 16 is_stmt 0 view .LVU247
 843 004c 0023     		movs	r3, #0
 844 004e C4F8003E 		str	r3, [r4, #3584]
 353:Drivers/STM32F4xx_HAL_Driver/Src/stm32f4xx_ll_usb.c ****   {
 845              		.loc 1 353 3 is_stmt 1 view .LVU248
 353:Drivers/STM32F4xx_HAL_Driver/Src/stm32f4xx_ll_usb.c ****   {
 846              		.loc 1 353 10 is_stmt 0 view .LVU249
 847 0052 9DF82130 		ldrb	r3, [sp, #33]	@ zero_extendqisi2
 353:Drivers/STM32F4xx_HAL_Driver/Src/stm32f4xx_ll_usb.c ****   {
 848              		.loc 1 353 6 view .LVU250
 849 0056 012B     		cmp	r3, #1
 850 0058 15D1     		bne	.L54
 355:Drivers/STM32F4xx_HAL_Driver/Src/stm32f4xx_ll_usb.c ****     {
 851              		.loc 1 355 5 is_stmt 1 view .LVU251
 355:Drivers/STM32F4xx_HAL_Driver/Src/stm32f4xx_ll_usb.c ****     {
 852              		.loc 1 355 12 is_stmt 0 view .LVU252
 853 005a 9DF81F30 		ldrb	r3, [sp, #31]	@ zero_extendqisi2
 355:Drivers/STM32F4xx_HAL_Driver/Src/stm32f4xx_ll_usb.c ****     {
 854              		.loc 1 355 8 view .LVU253
 855 005e 6BB9     		cbnz	r3, .L55
 358:Drivers/STM32F4xx_HAL_Driver/Src/stm32f4xx_ll_usb.c ****     }
 856              		.loc 1 358 7 is_stmt 1 view .LVU254
 358:Drivers/STM32F4xx_HAL_Driver/Src/stm32f4xx_ll_usb.c ****     }
 857              		.loc 1 358 13 is_stmt 0 view .LVU255
 858 0060 0021     		movs	r1, #0
 859 0062 2046     		mov	r0, r4
 860              	.LVL62:
 358:Drivers/STM32F4xx_HAL_Driver/Src/stm32f4xx_ll_usb.c ****     }
 861              		.loc 1 358 13 view .LVU256
ARM GAS  C:\Users\ashto\AppData\Local\Temp\ccdF3pho.s 			page 45


 862 0064 FFF7FEFF 		bl	USB_SetDevSpeed
 863              	.LVL63:
 864 0068 11E0     		b	.L56
 865              	.LVL64:
 866              	.L52:
 343:Drivers/STM32F4xx_HAL_Driver/Src/stm32f4xx_ll_usb.c ****     USBx->GCCFG |= USB_OTG_GCCFG_VBUSBSEN;
 867              		.loc 1 343 5 is_stmt 1 view .LVU257
 343:Drivers/STM32F4xx_HAL_Driver/Src/stm32f4xx_ll_usb.c ****     USBx->GCCFG |= USB_OTG_GCCFG_VBUSBSEN;
 868              		.loc 1 343 17 is_stmt 0 view .LVU258
 869 006a A36B     		ldr	r3, [r4, #56]
 870              	.LVL65:
 343:Drivers/STM32F4xx_HAL_Driver/Src/stm32f4xx_ll_usb.c ****     USBx->GCCFG |= USB_OTG_GCCFG_VBUSBSEN;
 871              		.loc 1 343 17 view .LVU259
 872 006c 23F40013 		bic	r3, r3, #2097152
 873 0070 A363     		str	r3, [r4, #56]
 344:Drivers/STM32F4xx_HAL_Driver/Src/stm32f4xx_ll_usb.c ****   }
 874              		.loc 1 344 5 is_stmt 1 view .LVU260
 344:Drivers/STM32F4xx_HAL_Driver/Src/stm32f4xx_ll_usb.c ****   }
 875              		.loc 1 344 17 is_stmt 0 view .LVU261
 876 0072 A36B     		ldr	r3, [r4, #56]
 877 0074 43F40023 		orr	r3, r3, #524288
 878 0078 A363     		str	r3, [r4, #56]
 879 007a E7E7     		b	.L53
 880              	.L55:
 363:Drivers/STM32F4xx_HAL_Driver/Src/stm32f4xx_ll_usb.c ****     }
 881              		.loc 1 363 7 is_stmt 1 view .LVU262
 363:Drivers/STM32F4xx_HAL_Driver/Src/stm32f4xx_ll_usb.c ****     }
 882              		.loc 1 363 13 is_stmt 0 view .LVU263
 883 007c 0121     		movs	r1, #1
 884 007e 2046     		mov	r0, r4
 885              	.LVL66:
 363:Drivers/STM32F4xx_HAL_Driver/Src/stm32f4xx_ll_usb.c ****     }
 886              		.loc 1 363 13 view .LVU264
 887 0080 FFF7FEFF 		bl	USB_SetDevSpeed
 888              	.LVL67:
 889 0084 03E0     		b	.L56
 890              	.LVL68:
 891              	.L54:
 369:Drivers/STM32F4xx_HAL_Driver/Src/stm32f4xx_ll_usb.c ****   }
 892              		.loc 1 369 5 is_stmt 1 view .LVU265
 369:Drivers/STM32F4xx_HAL_Driver/Src/stm32f4xx_ll_usb.c ****   }
 893              		.loc 1 369 11 is_stmt 0 view .LVU266
 894 0086 0321     		movs	r1, #3
 895 0088 2046     		mov	r0, r4
 896              	.LVL69:
 369:Drivers/STM32F4xx_HAL_Driver/Src/stm32f4xx_ll_usb.c ****   }
 897              		.loc 1 369 11 view .LVU267
 898 008a FFF7FEFF 		bl	USB_SetDevSpeed
 899              	.LVL70:
 900              	.L56:
 373:Drivers/STM32F4xx_HAL_Driver/Src/stm32f4xx_ll_usb.c ****   {
 901              		.loc 1 373 3 is_stmt 1 view .LVU268
 373:Drivers/STM32F4xx_HAL_Driver/Src/stm32f4xx_ll_usb.c ****   {
 902              		.loc 1 373 7 is_stmt 0 view .LVU269
 903 008e 1021     		movs	r1, #16
 904 0090 2046     		mov	r0, r4
 905 0092 FFF7FEFF 		bl	USB_FlushTxFifo
ARM GAS  C:\Users\ashto\AppData\Local\Temp\ccdF3pho.s 			page 46


 906              	.LVL71:
 373:Drivers/STM32F4xx_HAL_Driver/Src/stm32f4xx_ll_usb.c ****   {
 907              		.loc 1 373 6 view .LVU270
 908 0096 0546     		mov	r5, r0
 909 0098 00B1     		cbz	r0, .L57
 375:Drivers/STM32F4xx_HAL_Driver/Src/stm32f4xx_ll_usb.c ****   }
 910              		.loc 1 375 9 view .LVU271
 911 009a 0125     		movs	r5, #1
 912              	.L57:
 913              	.LVL72:
 378:Drivers/STM32F4xx_HAL_Driver/Src/stm32f4xx_ll_usb.c ****   {
 914              		.loc 1 378 3 is_stmt 1 view .LVU272
 378:Drivers/STM32F4xx_HAL_Driver/Src/stm32f4xx_ll_usb.c ****   {
 915              		.loc 1 378 7 is_stmt 0 view .LVU273
 916 009c 2046     		mov	r0, r4
 917 009e FFF7FEFF 		bl	USB_FlushRxFifo
 918              	.LVL73:
 378:Drivers/STM32F4xx_HAL_Driver/Src/stm32f4xx_ll_usb.c ****   {
 919              		.loc 1 378 6 view .LVU274
 920 00a2 00B1     		cbz	r0, .L58
 380:Drivers/STM32F4xx_HAL_Driver/Src/stm32f4xx_ll_usb.c ****   }
 921              		.loc 1 380 9 view .LVU275
 922 00a4 0125     		movs	r5, #1
 923              	.LVL74:
 924              	.L58:
 384:Drivers/STM32F4xx_HAL_Driver/Src/stm32f4xx_ll_usb.c ****   USBx_DEVICE->DOEPMSK = 0U;
 925              		.loc 1 384 3 is_stmt 1 view .LVU276
 926 00a6 04F5006C 		add	ip, r4, #2048
 384:Drivers/STM32F4xx_HAL_Driver/Src/stm32f4xx_ll_usb.c ****   USBx_DEVICE->DOEPMSK = 0U;
 927              		.loc 1 384 24 is_stmt 0 view .LVU277
 928 00aa 0023     		movs	r3, #0
 929 00ac CCF81030 		str	r3, [ip, #16]
 385:Drivers/STM32F4xx_HAL_Driver/Src/stm32f4xx_ll_usb.c ****   USBx_DEVICE->DAINTMSK = 0U;
 930              		.loc 1 385 3 is_stmt 1 view .LVU278
 385:Drivers/STM32F4xx_HAL_Driver/Src/stm32f4xx_ll_usb.c ****   USBx_DEVICE->DAINTMSK = 0U;
 931              		.loc 1 385 24 is_stmt 0 view .LVU279
 932 00b0 CCF81430 		str	r3, [ip, #20]
 386:Drivers/STM32F4xx_HAL_Driver/Src/stm32f4xx_ll_usb.c **** 
 933              		.loc 1 386 3 is_stmt 1 view .LVU280
 386:Drivers/STM32F4xx_HAL_Driver/Src/stm32f4xx_ll_usb.c **** 
 934              		.loc 1 386 25 is_stmt 0 view .LVU281
 935 00b4 CCF81C30 		str	r3, [ip, #28]
 388:Drivers/STM32F4xx_HAL_Driver/Src/stm32f4xx_ll_usb.c ****   {
 936              		.loc 1 388 3 is_stmt 1 view .LVU282
 937              	.LVL75:
 388:Drivers/STM32F4xx_HAL_Driver/Src/stm32f4xx_ll_usb.c ****   {
 938              		.loc 1 388 3 is_stmt 0 view .LVU283
 939 00b8 0AE0     		b	.L59
 940              	.LVL76:
 941              	.L76:
 392:Drivers/STM32F4xx_HAL_Driver/Src/stm32f4xx_ll_usb.c ****       {
 942              		.loc 1 392 7 is_stmt 1 view .LVU284
 392:Drivers/STM32F4xx_HAL_Driver/Src/stm32f4xx_ll_usb.c ****       {
 943              		.loc 1 392 10 is_stmt 0 view .LVU285
 944 00ba CBB9     		cbnz	r3, .L61
 394:Drivers/STM32F4xx_HAL_Driver/Src/stm32f4xx_ll_usb.c ****       }
 945              		.loc 1 394 9 is_stmt 1 view .LVU286
ARM GAS  C:\Users\ashto\AppData\Local\Temp\ccdF3pho.s 			page 47


 394:Drivers/STM32F4xx_HAL_Driver/Src/stm32f4xx_ll_usb.c ****       }
 946              		.loc 1 394 31 is_stmt 0 view .LVU287
 947 00bc 4FF00060 		mov	r0, #134217728
 948 00c0 C2F80009 		str	r0, [r2, #2304]
 949              	.L62:
 406:Drivers/STM32F4xx_HAL_Driver/Src/stm32f4xx_ll_usb.c ****     USBx_INEP(i)->DIEPINT  = 0xFB7FU;
 950              		.loc 1 406 5 is_stmt 1 discriminator 2 view .LVU288
 406:Drivers/STM32F4xx_HAL_Driver/Src/stm32f4xx_ll_usb.c ****     USBx_INEP(i)->DIEPINT  = 0xFB7FU;
 951              		.loc 1 406 28 is_stmt 0 discriminator 2 view .LVU289
 952 00c4 0022     		movs	r2, #0
 953 00c6 0A61     		str	r2, [r1, #16]
 407:Drivers/STM32F4xx_HAL_Driver/Src/stm32f4xx_ll_usb.c ****   }
 954              		.loc 1 407 5 is_stmt 1 discriminator 2 view .LVU290
 407:Drivers/STM32F4xx_HAL_Driver/Src/stm32f4xx_ll_usb.c ****   }
 955              		.loc 1 407 28 is_stmt 0 discriminator 2 view .LVU291
 956 00c8 4FF67F32 		movw	r2, #64383
 957 00cc 8A60     		str	r2, [r1, #8]
 388:Drivers/STM32F4xx_HAL_Driver/Src/stm32f4xx_ll_usb.c ****   {
 958              		.loc 1 388 39 is_stmt 1 discriminator 2 view .LVU292
 388:Drivers/STM32F4xx_HAL_Driver/Src/stm32f4xx_ll_usb.c ****   {
 959              		.loc 1 388 40 is_stmt 0 discriminator 2 view .LVU293
 960 00ce 0133     		adds	r3, r3, #1
 961              	.LVL77:
 962              	.L59:
 388:Drivers/STM32F4xx_HAL_Driver/Src/stm32f4xx_ll_usb.c ****   {
 963              		.loc 1 388 16 is_stmt 1 discriminator 1 view .LVU294
 388:Drivers/STM32F4xx_HAL_Driver/Src/stm32f4xx_ll_usb.c ****   {
 964              		.loc 1 388 23 is_stmt 0 discriminator 1 view .LVU295
 965 00d0 9DF81C10 		ldrb	r1, [sp, #28]	@ zero_extendqisi2
 388:Drivers/STM32F4xx_HAL_Driver/Src/stm32f4xx_ll_usb.c ****   {
 966              		.loc 1 388 3 discriminator 1 view .LVU296
 967 00d4 9942     		cmp	r1, r3
 968 00d6 10D9     		bls	.L75
 390:Drivers/STM32F4xx_HAL_Driver/Src/stm32f4xx_ll_usb.c ****     {
 969              		.loc 1 390 5 is_stmt 1 view .LVU297
 390:Drivers/STM32F4xx_HAL_Driver/Src/stm32f4xx_ll_usb.c ****     {
 970              		.loc 1 390 10 is_stmt 0 view .LVU298
 971 00d8 04EB4312 		add	r2, r4, r3, lsl #5
 972 00dc 02F51061 		add	r1, r2, #2304
 390:Drivers/STM32F4xx_HAL_Driver/Src/stm32f4xx_ll_usb.c ****     {
 973              		.loc 1 390 22 view .LVU299
 974 00e0 D2F80009 		ldr	r0, [r2, #2304]
 390:Drivers/STM32F4xx_HAL_Driver/Src/stm32f4xx_ll_usb.c ****     {
 975              		.loc 1 390 8 view .LVU300
 976 00e4 0028     		cmp	r0, #0
 977 00e6 E8DB     		blt	.L76
 403:Drivers/STM32F4xx_HAL_Driver/Src/stm32f4xx_ll_usb.c ****     }
 978              		.loc 1 403 7 is_stmt 1 view .LVU301
 403:Drivers/STM32F4xx_HAL_Driver/Src/stm32f4xx_ll_usb.c ****     }
 979              		.loc 1 403 29 is_stmt 0 view .LVU302
 980 00e8 0020     		movs	r0, #0
 981 00ea C2F80009 		str	r0, [r2, #2304]
 982 00ee E9E7     		b	.L62
 983              	.L61:
 398:Drivers/STM32F4xx_HAL_Driver/Src/stm32f4xx_ll_usb.c ****       }
 984              		.loc 1 398 9 is_stmt 1 view .LVU303
 398:Drivers/STM32F4xx_HAL_Driver/Src/stm32f4xx_ll_usb.c ****       }
ARM GAS  C:\Users\ashto\AppData\Local\Temp\ccdF3pho.s 			page 48


 985              		.loc 1 398 31 is_stmt 0 view .LVU304
 986 00f0 4FF09040 		mov	r0, #1207959552
 987 00f4 C2F80009 		str	r0, [r2, #2304]
 988 00f8 E4E7     		b	.L62
 989              	.L75:
 410:Drivers/STM32F4xx_HAL_Driver/Src/stm32f4xx_ll_usb.c ****   {
 990              		.loc 1 410 10 view .LVU305
 991 00fa 0023     		movs	r3, #0
 992              	.LVL78:
 410:Drivers/STM32F4xx_HAL_Driver/Src/stm32f4xx_ll_usb.c ****   {
 993              		.loc 1 410 10 view .LVU306
 994 00fc 0AE0     		b	.L64
 995              	.LVL79:
 996              	.L79:
 414:Drivers/STM32F4xx_HAL_Driver/Src/stm32f4xx_ll_usb.c ****       {
 997              		.loc 1 414 7 is_stmt 1 view .LVU307
 414:Drivers/STM32F4xx_HAL_Driver/Src/stm32f4xx_ll_usb.c ****       {
 998              		.loc 1 414 10 is_stmt 0 view .LVU308
 999 00fe BBB1     		cbz	r3, .L77
 420:Drivers/STM32F4xx_HAL_Driver/Src/stm32f4xx_ll_usb.c ****       }
 1000              		.loc 1 420 9 is_stmt 1 view .LVU309
 420:Drivers/STM32F4xx_HAL_Driver/Src/stm32f4xx_ll_usb.c ****       }
 1001              		.loc 1 420 32 is_stmt 0 view .LVU310
 1002 0100 4FF09047 		mov	r7, #1207959552
 1003 0104 C2F8007B 		str	r7, [r2, #2816]
 1004              	.L67:
 428:Drivers/STM32F4xx_HAL_Driver/Src/stm32f4xx_ll_usb.c ****     USBx_OUTEP(i)->DOEPINT  = 0xFB7FU;
 1005              		.loc 1 428 5 is_stmt 1 discriminator 2 view .LVU311
 428:Drivers/STM32F4xx_HAL_Driver/Src/stm32f4xx_ll_usb.c ****     USBx_OUTEP(i)->DOEPINT  = 0xFB7FU;
 1006              		.loc 1 428 29 is_stmt 0 discriminator 2 view .LVU312
 1007 0108 0022     		movs	r2, #0
 1008 010a 0261     		str	r2, [r0, #16]
 429:Drivers/STM32F4xx_HAL_Driver/Src/stm32f4xx_ll_usb.c ****   }
 1009              		.loc 1 429 5 is_stmt 1 discriminator 2 view .LVU313
 429:Drivers/STM32F4xx_HAL_Driver/Src/stm32f4xx_ll_usb.c ****   }
 1010              		.loc 1 429 29 is_stmt 0 discriminator 2 view .LVU314
 1011 010c 4FF67F32 		movw	r2, #64383
 1012 0110 8260     		str	r2, [r0, #8]
 410:Drivers/STM32F4xx_HAL_Driver/Src/stm32f4xx_ll_usb.c ****   {
 1013              		.loc 1 410 39 is_stmt 1 discriminator 2 view .LVU315
 410:Drivers/STM32F4xx_HAL_Driver/Src/stm32f4xx_ll_usb.c ****   {
 1014              		.loc 1 410 40 is_stmt 0 discriminator 2 view .LVU316
 1015 0112 0133     		adds	r3, r3, #1
 1016              	.LVL80:
 1017              	.L64:
 410:Drivers/STM32F4xx_HAL_Driver/Src/stm32f4xx_ll_usb.c ****   {
 1018              		.loc 1 410 16 is_stmt 1 discriminator 1 view .LVU317
 410:Drivers/STM32F4xx_HAL_Driver/Src/stm32f4xx_ll_usb.c ****   {
 1019              		.loc 1 410 3 is_stmt 0 discriminator 1 view .LVU318
 1020 0114 9942     		cmp	r1, r3
 1021 0116 10D9     		bls	.L78
 412:Drivers/STM32F4xx_HAL_Driver/Src/stm32f4xx_ll_usb.c ****     {
 1022              		.loc 1 412 5 is_stmt 1 view .LVU319
 412:Drivers/STM32F4xx_HAL_Driver/Src/stm32f4xx_ll_usb.c ****     {
 1023              		.loc 1 412 10 is_stmt 0 view .LVU320
 1024 0118 04EB4312 		add	r2, r4, r3, lsl #5
 1025 011c 02F53060 		add	r0, r2, #2816
ARM GAS  C:\Users\ashto\AppData\Local\Temp\ccdF3pho.s 			page 49


 412:Drivers/STM32F4xx_HAL_Driver/Src/stm32f4xx_ll_usb.c ****     {
 1026              		.loc 1 412 23 view .LVU321
 1027 0120 D2F8007B 		ldr	r7, [r2, #2816]
 412:Drivers/STM32F4xx_HAL_Driver/Src/stm32f4xx_ll_usb.c ****     {
 1028              		.loc 1 412 8 view .LVU322
 1029 0124 002F     		cmp	r7, #0
 1030 0126 EADB     		blt	.L79
 425:Drivers/STM32F4xx_HAL_Driver/Src/stm32f4xx_ll_usb.c ****     }
 1031              		.loc 1 425 7 is_stmt 1 view .LVU323
 425:Drivers/STM32F4xx_HAL_Driver/Src/stm32f4xx_ll_usb.c ****     }
 1032              		.loc 1 425 30 is_stmt 0 view .LVU324
 1033 0128 0027     		movs	r7, #0
 1034 012a C2F8007B 		str	r7, [r2, #2816]
 1035 012e EBE7     		b	.L67
 1036              	.L77:
 416:Drivers/STM32F4xx_HAL_Driver/Src/stm32f4xx_ll_usb.c ****       }
 1037              		.loc 1 416 9 is_stmt 1 view .LVU325
 416:Drivers/STM32F4xx_HAL_Driver/Src/stm32f4xx_ll_usb.c ****       }
 1038              		.loc 1 416 32 is_stmt 0 view .LVU326
 1039 0130 4FF00067 		mov	r7, #134217728
 1040 0134 C2F8007B 		str	r7, [r2, #2816]
 1041 0138 E6E7     		b	.L67
 1042              	.L78:
 432:Drivers/STM32F4xx_HAL_Driver/Src/stm32f4xx_ll_usb.c **** 
 1043              		.loc 1 432 3 is_stmt 1 view .LVU327
 432:Drivers/STM32F4xx_HAL_Driver/Src/stm32f4xx_ll_usb.c **** 
 1044              		.loc 1 432 24 is_stmt 0 view .LVU328
 1045 013a DCF81030 		ldr	r3, [ip, #16]
 1046              	.LVL81:
 432:Drivers/STM32F4xx_HAL_Driver/Src/stm32f4xx_ll_usb.c **** 
 1047              		.loc 1 432 24 view .LVU329
 1048 013e 23F48073 		bic	r3, r3, #256
 1049 0142 CCF81030 		str	r3, [ip, #16]
 435:Drivers/STM32F4xx_HAL_Driver/Src/stm32f4xx_ll_usb.c **** 
 1050              		.loc 1 435 3 is_stmt 1 view .LVU330
 435:Drivers/STM32F4xx_HAL_Driver/Src/stm32f4xx_ll_usb.c **** 
 1051              		.loc 1 435 17 is_stmt 0 view .LVU331
 1052 0146 0023     		movs	r3, #0
 1053 0148 A361     		str	r3, [r4, #24]
 438:Drivers/STM32F4xx_HAL_Driver/Src/stm32f4xx_ll_usb.c **** 
 1054              		.loc 1 438 3 is_stmt 1 view .LVU332
 438:Drivers/STM32F4xx_HAL_Driver/Src/stm32f4xx_ll_usb.c **** 
 1055              		.loc 1 438 17 is_stmt 0 view .LVU333
 1056 014a 6FF08043 		mvn	r3, #1073741824
 1057 014e 6361     		str	r3, [r4, #20]
 441:Drivers/STM32F4xx_HAL_Driver/Src/stm32f4xx_ll_usb.c ****   {
 1058              		.loc 1 441 3 is_stmt 1 view .LVU334
 441:Drivers/STM32F4xx_HAL_Driver/Src/stm32f4xx_ll_usb.c ****   {
 1059              		.loc 1 441 10 is_stmt 0 view .LVU335
 1060 0150 9DF81E30 		ldrb	r3, [sp, #30]	@ zero_extendqisi2
 441:Drivers/STM32F4xx_HAL_Driver/Src/stm32f4xx_ll_usb.c ****   {
 1061              		.loc 1 441 6 view .LVU336
 1062 0154 1BB9     		cbnz	r3, .L69
 443:Drivers/STM32F4xx_HAL_Driver/Src/stm32f4xx_ll_usb.c ****   }
 1063              		.loc 1 443 5 is_stmt 1 view .LVU337
 443:Drivers/STM32F4xx_HAL_Driver/Src/stm32f4xx_ll_usb.c ****   }
 1064              		.loc 1 443 19 is_stmt 0 view .LVU338
ARM GAS  C:\Users\ashto\AppData\Local\Temp\ccdF3pho.s 			page 50


 1065 0156 A369     		ldr	r3, [r4, #24]
 1066 0158 43F01003 		orr	r3, r3, #16
 1067 015c A361     		str	r3, [r4, #24]
 1068              	.L69:
 447:Drivers/STM32F4xx_HAL_Driver/Src/stm32f4xx_ll_usb.c ****                    USB_OTG_GINTMSK_ENUMDNEM | USB_OTG_GINTMSK_IEPINT |
 1069              		.loc 1 447 3 is_stmt 1 view .LVU339
 447:Drivers/STM32F4xx_HAL_Driver/Src/stm32f4xx_ll_usb.c ****                    USB_OTG_GINTMSK_ENUMDNEM | USB_OTG_GINTMSK_IEPINT |
 1070              		.loc 1 447 17 is_stmt 0 view .LVU340
 1071 015e A269     		ldr	r2, [r4, #24]
 1072 0160 0B4B     		ldr	r3, .L81
 1073 0162 1343     		orrs	r3, r3, r2
 1074 0164 A361     		str	r3, [r4, #24]
 452:Drivers/STM32F4xx_HAL_Driver/Src/stm32f4xx_ll_usb.c ****   {
 1075              		.loc 1 452 3 is_stmt 1 view .LVU341
 452:Drivers/STM32F4xx_HAL_Driver/Src/stm32f4xx_ll_usb.c ****   {
 1076              		.loc 1 452 10 is_stmt 0 view .LVU342
 1077 0166 9DF82230 		ldrb	r3, [sp, #34]	@ zero_extendqisi2
 452:Drivers/STM32F4xx_HAL_Driver/Src/stm32f4xx_ll_usb.c ****   {
 1078              		.loc 1 452 6 view .LVU343
 1079 016a 1BB1     		cbz	r3, .L70
 454:Drivers/STM32F4xx_HAL_Driver/Src/stm32f4xx_ll_usb.c ****   }
 1080              		.loc 1 454 5 is_stmt 1 view .LVU344
 454:Drivers/STM32F4xx_HAL_Driver/Src/stm32f4xx_ll_usb.c ****   }
 1081              		.loc 1 454 19 is_stmt 0 view .LVU345
 1082 016c A369     		ldr	r3, [r4, #24]
 1083 016e 43F00803 		orr	r3, r3, #8
 1084 0172 A361     		str	r3, [r4, #24]
 1085              	.L70:
 457:Drivers/STM32F4xx_HAL_Driver/Src/stm32f4xx_ll_usb.c ****   {
 1086              		.loc 1 457 3 is_stmt 1 view .LVU346
 457:Drivers/STM32F4xx_HAL_Driver/Src/stm32f4xx_ll_usb.c ****   {
 1087              		.loc 1 457 6 is_stmt 0 view .LVU347
 1088 0174 012E     		cmp	r6, #1
 1089 0176 04D0     		beq	.L80
 1090              	.L71:
 462:Drivers/STM32F4xx_HAL_Driver/Src/stm32f4xx_ll_usb.c **** }
 1091              		.loc 1 462 3 is_stmt 1 view .LVU348
 463:Drivers/STM32F4xx_HAL_Driver/Src/stm32f4xx_ll_usb.c **** 
 1092              		.loc 1 463 1 is_stmt 0 view .LVU349
 1093 0178 2846     		mov	r0, r5
 1094 017a BDE8F840 		pop	{r3, r4, r5, r6, r7, lr}
 1095              	.LCFI16:
 1096              		.cfi_remember_state
 1097              		.cfi_restore 14
 1098              		.cfi_restore 7
 1099              		.cfi_restore 6
 1100              		.cfi_restore 5
 1101              		.cfi_restore 4
 1102              		.cfi_restore 3
 1103              		.cfi_def_cfa_offset 16
 1104              	.LVL82:
 463:Drivers/STM32F4xx_HAL_Driver/Src/stm32f4xx_ll_usb.c **** 
 1105              		.loc 1 463 1 view .LVU350
 1106 017e 04B0     		add	sp, sp, #16
 1107              	.LCFI17:
 1108              		.cfi_def_cfa_offset 0
 1109 0180 7047     		bx	lr
ARM GAS  C:\Users\ashto\AppData\Local\Temp\ccdF3pho.s 			page 51


 1110              	.LVL83:
 1111              	.L80:
 1112              	.LCFI18:
 1113              		.cfi_restore_state
 459:Drivers/STM32F4xx_HAL_Driver/Src/stm32f4xx_ll_usb.c ****   }
 1114              		.loc 1 459 5 is_stmt 1 view .LVU351
 459:Drivers/STM32F4xx_HAL_Driver/Src/stm32f4xx_ll_usb.c ****   }
 1115              		.loc 1 459 19 is_stmt 0 view .LVU352
 1116 0182 A369     		ldr	r3, [r4, #24]
 1117 0184 43F08043 		orr	r3, r3, #1073741824
 1118 0188 43F00403 		orr	r3, r3, #4
 1119 018c A361     		str	r3, [r4, #24]
 1120 018e F3E7     		b	.L71
 1121              	.L82:
 1122              		.align	2
 1123              	.L81:
 1124 0190 00383C80 		.word	-2143537152
 1125              		.cfi_endproc
 1126              	.LFE139:
 1128              		.section	.text.USB_GetDevSpeed,"ax",%progbits
 1129              		.align	1
 1130              		.global	USB_GetDevSpeed
 1131              		.syntax unified
 1132              		.thumb
 1133              		.thumb_func
 1135              	USB_GetDevSpeed:
 1136              	.LVL84:
 1137              	.LFB143:
 570:Drivers/STM32F4xx_HAL_Driver/Src/stm32f4xx_ll_usb.c ****   uint32_t USBx_BASE = (uint32_t)USBx;
 1138              		.loc 1 570 1 is_stmt 1 view -0
 1139              		.cfi_startproc
 1140              		@ args = 0, pretend = 0, frame = 0
 1141              		@ frame_needed = 0, uses_anonymous_args = 0
 1142              		@ link register save eliminated.
 571:Drivers/STM32F4xx_HAL_Driver/Src/stm32f4xx_ll_usb.c ****   uint8_t speed;
 1143              		.loc 1 571 3 view .LVU354
 572:Drivers/STM32F4xx_HAL_Driver/Src/stm32f4xx_ll_usb.c ****   uint32_t DevEnumSpeed = USBx_DEVICE->DSTS & USB_OTG_DSTS_ENUMSPD;
 1144              		.loc 1 572 3 view .LVU355
 573:Drivers/STM32F4xx_HAL_Driver/Src/stm32f4xx_ll_usb.c **** 
 1145              		.loc 1 573 3 view .LVU356
 573:Drivers/STM32F4xx_HAL_Driver/Src/stm32f4xx_ll_usb.c **** 
 1146              		.loc 1 573 38 is_stmt 0 view .LVU357
 1147 0000 D0F80838 		ldr	r3, [r0, #2056]
 1148              	.LVL85:
 575:Drivers/STM32F4xx_HAL_Driver/Src/stm32f4xx_ll_usb.c ****   {
 1149              		.loc 1 575 3 is_stmt 1 view .LVU358
 575:Drivers/STM32F4xx_HAL_Driver/Src/stm32f4xx_ll_usb.c ****   {
 1150              		.loc 1 575 6 is_stmt 0 view .LVU359
 1151 0004 13F00603 		ands	r3, r3, #6
 1152              	.LVL86:
 575:Drivers/STM32F4xx_HAL_Driver/Src/stm32f4xx_ll_usb.c ****   {
 1153              		.loc 1 575 6 view .LVU360
 1154 0008 07D0     		beq	.L85
 579:Drivers/STM32F4xx_HAL_Driver/Src/stm32f4xx_ll_usb.c ****            (DevEnumSpeed == DSTS_ENUMSPD_FS_PHY_48MHZ))
 1155              		.loc 1 579 8 is_stmt 1 view .LVU361
 579:Drivers/STM32F4xx_HAL_Driver/Src/stm32f4xx_ll_usb.c ****            (DevEnumSpeed == DSTS_ENUMSPD_FS_PHY_48MHZ))
 1156              		.loc 1 579 11 is_stmt 0 view .LVU362
ARM GAS  C:\Users\ashto\AppData\Local\Temp\ccdF3pho.s 			page 52


 1157 000a 022B     		cmp	r3, #2
 1158 000c 07D0     		beq	.L86
 579:Drivers/STM32F4xx_HAL_Driver/Src/stm32f4xx_ll_usb.c ****            (DevEnumSpeed == DSTS_ENUMSPD_FS_PHY_48MHZ))
 1159              		.loc 1 579 65 discriminator 1 view .LVU363
 1160 000e 062B     		cmp	r3, #6
 1161 0010 01D0     		beq	.L88
 586:Drivers/STM32F4xx_HAL_Driver/Src/stm32f4xx_ll_usb.c ****   }
 1162              		.loc 1 586 11 view .LVU364
 1163 0012 0F20     		movs	r0, #15
 1164              	.LVL87:
 589:Drivers/STM32F4xx_HAL_Driver/Src/stm32f4xx_ll_usb.c **** }
 1165              		.loc 1 589 3 is_stmt 1 view .LVU365
 590:Drivers/STM32F4xx_HAL_Driver/Src/stm32f4xx_ll_usb.c **** 
 1166              		.loc 1 590 1 is_stmt 0 view .LVU366
 1167 0014 7047     		bx	lr
 1168              	.LVL88:
 1169              	.L88:
 582:Drivers/STM32F4xx_HAL_Driver/Src/stm32f4xx_ll_usb.c ****   }
 1170              		.loc 1 582 11 view .LVU367
 1171 0016 0220     		movs	r0, #2
 1172              	.LVL89:
 582:Drivers/STM32F4xx_HAL_Driver/Src/stm32f4xx_ll_usb.c ****   }
 1173              		.loc 1 582 11 view .LVU368
 1174 0018 7047     		bx	lr
 1175              	.LVL90:
 1176              	.L85:
 577:Drivers/STM32F4xx_HAL_Driver/Src/stm32f4xx_ll_usb.c ****   }
 1177              		.loc 1 577 11 view .LVU369
 1178 001a 0020     		movs	r0, #0
 1179              	.LVL91:
 577:Drivers/STM32F4xx_HAL_Driver/Src/stm32f4xx_ll_usb.c ****   }
 1180              		.loc 1 577 11 view .LVU370
 1181 001c 7047     		bx	lr
 1182              	.LVL92:
 1183              	.L86:
 582:Drivers/STM32F4xx_HAL_Driver/Src/stm32f4xx_ll_usb.c ****   }
 1184              		.loc 1 582 11 view .LVU371
 1185 001e 0220     		movs	r0, #2
 1186              	.LVL93:
 582:Drivers/STM32F4xx_HAL_Driver/Src/stm32f4xx_ll_usb.c ****   }
 1187              		.loc 1 582 11 view .LVU372
 1188 0020 7047     		bx	lr
 1189              		.cfi_endproc
 1190              	.LFE143:
 1192              		.section	.text.USB_ActivateEndpoint,"ax",%progbits
 1193              		.align	1
 1194              		.global	USB_ActivateEndpoint
 1195              		.syntax unified
 1196              		.thumb
 1197              		.thumb_func
 1199              	USB_ActivateEndpoint:
 1200              	.LVL94:
 1201              	.LFB144:
 599:Drivers/STM32F4xx_HAL_Driver/Src/stm32f4xx_ll_usb.c ****   uint32_t USBx_BASE = (uint32_t)USBx;
 1202              		.loc 1 599 1 is_stmt 1 view -0
 1203              		.cfi_startproc
 1204              		@ args = 0, pretend = 0, frame = 0
ARM GAS  C:\Users\ashto\AppData\Local\Temp\ccdF3pho.s 			page 53


 1205              		@ frame_needed = 0, uses_anonymous_args = 0
 599:Drivers/STM32F4xx_HAL_Driver/Src/stm32f4xx_ll_usb.c ****   uint32_t USBx_BASE = (uint32_t)USBx;
 1206              		.loc 1 599 1 is_stmt 0 view .LVU374
 1207 0000 10B5     		push	{r4, lr}
 1208              	.LCFI19:
 1209              		.cfi_def_cfa_offset 8
 1210              		.cfi_offset 4, -8
 1211              		.cfi_offset 14, -4
 600:Drivers/STM32F4xx_HAL_Driver/Src/stm32f4xx_ll_usb.c ****   uint32_t epnum = (uint32_t)ep->num;
 1212              		.loc 1 600 3 is_stmt 1 view .LVU375
 1213              	.LVL95:
 601:Drivers/STM32F4xx_HAL_Driver/Src/stm32f4xx_ll_usb.c **** 
 1214              		.loc 1 601 3 view .LVU376
 601:Drivers/STM32F4xx_HAL_Driver/Src/stm32f4xx_ll_usb.c **** 
 1215              		.loc 1 601 32 is_stmt 0 view .LVU377
 1216 0002 91F800C0 		ldrb	ip, [r1]	@ zero_extendqisi2
 1217              	.LVL96:
 603:Drivers/STM32F4xx_HAL_Driver/Src/stm32f4xx_ll_usb.c ****   {
 1218              		.loc 1 603 3 is_stmt 1 view .LVU378
 603:Drivers/STM32F4xx_HAL_Driver/Src/stm32f4xx_ll_usb.c ****   {
 1219              		.loc 1 603 9 is_stmt 0 view .LVU379
 1220 0006 4B78     		ldrb	r3, [r1, #1]	@ zero_extendqisi2
 603:Drivers/STM32F4xx_HAL_Driver/Src/stm32f4xx_ll_usb.c ****   {
 1221              		.loc 1 603 6 view .LVU380
 1222 0008 012B     		cmp	r3, #1
 1223 000a 23D0     		beq	.L93
 617:Drivers/STM32F4xx_HAL_Driver/Src/stm32f4xx_ll_usb.c **** 
 1224              		.loc 1 617 5 is_stmt 1 view .LVU381
 617:Drivers/STM32F4xx_HAL_Driver/Src/stm32f4xx_ll_usb.c **** 
 1225              		.loc 1 617 27 is_stmt 0 view .LVU382
 1226 000c 00F5006E 		add	lr, r0, #2048
 1227 0010 D0F81C38 		ldr	r3, [r0, #2076]
 617:Drivers/STM32F4xx_HAL_Driver/Src/stm32f4xx_ll_usb.c **** 
 1228              		.loc 1 617 82 view .LVU383
 1229 0014 0CF00F04 		and	r4, ip, #15
 617:Drivers/STM32F4xx_HAL_Driver/Src/stm32f4xx_ll_usb.c **** 
 1230              		.loc 1 617 55 view .LVU384
 1231 0018 0122     		movs	r2, #1
 1232 001a A240     		lsls	r2, r2, r4
 617:Drivers/STM32F4xx_HAL_Driver/Src/stm32f4xx_ll_usb.c **** 
 1233              		.loc 1 617 27 view .LVU385
 1234 001c 43EA0243 		orr	r3, r3, r2, lsl #16
 1235 0020 C0F81C38 		str	r3, [r0, #2076]
 619:Drivers/STM32F4xx_HAL_Driver/Src/stm32f4xx_ll_usb.c ****     {
 1236              		.loc 1 619 5 is_stmt 1 view .LVU386
 619:Drivers/STM32F4xx_HAL_Driver/Src/stm32f4xx_ll_usb.c ****     {
 1237              		.loc 1 619 11 is_stmt 0 view .LVU387
 1238 0024 00EB4C10 		add	r0, r0, ip, lsl #5
 1239              	.LVL97:
 619:Drivers/STM32F4xx_HAL_Driver/Src/stm32f4xx_ll_usb.c ****     {
 1240              		.loc 1 619 28 view .LVU388
 1241 0028 D0F8003B 		ldr	r3, [r0, #2816]
 619:Drivers/STM32F4xx_HAL_Driver/Src/stm32f4xx_ll_usb.c ****     {
 1242              		.loc 1 619 8 view .LVU389
 1243 002c 13F4004F 		tst	r3, #32768
 1244 0030 0ED1     		bne	.L91
 621:Drivers/STM32F4xx_HAL_Driver/Src/stm32f4xx_ll_usb.c ****                                     ((uint32_t)ep->type << 18) |
ARM GAS  C:\Users\ashto\AppData\Local\Temp\ccdF3pho.s 			page 54


 1245              		.loc 1 621 7 is_stmt 1 view .LVU390
 621:Drivers/STM32F4xx_HAL_Driver/Src/stm32f4xx_ll_usb.c ****                                     ((uint32_t)ep->type << 18) |
 1246              		.loc 1 621 34 is_stmt 0 view .LVU391
 1247 0032 D0F8003B 		ldr	r3, [r0, #2816]
 621:Drivers/STM32F4xx_HAL_Driver/Src/stm32f4xx_ll_usb.c ****                                     ((uint32_t)ep->type << 18) |
 1248              		.loc 1 621 40 view .LVU392
 1249 0036 8A68     		ldr	r2, [r1, #8]
 621:Drivers/STM32F4xx_HAL_Driver/Src/stm32f4xx_ll_usb.c ****                                     ((uint32_t)ep->type << 18) |
 1250              		.loc 1 621 52 view .LVU393
 1251 0038 C2F30A02 		ubfx	r2, r2, #0, #11
 622:Drivers/STM32F4xx_HAL_Driver/Src/stm32f4xx_ll_usb.c ****                                     USB_OTG_DIEPCTL_SD0PID_SEVNFRM |
 1252              		.loc 1 622 50 view .LVU394
 1253 003c 0979     		ldrb	r1, [r1, #4]	@ zero_extendqisi2
 1254              	.LVL98:
 621:Drivers/STM32F4xx_HAL_Driver/Src/stm32f4xx_ll_usb.c ****                                     ((uint32_t)ep->type << 18) |
 1255              		.loc 1 621 77 view .LVU395
 1256 003e 42EA8142 		orr	r2, r2, r1, lsl #18
 621:Drivers/STM32F4xx_HAL_Driver/Src/stm32f4xx_ll_usb.c ****                                     ((uint32_t)ep->type << 18) |
 1257              		.loc 1 621 34 view .LVU396
 1258 0042 1343     		orrs	r3, r3, r2
 1259 0044 43F08053 		orr	r3, r3, #268435456
 1260 0048 43F40043 		orr	r3, r3, #32768
 1261 004c C0F8003B 		str	r3, [r0, #2816]
 1262              	.LVL99:
 1263              	.L91:
 627:Drivers/STM32F4xx_HAL_Driver/Src/stm32f4xx_ll_usb.c **** }
 1264              		.loc 1 627 3 is_stmt 1 view .LVU397
 628:Drivers/STM32F4xx_HAL_Driver/Src/stm32f4xx_ll_usb.c **** 
 1265              		.loc 1 628 1 is_stmt 0 view .LVU398
 1266 0050 0020     		movs	r0, #0
 1267 0052 10BD     		pop	{r4, pc}
 1268              	.LVL100:
 1269              	.L93:
 605:Drivers/STM32F4xx_HAL_Driver/Src/stm32f4xx_ll_usb.c **** 
 1270              		.loc 1 605 5 is_stmt 1 view .LVU399
 605:Drivers/STM32F4xx_HAL_Driver/Src/stm32f4xx_ll_usb.c **** 
 1271              		.loc 1 605 27 is_stmt 0 view .LVU400
 1272 0054 D0F81C28 		ldr	r2, [r0, #2076]
 605:Drivers/STM32F4xx_HAL_Driver/Src/stm32f4xx_ll_usb.c **** 
 1273              		.loc 1 605 81 view .LVU401
 1274 0058 0CF00F0E 		and	lr, ip, #15
 605:Drivers/STM32F4xx_HAL_Driver/Src/stm32f4xx_ll_usb.c **** 
 1275              		.loc 1 605 54 view .LVU402
 1276 005c 03FA0EF3 		lsl	r3, r3, lr
 605:Drivers/STM32F4xx_HAL_Driver/Src/stm32f4xx_ll_usb.c **** 
 1277              		.loc 1 605 52 view .LVU403
 1278 0060 9BB2     		uxth	r3, r3
 605:Drivers/STM32F4xx_HAL_Driver/Src/stm32f4xx_ll_usb.c **** 
 1279              		.loc 1 605 27 view .LVU404
 1280 0062 1343     		orrs	r3, r3, r2
 1281 0064 C0F81C38 		str	r3, [r0, #2076]
 607:Drivers/STM32F4xx_HAL_Driver/Src/stm32f4xx_ll_usb.c ****     {
 1282              		.loc 1 607 5 is_stmt 1 view .LVU405
 607:Drivers/STM32F4xx_HAL_Driver/Src/stm32f4xx_ll_usb.c ****     {
 1283              		.loc 1 607 10 is_stmt 0 view .LVU406
 1284 0068 00EB4C10 		add	r0, r0, ip, lsl #5
 1285              	.LVL101:
ARM GAS  C:\Users\ashto\AppData\Local\Temp\ccdF3pho.s 			page 55


 607:Drivers/STM32F4xx_HAL_Driver/Src/stm32f4xx_ll_usb.c ****     {
 1286              		.loc 1 607 26 view .LVU407
 1287 006c D0F80039 		ldr	r3, [r0, #2304]
 607:Drivers/STM32F4xx_HAL_Driver/Src/stm32f4xx_ll_usb.c ****     {
 1288              		.loc 1 607 8 view .LVU408
 1289 0070 13F4004F 		tst	r3, #32768
 1290 0074 ECD1     		bne	.L91
 609:Drivers/STM32F4xx_HAL_Driver/Src/stm32f4xx_ll_usb.c ****                                    ((uint32_t)ep->type << 18) | (epnum << 22) |
 1291              		.loc 1 609 7 is_stmt 1 view .LVU409
 609:Drivers/STM32F4xx_HAL_Driver/Src/stm32f4xx_ll_usb.c ****                                    ((uint32_t)ep->type << 18) | (epnum << 22) |
 1292              		.loc 1 609 33 is_stmt 0 view .LVU410
 1293 0076 D0F80039 		ldr	r3, [r0, #2304]
 609:Drivers/STM32F4xx_HAL_Driver/Src/stm32f4xx_ll_usb.c ****                                    ((uint32_t)ep->type << 18) | (epnum << 22) |
 1294              		.loc 1 609 39 view .LVU411
 1295 007a 8A68     		ldr	r2, [r1, #8]
 609:Drivers/STM32F4xx_HAL_Driver/Src/stm32f4xx_ll_usb.c ****                                    ((uint32_t)ep->type << 18) | (epnum << 22) |
 1296              		.loc 1 609 51 view .LVU412
 1297 007c C2F30A02 		ubfx	r2, r2, #0, #11
 610:Drivers/STM32F4xx_HAL_Driver/Src/stm32f4xx_ll_usb.c ****                                    USB_OTG_DIEPCTL_SD0PID_SEVNFRM |
 1298              		.loc 1 610 49 view .LVU413
 1299 0080 0979     		ldrb	r1, [r1, #4]	@ zero_extendqisi2
 1300              	.LVL102:
 609:Drivers/STM32F4xx_HAL_Driver/Src/stm32f4xx_ll_usb.c ****                                    ((uint32_t)ep->type << 18) | (epnum << 22) |
 1301              		.loc 1 609 76 view .LVU414
 1302 0082 42EA8142 		orr	r2, r2, r1, lsl #18
 610:Drivers/STM32F4xx_HAL_Driver/Src/stm32f4xx_ll_usb.c ****                                    USB_OTG_DIEPCTL_SD0PID_SEVNFRM |
 1303              		.loc 1 610 63 view .LVU415
 1304 0086 42EA8C5C 		orr	ip, r2, ip, lsl #22
 1305              	.LVL103:
 609:Drivers/STM32F4xx_HAL_Driver/Src/stm32f4xx_ll_usb.c ****                                    ((uint32_t)ep->type << 18) | (epnum << 22) |
 1306              		.loc 1 609 33 view .LVU416
 1307 008a 43EA0C03 		orr	r3, r3, ip
 1308 008e 43F08053 		orr	r3, r3, #268435456
 1309 0092 43F40043 		orr	r3, r3, #32768
 1310 0096 C0F80039 		str	r3, [r0, #2304]
 1311 009a D9E7     		b	.L91
 1312              		.cfi_endproc
 1313              	.LFE144:
 1315              		.section	.text.USB_ActivateDedicatedEndpoint,"ax",%progbits
 1316              		.align	1
 1317              		.global	USB_ActivateDedicatedEndpoint
 1318              		.syntax unified
 1319              		.thumb
 1320              		.thumb_func
 1322              	USB_ActivateDedicatedEndpoint:
 1323              	.LVL104:
 1324              	.LFB145:
 637:Drivers/STM32F4xx_HAL_Driver/Src/stm32f4xx_ll_usb.c ****   uint32_t USBx_BASE = (uint32_t)USBx;
 1325              		.loc 1 637 1 is_stmt 1 view -0
 1326              		.cfi_startproc
 1327              		@ args = 0, pretend = 0, frame = 0
 1328              		@ frame_needed = 0, uses_anonymous_args = 0
 637:Drivers/STM32F4xx_HAL_Driver/Src/stm32f4xx_ll_usb.c ****   uint32_t USBx_BASE = (uint32_t)USBx;
 1329              		.loc 1 637 1 is_stmt 0 view .LVU418
 1330 0000 10B5     		push	{r4, lr}
 1331              	.LCFI20:
 1332              		.cfi_def_cfa_offset 8
ARM GAS  C:\Users\ashto\AppData\Local\Temp\ccdF3pho.s 			page 56


 1333              		.cfi_offset 4, -8
 1334              		.cfi_offset 14, -4
 638:Drivers/STM32F4xx_HAL_Driver/Src/stm32f4xx_ll_usb.c ****   uint32_t epnum = (uint32_t)ep->num;
 1335              		.loc 1 638 3 is_stmt 1 view .LVU419
 1336              	.LVL105:
 639:Drivers/STM32F4xx_HAL_Driver/Src/stm32f4xx_ll_usb.c **** 
 1337              		.loc 1 639 3 view .LVU420
 639:Drivers/STM32F4xx_HAL_Driver/Src/stm32f4xx_ll_usb.c **** 
 1338              		.loc 1 639 32 is_stmt 0 view .LVU421
 1339 0002 0A78     		ldrb	r2, [r1]	@ zero_extendqisi2
 1340              	.LVL106:
 642:Drivers/STM32F4xx_HAL_Driver/Src/stm32f4xx_ll_usb.c ****   {
 1341              		.loc 1 642 3 is_stmt 1 view .LVU422
 642:Drivers/STM32F4xx_HAL_Driver/Src/stm32f4xx_ll_usb.c ****   {
 1342              		.loc 1 642 9 is_stmt 0 view .LVU423
 1343 0004 4B78     		ldrb	r3, [r1, #1]	@ zero_extendqisi2
 642:Drivers/STM32F4xx_HAL_Driver/Src/stm32f4xx_ll_usb.c ****   {
 1344              		.loc 1 642 6 view .LVU424
 1345 0006 012B     		cmp	r3, #1
 1346 0008 23D0     		beq	.L100
 656:Drivers/STM32F4xx_HAL_Driver/Src/stm32f4xx_ll_usb.c ****     {
 1347              		.loc 1 656 5 is_stmt 1 view .LVU425
 656:Drivers/STM32F4xx_HAL_Driver/Src/stm32f4xx_ll_usb.c ****     {
 1348              		.loc 1 656 11 is_stmt 0 view .LVU426
 1349 000a 00EB421C 		add	ip, r0, r2, lsl #5
 656:Drivers/STM32F4xx_HAL_Driver/Src/stm32f4xx_ll_usb.c ****     {
 1350              		.loc 1 656 28 view .LVU427
 1351 000e DCF8003B 		ldr	r3, [ip, #2816]
 656:Drivers/STM32F4xx_HAL_Driver/Src/stm32f4xx_ll_usb.c ****     {
 1352              		.loc 1 656 8 view .LVU428
 1353 0012 13F4004F 		tst	r3, #32768
 1354 0016 0FD1     		bne	.L98
 658:Drivers/STM32F4xx_HAL_Driver/Src/stm32f4xx_ll_usb.c ****                                     ((uint32_t)ep->type << 18) | (epnum << 22) |
 1355              		.loc 1 658 7 is_stmt 1 view .LVU429
 658:Drivers/STM32F4xx_HAL_Driver/Src/stm32f4xx_ll_usb.c ****                                     ((uint32_t)ep->type << 18) | (epnum << 22) |
 1356              		.loc 1 658 34 is_stmt 0 view .LVU430
 1357 0018 DCF8004B 		ldr	r4, [ip, #2816]
 658:Drivers/STM32F4xx_HAL_Driver/Src/stm32f4xx_ll_usb.c ****                                     ((uint32_t)ep->type << 18) | (epnum << 22) |
 1358              		.loc 1 658 40 view .LVU431
 1359 001c 8B68     		ldr	r3, [r1, #8]
 658:Drivers/STM32F4xx_HAL_Driver/Src/stm32f4xx_ll_usb.c ****                                     ((uint32_t)ep->type << 18) | (epnum << 22) |
 1360              		.loc 1 658 52 view .LVU432
 1361 001e C3F30A03 		ubfx	r3, r3, #0, #11
 659:Drivers/STM32F4xx_HAL_Driver/Src/stm32f4xx_ll_usb.c ****                                     USB_OTG_DOEPCTL_USBAEP;
 1362              		.loc 1 659 50 view .LVU433
 1363 0022 91F804E0 		ldrb	lr, [r1, #4]	@ zero_extendqisi2
 658:Drivers/STM32F4xx_HAL_Driver/Src/stm32f4xx_ll_usb.c ****                                     ((uint32_t)ep->type << 18) | (epnum << 22) |
 1364              		.loc 1 658 77 view .LVU434
 1365 0026 43EA8E43 		orr	r3, r3, lr, lsl #18
 659:Drivers/STM32F4xx_HAL_Driver/Src/stm32f4xx_ll_usb.c ****                                     USB_OTG_DOEPCTL_USBAEP;
 1366              		.loc 1 659 64 view .LVU435
 1367 002a 43EA8253 		orr	r3, r3, r2, lsl #22
 658:Drivers/STM32F4xx_HAL_Driver/Src/stm32f4xx_ll_usb.c ****                                     ((uint32_t)ep->type << 18) | (epnum << 22) |
 1368              		.loc 1 658 34 view .LVU436
 1369 002e 2343     		orrs	r3, r3, r4
 1370 0030 43F40043 		orr	r3, r3, #32768
 1371 0034 CCF8003B 		str	r3, [ip, #2816]
ARM GAS  C:\Users\ashto\AppData\Local\Temp\ccdF3pho.s 			page 57


 1372              	.L98:
 663:Drivers/STM32F4xx_HAL_Driver/Src/stm32f4xx_ll_usb.c ****   }
 1373              		.loc 1 663 5 is_stmt 1 view .LVU437
 663:Drivers/STM32F4xx_HAL_Driver/Src/stm32f4xx_ll_usb.c ****   }
 1374              		.loc 1 663 27 is_stmt 0 view .LVU438
 1375 0038 D0F83C38 		ldr	r3, [r0, #2108]
 663:Drivers/STM32F4xx_HAL_Driver/Src/stm32f4xx_ll_usb.c ****   }
 1376              		.loc 1 663 76 view .LVU439
 1377 003c 0A78     		ldrb	r2, [r1]	@ zero_extendqisi2
 1378              	.LVL107:
 663:Drivers/STM32F4xx_HAL_Driver/Src/stm32f4xx_ll_usb.c ****   }
 1379              		.loc 1 663 82 view .LVU440
 1380 003e 02F00F01 		and	r1, r2, #15
 1381              	.LVL108:
 663:Drivers/STM32F4xx_HAL_Driver/Src/stm32f4xx_ll_usb.c ****   }
 1382              		.loc 1 663 55 view .LVU441
 1383 0042 0122     		movs	r2, #1
 1384 0044 8A40     		lsls	r2, r2, r1
 663:Drivers/STM32F4xx_HAL_Driver/Src/stm32f4xx_ll_usb.c ****   }
 1385              		.loc 1 663 27 view .LVU442
 1386 0046 43EA0243 		orr	r3, r3, r2, lsl #16
 1387 004a C0F83C38 		str	r3, [r0, #2108]
 1388              	.L97:
 666:Drivers/STM32F4xx_HAL_Driver/Src/stm32f4xx_ll_usb.c **** }
 1389              		.loc 1 666 3 is_stmt 1 view .LVU443
 667:Drivers/STM32F4xx_HAL_Driver/Src/stm32f4xx_ll_usb.c **** 
 1390              		.loc 1 667 1 is_stmt 0 view .LVU444
 1391 004e 0020     		movs	r0, #0
 1392              	.LVL109:
 667:Drivers/STM32F4xx_HAL_Driver/Src/stm32f4xx_ll_usb.c **** 
 1393              		.loc 1 667 1 view .LVU445
 1394 0050 10BD     		pop	{r4, pc}
 1395              	.LVL110:
 1396              	.L100:
 644:Drivers/STM32F4xx_HAL_Driver/Src/stm32f4xx_ll_usb.c ****     {
 1397              		.loc 1 644 5 is_stmt 1 view .LVU446
 644:Drivers/STM32F4xx_HAL_Driver/Src/stm32f4xx_ll_usb.c ****     {
 1398              		.loc 1 644 11 is_stmt 0 view .LVU447
 1399 0052 00EB421C 		add	ip, r0, r2, lsl #5
 644:Drivers/STM32F4xx_HAL_Driver/Src/stm32f4xx_ll_usb.c ****     {
 1400              		.loc 1 644 27 view .LVU448
 1401 0056 DCF80039 		ldr	r3, [ip, #2304]
 644:Drivers/STM32F4xx_HAL_Driver/Src/stm32f4xx_ll_usb.c ****     {
 1402              		.loc 1 644 8 view .LVU449
 1403 005a 13F4004F 		tst	r3, #32768
 1404 005e 11D1     		bne	.L96
 646:Drivers/STM32F4xx_HAL_Driver/Src/stm32f4xx_ll_usb.c ****                                    ((uint32_t)ep->type << 18) | (epnum << 22) |
 1405              		.loc 1 646 7 is_stmt 1 view .LVU450
 646:Drivers/STM32F4xx_HAL_Driver/Src/stm32f4xx_ll_usb.c ****                                    ((uint32_t)ep->type << 18) | (epnum << 22) |
 1406              		.loc 1 646 33 is_stmt 0 view .LVU451
 1407 0060 DCF80039 		ldr	r3, [ip, #2304]
 646:Drivers/STM32F4xx_HAL_Driver/Src/stm32f4xx_ll_usb.c ****                                    ((uint32_t)ep->type << 18) | (epnum << 22) |
 1408              		.loc 1 646 39 view .LVU452
 1409 0064 8C68     		ldr	r4, [r1, #8]
 646:Drivers/STM32F4xx_HAL_Driver/Src/stm32f4xx_ll_usb.c ****                                    ((uint32_t)ep->type << 18) | (epnum << 22) |
 1410              		.loc 1 646 51 view .LVU453
 1411 0066 C4F30A04 		ubfx	r4, r4, #0, #11
ARM GAS  C:\Users\ashto\AppData\Local\Temp\ccdF3pho.s 			page 58


 647:Drivers/STM32F4xx_HAL_Driver/Src/stm32f4xx_ll_usb.c ****                                    USB_OTG_DIEPCTL_SD0PID_SEVNFRM |
 1412              		.loc 1 647 49 view .LVU454
 1413 006a 91F804E0 		ldrb	lr, [r1, #4]	@ zero_extendqisi2
 646:Drivers/STM32F4xx_HAL_Driver/Src/stm32f4xx_ll_usb.c ****                                    ((uint32_t)ep->type << 18) | (epnum << 22) |
 1414              		.loc 1 646 76 view .LVU455
 1415 006e 44EA8E44 		orr	r4, r4, lr, lsl #18
 647:Drivers/STM32F4xx_HAL_Driver/Src/stm32f4xx_ll_usb.c ****                                    USB_OTG_DIEPCTL_SD0PID_SEVNFRM |
 1416              		.loc 1 647 63 view .LVU456
 1417 0072 44EA8252 		orr	r2, r4, r2, lsl #22
 1418              	.LVL111:
 646:Drivers/STM32F4xx_HAL_Driver/Src/stm32f4xx_ll_usb.c ****                                    ((uint32_t)ep->type << 18) | (epnum << 22) |
 1419              		.loc 1 646 33 view .LVU457
 1420 0076 1343     		orrs	r3, r3, r2
 1421 0078 43F08053 		orr	r3, r3, #268435456
 1422 007c 43F40043 		orr	r3, r3, #32768
 1423 0080 CCF80039 		str	r3, [ip, #2304]
 1424              	.LVL112:
 1425              	.L96:
 652:Drivers/STM32F4xx_HAL_Driver/Src/stm32f4xx_ll_usb.c ****   }
 1426              		.loc 1 652 5 is_stmt 1 view .LVU458
 652:Drivers/STM32F4xx_HAL_Driver/Src/stm32f4xx_ll_usb.c ****   }
 1427              		.loc 1 652 27 is_stmt 0 view .LVU459
 1428 0084 D0F83C28 		ldr	r2, [r0, #2108]
 652:Drivers/STM32F4xx_HAL_Driver/Src/stm32f4xx_ll_usb.c ****   }
 1429              		.loc 1 652 75 view .LVU460
 1430 0088 0B78     		ldrb	r3, [r1]	@ zero_extendqisi2
 652:Drivers/STM32F4xx_HAL_Driver/Src/stm32f4xx_ll_usb.c ****   }
 1431              		.loc 1 652 81 view .LVU461
 1432 008a 03F00F01 		and	r1, r3, #15
 1433              	.LVL113:
 652:Drivers/STM32F4xx_HAL_Driver/Src/stm32f4xx_ll_usb.c ****   }
 1434              		.loc 1 652 54 view .LVU462
 1435 008e 0123     		movs	r3, #1
 1436 0090 8B40     		lsls	r3, r3, r1
 652:Drivers/STM32F4xx_HAL_Driver/Src/stm32f4xx_ll_usb.c ****   }
 1437              		.loc 1 652 52 view .LVU463
 1438 0092 9BB2     		uxth	r3, r3
 652:Drivers/STM32F4xx_HAL_Driver/Src/stm32f4xx_ll_usb.c ****   }
 1439              		.loc 1 652 27 view .LVU464
 1440 0094 1343     		orrs	r3, r3, r2
 1441 0096 C0F83C38 		str	r3, [r0, #2108]
 1442 009a D8E7     		b	.L97
 1443              		.cfi_endproc
 1444              	.LFE145:
 1446              		.section	.text.USB_DeactivateEndpoint,"ax",%progbits
 1447              		.align	1
 1448              		.global	USB_DeactivateEndpoint
 1449              		.syntax unified
 1450              		.thumb
 1451              		.thumb_func
 1453              	USB_DeactivateEndpoint:
 1454              	.LVL114:
 1455              	.LFB146:
 676:Drivers/STM32F4xx_HAL_Driver/Src/stm32f4xx_ll_usb.c ****   uint32_t USBx_BASE = (uint32_t)USBx;
 1456              		.loc 1 676 1 is_stmt 1 view -0
 1457              		.cfi_startproc
 1458              		@ args = 0, pretend = 0, frame = 0
ARM GAS  C:\Users\ashto\AppData\Local\Temp\ccdF3pho.s 			page 59


 1459              		@ frame_needed = 0, uses_anonymous_args = 0
 1460              		@ link register save eliminated.
 676:Drivers/STM32F4xx_HAL_Driver/Src/stm32f4xx_ll_usb.c ****   uint32_t USBx_BASE = (uint32_t)USBx;
 1461              		.loc 1 676 1 is_stmt 0 view .LVU466
 1462 0000 30B4     		push	{r4, r5}
 1463              	.LCFI21:
 1464              		.cfi_def_cfa_offset 8
 1465              		.cfi_offset 4, -8
 1466              		.cfi_offset 5, -4
 677:Drivers/STM32F4xx_HAL_Driver/Src/stm32f4xx_ll_usb.c ****   uint32_t epnum = (uint32_t)ep->num;
 1467              		.loc 1 677 3 is_stmt 1 view .LVU467
 1468              	.LVL115:
 678:Drivers/STM32F4xx_HAL_Driver/Src/stm32f4xx_ll_usb.c **** 
 1469              		.loc 1 678 3 view .LVU468
 678:Drivers/STM32F4xx_HAL_Driver/Src/stm32f4xx_ll_usb.c **** 
 1470              		.loc 1 678 32 is_stmt 0 view .LVU469
 1471 0002 0B78     		ldrb	r3, [r1]	@ zero_extendqisi2
 1472              	.LVL116:
 681:Drivers/STM32F4xx_HAL_Driver/Src/stm32f4xx_ll_usb.c ****   {
 1473              		.loc 1 681 3 is_stmt 1 view .LVU470
 681:Drivers/STM32F4xx_HAL_Driver/Src/stm32f4xx_ll_usb.c ****   {
 1474              		.loc 1 681 9 is_stmt 0 view .LVU471
 1475 0004 4A78     		ldrb	r2, [r1, #1]	@ zero_extendqisi2
 681:Drivers/STM32F4xx_HAL_Driver/Src/stm32f4xx_ll_usb.c ****   {
 1476              		.loc 1 681 6 view .LVU472
 1477 0006 012A     		cmp	r2, #1
 1478 0008 26D0     		beq	.L107
 699:Drivers/STM32F4xx_HAL_Driver/Src/stm32f4xx_ll_usb.c ****     {
 1479              		.loc 1 699 5 is_stmt 1 view .LVU473
 699:Drivers/STM32F4xx_HAL_Driver/Src/stm32f4xx_ll_usb.c ****     {
 1480              		.loc 1 699 10 is_stmt 0 view .LVU474
 1481 000a 00EB4313 		add	r3, r0, r3, lsl #5
 1482              	.LVL117:
 699:Drivers/STM32F4xx_HAL_Driver/Src/stm32f4xx_ll_usb.c ****     {
 1483              		.loc 1 699 27 view .LVU475
 1484 000e D3F8002B 		ldr	r2, [r3, #2816]
 699:Drivers/STM32F4xx_HAL_Driver/Src/stm32f4xx_ll_usb.c ****     {
 1485              		.loc 1 699 8 view .LVU476
 1486 0012 002A     		cmp	r2, #0
 1487 0014 52DB     		blt	.L108
 1488              	.LVL118:
 1489              	.L105:
 705:Drivers/STM32F4xx_HAL_Driver/Src/stm32f4xx_ll_usb.c ****     USBx_DEVICE->DAINTMSK &= ~(USB_OTG_DAINTMSK_OEPM & ((uint32_t)(1UL << (ep->num & EP_ADDR_MSK)) 
 1490              		.loc 1 705 5 is_stmt 1 view .LVU477
 705:Drivers/STM32F4xx_HAL_Driver/Src/stm32f4xx_ll_usb.c ****     USBx_DEVICE->DAINTMSK &= ~(USB_OTG_DAINTMSK_OEPM & ((uint32_t)(1UL << (ep->num & EP_ADDR_MSK)) 
 1491              		.loc 1 705 27 is_stmt 0 view .LVU478
 1492 0016 D0F83C48 		ldr	r4, [r0, #2108]
 705:Drivers/STM32F4xx_HAL_Driver/Src/stm32f4xx_ll_usb.c ****     USBx_DEVICE->DAINTMSK &= ~(USB_OTG_DAINTMSK_OEPM & ((uint32_t)(1UL << (ep->num & EP_ADDR_MSK)) 
 1493              		.loc 1 705 78 view .LVU479
 1494 001a 0A78     		ldrb	r2, [r1]	@ zero_extendqisi2
 705:Drivers/STM32F4xx_HAL_Driver/Src/stm32f4xx_ll_usb.c ****     USBx_DEVICE->DAINTMSK &= ~(USB_OTG_DAINTMSK_OEPM & ((uint32_t)(1UL << (ep->num & EP_ADDR_MSK)) 
 1495              		.loc 1 705 84 view .LVU480
 1496 001c 02F00F02 		and	r2, r2, #15
 705:Drivers/STM32F4xx_HAL_Driver/Src/stm32f4xx_ll_usb.c ****     USBx_DEVICE->DAINTMSK &= ~(USB_OTG_DAINTMSK_OEPM & ((uint32_t)(1UL << (ep->num & EP_ADDR_MSK)) 
 1497              		.loc 1 705 57 view .LVU481
 1498 0020 4FF0010C 		mov	ip, #1
 1499 0024 0CFA02F2 		lsl	r2, ip, r2
ARM GAS  C:\Users\ashto\AppData\Local\Temp\ccdF3pho.s 			page 60


 705:Drivers/STM32F4xx_HAL_Driver/Src/stm32f4xx_ll_usb.c ****     USBx_DEVICE->DAINTMSK &= ~(USB_OTG_DAINTMSK_OEPM & ((uint32_t)(1UL << (ep->num & EP_ADDR_MSK)) 
 1500              		.loc 1 705 27 view .LVU482
 1501 0028 24EA0242 		bic	r2, r4, r2, lsl #16
 1502 002c C0F83C28 		str	r2, [r0, #2108]
 706:Drivers/STM32F4xx_HAL_Driver/Src/stm32f4xx_ll_usb.c ****     USBx_OUTEP(epnum)->DOEPCTL &= ~(USB_OTG_DOEPCTL_USBAEP |
 1503              		.loc 1 706 5 is_stmt 1 view .LVU483
 706:Drivers/STM32F4xx_HAL_Driver/Src/stm32f4xx_ll_usb.c ****     USBx_OUTEP(epnum)->DOEPCTL &= ~(USB_OTG_DOEPCTL_USBAEP |
 1504              		.loc 1 706 27 is_stmt 0 view .LVU484
 1505 0030 D0F81C28 		ldr	r2, [r0, #2076]
 706:Drivers/STM32F4xx_HAL_Driver/Src/stm32f4xx_ll_usb.c ****     USBx_OUTEP(epnum)->DOEPCTL &= ~(USB_OTG_DOEPCTL_USBAEP |
 1506              		.loc 1 706 78 view .LVU485
 1507 0034 0978     		ldrb	r1, [r1]	@ zero_extendqisi2
 1508              	.LVL119:
 706:Drivers/STM32F4xx_HAL_Driver/Src/stm32f4xx_ll_usb.c ****     USBx_OUTEP(epnum)->DOEPCTL &= ~(USB_OTG_DOEPCTL_USBAEP |
 1509              		.loc 1 706 84 view .LVU486
 1510 0036 01F00F01 		and	r1, r1, #15
 706:Drivers/STM32F4xx_HAL_Driver/Src/stm32f4xx_ll_usb.c ****     USBx_OUTEP(epnum)->DOEPCTL &= ~(USB_OTG_DOEPCTL_USBAEP |
 1511              		.loc 1 706 57 view .LVU487
 1512 003a 0CFA01FC 		lsl	ip, ip, r1
 706:Drivers/STM32F4xx_HAL_Driver/Src/stm32f4xx_ll_usb.c ****     USBx_OUTEP(epnum)->DOEPCTL &= ~(USB_OTG_DOEPCTL_USBAEP |
 1513              		.loc 1 706 27 view .LVU488
 1514 003e 22EA0C42 		bic	r2, r2, ip, lsl #16
 1515 0042 C0F81C28 		str	r2, [r0, #2076]
 707:Drivers/STM32F4xx_HAL_Driver/Src/stm32f4xx_ll_usb.c ****                                     USB_OTG_DOEPCTL_MPSIZ |
 1516              		.loc 1 707 5 is_stmt 1 view .LVU489
 707:Drivers/STM32F4xx_HAL_Driver/Src/stm32f4xx_ll_usb.c ****                                     USB_OTG_DOEPCTL_MPSIZ |
 1517              		.loc 1 707 32 is_stmt 0 view .LVU490
 1518 0046 D3F8001B 		ldr	r1, [r3, #2816]
 1519 004a 234A     		ldr	r2, .L110
 1520 004c 0A40     		ands	r2, r2, r1
 1521 004e C3F8002B 		str	r2, [r3, #2816]
 1522              	.L104:
 713:Drivers/STM32F4xx_HAL_Driver/Src/stm32f4xx_ll_usb.c **** }
 1523              		.loc 1 713 3 is_stmt 1 view .LVU491
 714:Drivers/STM32F4xx_HAL_Driver/Src/stm32f4xx_ll_usb.c **** 
 1524              		.loc 1 714 1 is_stmt 0 view .LVU492
 1525 0052 0020     		movs	r0, #0
 1526              	.LVL120:
 714:Drivers/STM32F4xx_HAL_Driver/Src/stm32f4xx_ll_usb.c **** 
 1527              		.loc 1 714 1 view .LVU493
 1528 0054 30BC     		pop	{r4, r5}
 1529              	.LCFI22:
 1530              		.cfi_remember_state
 1531              		.cfi_restore 5
 1532              		.cfi_restore 4
 1533              		.cfi_def_cfa_offset 0
 1534 0056 7047     		bx	lr
 1535              	.LVL121:
 1536              	.L107:
 1537              	.LCFI23:
 1538              		.cfi_restore_state
 683:Drivers/STM32F4xx_HAL_Driver/Src/stm32f4xx_ll_usb.c ****     {
 1539              		.loc 1 683 5 is_stmt 1 view .LVU494
 683:Drivers/STM32F4xx_HAL_Driver/Src/stm32f4xx_ll_usb.c ****     {
 1540              		.loc 1 683 10 is_stmt 0 view .LVU495
 1541 0058 00EB4313 		add	r3, r0, r3, lsl #5
 1542              	.LVL122:
ARM GAS  C:\Users\ashto\AppData\Local\Temp\ccdF3pho.s 			page 61


 683:Drivers/STM32F4xx_HAL_Driver/Src/stm32f4xx_ll_usb.c ****     {
 1543              		.loc 1 683 26 view .LVU496
 1544 005c D3F80029 		ldr	r2, [r3, #2304]
 683:Drivers/STM32F4xx_HAL_Driver/Src/stm32f4xx_ll_usb.c ****     {
 1545              		.loc 1 683 8 view .LVU497
 1546 0060 002A     		cmp	r2, #0
 1547 0062 1EDB     		blt	.L109
 1548              	.LVL123:
 1549              	.L103:
 689:Drivers/STM32F4xx_HAL_Driver/Src/stm32f4xx_ll_usb.c ****     USBx_DEVICE->DAINTMSK &= ~(USB_OTG_DAINTMSK_IEPM & (uint32_t)(1UL << (ep->num & EP_ADDR_MSK)));
 1550              		.loc 1 689 5 is_stmt 1 view .LVU498
 689:Drivers/STM32F4xx_HAL_Driver/Src/stm32f4xx_ll_usb.c ****     USBx_DEVICE->DAINTMSK &= ~(USB_OTG_DAINTMSK_IEPM & (uint32_t)(1UL << (ep->num & EP_ADDR_MSK)));
 1551              		.loc 1 689 27 is_stmt 0 view .LVU499
 1552 0064 D0F83C58 		ldr	r5, [r0, #2108]
 689:Drivers/STM32F4xx_HAL_Driver/Src/stm32f4xx_ll_usb.c ****     USBx_DEVICE->DAINTMSK &= ~(USB_OTG_DAINTMSK_IEPM & (uint32_t)(1UL << (ep->num & EP_ADDR_MSK)));
 1553              		.loc 1 689 77 view .LVU500
 1554 0068 0A78     		ldrb	r2, [r1]	@ zero_extendqisi2
 689:Drivers/STM32F4xx_HAL_Driver/Src/stm32f4xx_ll_usb.c ****     USBx_DEVICE->DAINTMSK &= ~(USB_OTG_DAINTMSK_IEPM & (uint32_t)(1UL << (ep->num & EP_ADDR_MSK)));
 1555              		.loc 1 689 83 view .LVU501
 1556 006a 02F00F02 		and	r2, r2, #15
 689:Drivers/STM32F4xx_HAL_Driver/Src/stm32f4xx_ll_usb.c ****     USBx_DEVICE->DAINTMSK &= ~(USB_OTG_DAINTMSK_IEPM & (uint32_t)(1UL << (ep->num & EP_ADDR_MSK)));
 1557              		.loc 1 689 56 view .LVU502
 1558 006e 0124     		movs	r4, #1
 1559 0070 04FA02F2 		lsl	r2, r4, r2
 689:Drivers/STM32F4xx_HAL_Driver/Src/stm32f4xx_ll_usb.c ****     USBx_DEVICE->DAINTMSK &= ~(USB_OTG_DAINTMSK_IEPM & (uint32_t)(1UL << (ep->num & EP_ADDR_MSK)));
 1560              		.loc 1 689 54 view .LVU503
 1561 0074 92B2     		uxth	r2, r2
 689:Drivers/STM32F4xx_HAL_Driver/Src/stm32f4xx_ll_usb.c ****     USBx_DEVICE->DAINTMSK &= ~(USB_OTG_DAINTMSK_IEPM & (uint32_t)(1UL << (ep->num & EP_ADDR_MSK)));
 1562              		.loc 1 689 27 view .LVU504
 1563 0076 25EA0202 		bic	r2, r5, r2
 1564 007a C0F83C28 		str	r2, [r0, #2108]
 690:Drivers/STM32F4xx_HAL_Driver/Src/stm32f4xx_ll_usb.c ****     USBx_INEP(epnum)->DIEPCTL &= ~(USB_OTG_DIEPCTL_USBAEP |
 1565              		.loc 1 690 5 is_stmt 1 view .LVU505
 690:Drivers/STM32F4xx_HAL_Driver/Src/stm32f4xx_ll_usb.c ****     USBx_INEP(epnum)->DIEPCTL &= ~(USB_OTG_DIEPCTL_USBAEP |
 1566              		.loc 1 690 27 is_stmt 0 view .LVU506
 1567 007e D0F81C28 		ldr	r2, [r0, #2076]
 690:Drivers/STM32F4xx_HAL_Driver/Src/stm32f4xx_ll_usb.c ****     USBx_INEP(epnum)->DIEPCTL &= ~(USB_OTG_DIEPCTL_USBAEP |
 1568              		.loc 1 690 77 view .LVU507
 1569 0082 0978     		ldrb	r1, [r1]	@ zero_extendqisi2
 1570              	.LVL124:
 690:Drivers/STM32F4xx_HAL_Driver/Src/stm32f4xx_ll_usb.c ****     USBx_INEP(epnum)->DIEPCTL &= ~(USB_OTG_DIEPCTL_USBAEP |
 1571              		.loc 1 690 83 view .LVU508
 1572 0084 01F00F01 		and	r1, r1, #15
 690:Drivers/STM32F4xx_HAL_Driver/Src/stm32f4xx_ll_usb.c ****     USBx_INEP(epnum)->DIEPCTL &= ~(USB_OTG_DIEPCTL_USBAEP |
 1573              		.loc 1 690 56 view .LVU509
 1574 0088 8C40     		lsls	r4, r4, r1
 690:Drivers/STM32F4xx_HAL_Driver/Src/stm32f4xx_ll_usb.c ****     USBx_INEP(epnum)->DIEPCTL &= ~(USB_OTG_DIEPCTL_USBAEP |
 1575              		.loc 1 690 54 view .LVU510
 1576 008a A4B2     		uxth	r4, r4
 690:Drivers/STM32F4xx_HAL_Driver/Src/stm32f4xx_ll_usb.c ****     USBx_INEP(epnum)->DIEPCTL &= ~(USB_OTG_DIEPCTL_USBAEP |
 1577              		.loc 1 690 27 view .LVU511
 1578 008c 22EA0404 		bic	r4, r2, r4
 1579 0090 C0F81C48 		str	r4, [r0, #2076]
 691:Drivers/STM32F4xx_HAL_Driver/Src/stm32f4xx_ll_usb.c ****                                    USB_OTG_DIEPCTL_MPSIZ |
 1580              		.loc 1 691 5 is_stmt 1 view .LVU512
 691:Drivers/STM32F4xx_HAL_Driver/Src/stm32f4xx_ll_usb.c ****                                    USB_OTG_DIEPCTL_MPSIZ |
 1581              		.loc 1 691 31 is_stmt 0 view .LVU513
ARM GAS  C:\Users\ashto\AppData\Local\Temp\ccdF3pho.s 			page 62


 1582 0094 D3F80019 		ldr	r1, [r3, #2304]
 1583 0098 104A     		ldr	r2, .L110+4
 1584 009a 0A40     		ands	r2, r2, r1
 1585 009c C3F80029 		str	r2, [r3, #2304]
 1586 00a0 D7E7     		b	.L104
 1587              	.LVL125:
 1588              	.L109:
 685:Drivers/STM32F4xx_HAL_Driver/Src/stm32f4xx_ll_usb.c ****       USBx_INEP(epnum)->DIEPCTL |= USB_OTG_DIEPCTL_EPDIS;
 1589              		.loc 1 685 7 is_stmt 1 view .LVU514
 685:Drivers/STM32F4xx_HAL_Driver/Src/stm32f4xx_ll_usb.c ****       USBx_INEP(epnum)->DIEPCTL |= USB_OTG_DIEPCTL_EPDIS;
 1590              		.loc 1 685 33 is_stmt 0 view .LVU515
 1591 00a2 D3F80029 		ldr	r2, [r3, #2304]
 1592 00a6 42F00062 		orr	r2, r2, #134217728
 1593 00aa C3F80029 		str	r2, [r3, #2304]
 1594              	.LVL126:
 686:Drivers/STM32F4xx_HAL_Driver/Src/stm32f4xx_ll_usb.c ****     }
 1595              		.loc 1 686 7 is_stmt 1 view .LVU516
 686:Drivers/STM32F4xx_HAL_Driver/Src/stm32f4xx_ll_usb.c ****     }
 1596              		.loc 1 686 33 is_stmt 0 view .LVU517
 1597 00ae D3F80029 		ldr	r2, [r3, #2304]
 1598 00b2 42F08042 		orr	r2, r2, #1073741824
 1599 00b6 C3F80029 		str	r2, [r3, #2304]
 1600 00ba D3E7     		b	.L103
 1601              	.LVL127:
 1602              	.L108:
 701:Drivers/STM32F4xx_HAL_Driver/Src/stm32f4xx_ll_usb.c ****       USBx_OUTEP(epnum)->DOEPCTL |= USB_OTG_DOEPCTL_EPDIS;
 1603              		.loc 1 701 7 is_stmt 1 view .LVU518
 701:Drivers/STM32F4xx_HAL_Driver/Src/stm32f4xx_ll_usb.c ****       USBx_OUTEP(epnum)->DOEPCTL |= USB_OTG_DOEPCTL_EPDIS;
 1604              		.loc 1 701 34 is_stmt 0 view .LVU519
 1605 00bc D3F8002B 		ldr	r2, [r3, #2816]
 1606 00c0 42F00062 		orr	r2, r2, #134217728
 1607 00c4 C3F8002B 		str	r2, [r3, #2816]
 1608              	.LVL128:
 702:Drivers/STM32F4xx_HAL_Driver/Src/stm32f4xx_ll_usb.c ****     }
 1609              		.loc 1 702 7 is_stmt 1 view .LVU520
 702:Drivers/STM32F4xx_HAL_Driver/Src/stm32f4xx_ll_usb.c ****     }
 1610              		.loc 1 702 34 is_stmt 0 view .LVU521
 1611 00c8 D3F8002B 		ldr	r2, [r3, #2816]
 1612 00cc 42F08042 		orr	r2, r2, #1073741824
 1613 00d0 C3F8002B 		str	r2, [r3, #2816]
 1614 00d4 9FE7     		b	.L105
 1615              	.L111:
 1616 00d6 00BF     		.align	2
 1617              	.L110:
 1618 00d8 0078F3EF 		.word	-269256704
 1619 00dc 007833EC 		.word	-332171264
 1620              		.cfi_endproc
 1621              	.LFE146:
 1623              		.section	.text.USB_DeactivateDedicatedEndpoint,"ax",%progbits
 1624              		.align	1
 1625              		.global	USB_DeactivateDedicatedEndpoint
 1626              		.syntax unified
 1627              		.thumb
 1628              		.thumb_func
 1630              	USB_DeactivateDedicatedEndpoint:
 1631              	.LVL129:
 1632              	.LFB147:
ARM GAS  C:\Users\ashto\AppData\Local\Temp\ccdF3pho.s 			page 63


 723:Drivers/STM32F4xx_HAL_Driver/Src/stm32f4xx_ll_usb.c ****   uint32_t USBx_BASE = (uint32_t)USBx;
 1633              		.loc 1 723 1 is_stmt 1 view -0
 1634              		.cfi_startproc
 1635              		@ args = 0, pretend = 0, frame = 0
 1636              		@ frame_needed = 0, uses_anonymous_args = 0
 1637              		@ link register save eliminated.
 724:Drivers/STM32F4xx_HAL_Driver/Src/stm32f4xx_ll_usb.c ****   uint32_t epnum = (uint32_t)ep->num;
 1638              		.loc 1 724 3 view .LVU523
 725:Drivers/STM32F4xx_HAL_Driver/Src/stm32f4xx_ll_usb.c **** 
 1639              		.loc 1 725 3 view .LVU524
 725:Drivers/STM32F4xx_HAL_Driver/Src/stm32f4xx_ll_usb.c **** 
 1640              		.loc 1 725 32 is_stmt 0 view .LVU525
 1641 0000 0B78     		ldrb	r3, [r1]	@ zero_extendqisi2
 1642              	.LVL130:
 728:Drivers/STM32F4xx_HAL_Driver/Src/stm32f4xx_ll_usb.c ****   {
 1643              		.loc 1 728 3 is_stmt 1 view .LVU526
 728:Drivers/STM32F4xx_HAL_Driver/Src/stm32f4xx_ll_usb.c ****   {
 1644              		.loc 1 728 9 is_stmt 0 view .LVU527
 1645 0002 4A78     		ldrb	r2, [r1, #1]	@ zero_extendqisi2
 728:Drivers/STM32F4xx_HAL_Driver/Src/stm32f4xx_ll_usb.c ****   {
 1646              		.loc 1 728 6 view .LVU528
 1647 0004 012A     		cmp	r2, #1
 1648 0006 18D0     		beq	.L117
 741:Drivers/STM32F4xx_HAL_Driver/Src/stm32f4xx_ll_usb.c ****     {
 1649              		.loc 1 741 5 is_stmt 1 view .LVU529
 741:Drivers/STM32F4xx_HAL_Driver/Src/stm32f4xx_ll_usb.c ****     {
 1650              		.loc 1 741 10 is_stmt 0 view .LVU530
 1651 0008 00EB4313 		add	r3, r0, r3, lsl #5
 1652              	.LVL131:
 741:Drivers/STM32F4xx_HAL_Driver/Src/stm32f4xx_ll_usb.c ****     {
 1653              		.loc 1 741 27 view .LVU531
 1654 000c D3F8002B 		ldr	r2, [r3, #2816]
 741:Drivers/STM32F4xx_HAL_Driver/Src/stm32f4xx_ll_usb.c ****     {
 1655              		.loc 1 741 8 view .LVU532
 1656 0010 002A     		cmp	r2, #0
 1657 0012 38DB     		blt	.L118
 1658              	.LVL132:
 1659              	.L116:
 747:Drivers/STM32F4xx_HAL_Driver/Src/stm32f4xx_ll_usb.c ****     USBx_DEVICE->DAINTMSK &= ~(USB_OTG_DAINTMSK_OEPM & ((uint32_t)(1UL << (ep->num & EP_ADDR_MSK)) 
 1660              		.loc 1 747 5 is_stmt 1 view .LVU533
 747:Drivers/STM32F4xx_HAL_Driver/Src/stm32f4xx_ll_usb.c ****     USBx_DEVICE->DAINTMSK &= ~(USB_OTG_DAINTMSK_OEPM & ((uint32_t)(1UL << (ep->num & EP_ADDR_MSK)) 
 1661              		.loc 1 747 32 is_stmt 0 view .LVU534
 1662 0014 D3F8002B 		ldr	r2, [r3, #2816]
 1663 0018 22F40042 		bic	r2, r2, #32768
 1664 001c C3F8002B 		str	r2, [r3, #2816]
 748:Drivers/STM32F4xx_HAL_Driver/Src/stm32f4xx_ll_usb.c ****   }
 1665              		.loc 1 748 5 is_stmt 1 view .LVU535
 748:Drivers/STM32F4xx_HAL_Driver/Src/stm32f4xx_ll_usb.c ****   }
 1666              		.loc 1 748 27 is_stmt 0 view .LVU536
 1667 0020 D0F81C38 		ldr	r3, [r0, #2076]
 748:Drivers/STM32F4xx_HAL_Driver/Src/stm32f4xx_ll_usb.c ****   }
 1668              		.loc 1 748 78 view .LVU537
 1669 0024 0A78     		ldrb	r2, [r1]	@ zero_extendqisi2
 748:Drivers/STM32F4xx_HAL_Driver/Src/stm32f4xx_ll_usb.c ****   }
 1670              		.loc 1 748 84 view .LVU538
 1671 0026 02F00F01 		and	r1, r2, #15
 1672              	.LVL133:
ARM GAS  C:\Users\ashto\AppData\Local\Temp\ccdF3pho.s 			page 64


 748:Drivers/STM32F4xx_HAL_Driver/Src/stm32f4xx_ll_usb.c ****   }
 1673              		.loc 1 748 57 view .LVU539
 1674 002a 0122     		movs	r2, #1
 1675 002c 8A40     		lsls	r2, r2, r1
 748:Drivers/STM32F4xx_HAL_Driver/Src/stm32f4xx_ll_usb.c ****   }
 1676              		.loc 1 748 27 view .LVU540
 1677 002e 23EA0243 		bic	r3, r3, r2, lsl #16
 1678 0032 C0F81C38 		str	r3, [r0, #2076]
 1679              	.L115:
 751:Drivers/STM32F4xx_HAL_Driver/Src/stm32f4xx_ll_usb.c **** }
 1680              		.loc 1 751 3 is_stmt 1 view .LVU541
 752:Drivers/STM32F4xx_HAL_Driver/Src/stm32f4xx_ll_usb.c **** 
 1681              		.loc 1 752 1 is_stmt 0 view .LVU542
 1682 0036 0020     		movs	r0, #0
 1683              	.LVL134:
 752:Drivers/STM32F4xx_HAL_Driver/Src/stm32f4xx_ll_usb.c **** 
 1684              		.loc 1 752 1 view .LVU543
 1685 0038 7047     		bx	lr
 1686              	.LVL135:
 1687              	.L117:
 730:Drivers/STM32F4xx_HAL_Driver/Src/stm32f4xx_ll_usb.c ****     {
 1688              		.loc 1 730 5 is_stmt 1 view .LVU544
 730:Drivers/STM32F4xx_HAL_Driver/Src/stm32f4xx_ll_usb.c ****     {
 1689              		.loc 1 730 10 is_stmt 0 view .LVU545
 1690 003a 00EB4313 		add	r3, r0, r3, lsl #5
 1691              	.LVL136:
 730:Drivers/STM32F4xx_HAL_Driver/Src/stm32f4xx_ll_usb.c ****     {
 1692              		.loc 1 730 26 view .LVU546
 1693 003e D3F80029 		ldr	r2, [r3, #2304]
 730:Drivers/STM32F4xx_HAL_Driver/Src/stm32f4xx_ll_usb.c ****     {
 1694              		.loc 1 730 8 view .LVU547
 1695 0042 002A     		cmp	r2, #0
 1696 0044 12DB     		blt	.L119
 1697              	.LVL137:
 1698              	.L114:
 736:Drivers/STM32F4xx_HAL_Driver/Src/stm32f4xx_ll_usb.c ****     USBx_DEVICE->DAINTMSK &= ~(USB_OTG_DAINTMSK_IEPM & (uint32_t)(1UL << (ep->num & EP_ADDR_MSK)));
 1699              		.loc 1 736 5 is_stmt 1 view .LVU548
 736:Drivers/STM32F4xx_HAL_Driver/Src/stm32f4xx_ll_usb.c ****     USBx_DEVICE->DAINTMSK &= ~(USB_OTG_DAINTMSK_IEPM & (uint32_t)(1UL << (ep->num & EP_ADDR_MSK)));
 1700              		.loc 1 736 31 is_stmt 0 view .LVU549
 1701 0046 D3F80029 		ldr	r2, [r3, #2304]
 1702 004a 22F40042 		bic	r2, r2, #32768
 1703 004e C3F80029 		str	r2, [r3, #2304]
 737:Drivers/STM32F4xx_HAL_Driver/Src/stm32f4xx_ll_usb.c ****   }
 1704              		.loc 1 737 5 is_stmt 1 view .LVU550
 737:Drivers/STM32F4xx_HAL_Driver/Src/stm32f4xx_ll_usb.c ****   }
 1705              		.loc 1 737 27 is_stmt 0 view .LVU551
 1706 0052 D0F81C28 		ldr	r2, [r0, #2076]
 737:Drivers/STM32F4xx_HAL_Driver/Src/stm32f4xx_ll_usb.c ****   }
 1707              		.loc 1 737 77 view .LVU552
 1708 0056 0B78     		ldrb	r3, [r1]	@ zero_extendqisi2
 737:Drivers/STM32F4xx_HAL_Driver/Src/stm32f4xx_ll_usb.c ****   }
 1709              		.loc 1 737 83 view .LVU553
 1710 0058 03F00F01 		and	r1, r3, #15
 1711              	.LVL138:
 737:Drivers/STM32F4xx_HAL_Driver/Src/stm32f4xx_ll_usb.c ****   }
 1712              		.loc 1 737 56 view .LVU554
 1713 005c 0123     		movs	r3, #1
ARM GAS  C:\Users\ashto\AppData\Local\Temp\ccdF3pho.s 			page 65


 1714 005e 8B40     		lsls	r3, r3, r1
 737:Drivers/STM32F4xx_HAL_Driver/Src/stm32f4xx_ll_usb.c ****   }
 1715              		.loc 1 737 54 view .LVU555
 1716 0060 9BB2     		uxth	r3, r3
 737:Drivers/STM32F4xx_HAL_Driver/Src/stm32f4xx_ll_usb.c ****   }
 1717              		.loc 1 737 27 view .LVU556
 1718 0062 22EA0303 		bic	r3, r2, r3
 1719 0066 C0F81C38 		str	r3, [r0, #2076]
 1720 006a E4E7     		b	.L115
 1721              	.LVL139:
 1722              	.L119:
 732:Drivers/STM32F4xx_HAL_Driver/Src/stm32f4xx_ll_usb.c ****       USBx_INEP(epnum)->DIEPCTL  |= USB_OTG_DIEPCTL_EPDIS;
 1723              		.loc 1 732 7 is_stmt 1 view .LVU557
 732:Drivers/STM32F4xx_HAL_Driver/Src/stm32f4xx_ll_usb.c ****       USBx_INEP(epnum)->DIEPCTL  |= USB_OTG_DIEPCTL_EPDIS;
 1724              		.loc 1 732 34 is_stmt 0 view .LVU558
 1725 006c D3F80029 		ldr	r2, [r3, #2304]
 1726 0070 42F00062 		orr	r2, r2, #134217728
 1727 0074 C3F80029 		str	r2, [r3, #2304]
 1728              	.LVL140:
 733:Drivers/STM32F4xx_HAL_Driver/Src/stm32f4xx_ll_usb.c ****     }
 1729              		.loc 1 733 7 is_stmt 1 view .LVU559
 733:Drivers/STM32F4xx_HAL_Driver/Src/stm32f4xx_ll_usb.c ****     }
 1730              		.loc 1 733 34 is_stmt 0 view .LVU560
 1731 0078 D3F80029 		ldr	r2, [r3, #2304]
 1732 007c 42F08042 		orr	r2, r2, #1073741824
 1733 0080 C3F80029 		str	r2, [r3, #2304]
 1734 0084 DFE7     		b	.L114
 1735              	.LVL141:
 1736              	.L118:
 743:Drivers/STM32F4xx_HAL_Driver/Src/stm32f4xx_ll_usb.c ****       USBx_OUTEP(epnum)->DOEPCTL  |= USB_OTG_DOEPCTL_EPDIS;
 1737              		.loc 1 743 7 is_stmt 1 view .LVU561
 743:Drivers/STM32F4xx_HAL_Driver/Src/stm32f4xx_ll_usb.c ****       USBx_OUTEP(epnum)->DOEPCTL  |= USB_OTG_DOEPCTL_EPDIS;
 1738              		.loc 1 743 35 is_stmt 0 view .LVU562
 1739 0086 D3F8002B 		ldr	r2, [r3, #2816]
 1740 008a 42F00062 		orr	r2, r2, #134217728
 1741 008e C3F8002B 		str	r2, [r3, #2816]
 1742              	.LVL142:
 744:Drivers/STM32F4xx_HAL_Driver/Src/stm32f4xx_ll_usb.c ****     }
 1743              		.loc 1 744 7 is_stmt 1 view .LVU563
 744:Drivers/STM32F4xx_HAL_Driver/Src/stm32f4xx_ll_usb.c ****     }
 1744              		.loc 1 744 35 is_stmt 0 view .LVU564
 1745 0092 D3F8002B 		ldr	r2, [r3, #2816]
 1746 0096 42F08042 		orr	r2, r2, #1073741824
 1747 009a C3F8002B 		str	r2, [r3, #2816]
 1748 009e B9E7     		b	.L116
 1749              		.cfi_endproc
 1750              	.LFE147:
 1752              		.section	.text.USB_EPStopXfer,"ax",%progbits
 1753              		.align	1
 1754              		.global	USB_EPStopXfer
 1755              		.syntax unified
 1756              		.thumb
 1757              		.thumb_func
 1759              	USB_EPStopXfer:
 1760              	.LVL143:
 1761              	.LFB149:
 937:Drivers/STM32F4xx_HAL_Driver/Src/stm32f4xx_ll_usb.c ****   __IO uint32_t count = 0U;
ARM GAS  C:\Users\ashto\AppData\Local\Temp\ccdF3pho.s 			page 66


 1762              		.loc 1 937 1 is_stmt 1 view -0
 1763              		.cfi_startproc
 1764              		@ args = 0, pretend = 0, frame = 8
 1765              		@ frame_needed = 0, uses_anonymous_args = 0
 1766              		@ link register save eliminated.
 937:Drivers/STM32F4xx_HAL_Driver/Src/stm32f4xx_ll_usb.c ****   __IO uint32_t count = 0U;
 1767              		.loc 1 937 1 is_stmt 0 view .LVU566
 1768 0000 10B4     		push	{r4}
 1769              	.LCFI24:
 1770              		.cfi_def_cfa_offset 4
 1771              		.cfi_offset 4, -4
 1772 0002 83B0     		sub	sp, sp, #12
 1773              	.LCFI25:
 1774              		.cfi_def_cfa_offset 16
 1775 0004 0246     		mov	r2, r0
 938:Drivers/STM32F4xx_HAL_Driver/Src/stm32f4xx_ll_usb.c ****   HAL_StatusTypeDef ret = HAL_OK;
 1776              		.loc 1 938 3 is_stmt 1 view .LVU567
 938:Drivers/STM32F4xx_HAL_Driver/Src/stm32f4xx_ll_usb.c ****   HAL_StatusTypeDef ret = HAL_OK;
 1777              		.loc 1 938 17 is_stmt 0 view .LVU568
 1778 0006 0023     		movs	r3, #0
 1779 0008 0193     		str	r3, [sp, #4]
 939:Drivers/STM32F4xx_HAL_Driver/Src/stm32f4xx_ll_usb.c ****   uint32_t USBx_BASE = (uint32_t)USBx;
 1780              		.loc 1 939 3 is_stmt 1 view .LVU569
 1781              	.LVL144:
 940:Drivers/STM32F4xx_HAL_Driver/Src/stm32f4xx_ll_usb.c **** 
 1782              		.loc 1 940 3 view .LVU570
 943:Drivers/STM32F4xx_HAL_Driver/Src/stm32f4xx_ll_usb.c ****   {
 1783              		.loc 1 943 3 view .LVU571
 943:Drivers/STM32F4xx_HAL_Driver/Src/stm32f4xx_ll_usb.c ****   {
 1784              		.loc 1 943 9 is_stmt 0 view .LVU572
 1785 000a 4878     		ldrb	r0, [r1, #1]	@ zero_extendqisi2
 1786              	.LVL145:
 943:Drivers/STM32F4xx_HAL_Driver/Src/stm32f4xx_ll_usb.c ****   {
 1787              		.loc 1 943 6 view .LVU573
 1788 000c 0128     		cmp	r0, #1
 1789 000e 0BD0     		beq	.L129
 965:Drivers/STM32F4xx_HAL_Driver/Src/stm32f4xx_ll_usb.c ****     {
 1790              		.loc 1 965 5 is_stmt 1 view .LVU574
 965:Drivers/STM32F4xx_HAL_Driver/Src/stm32f4xx_ll_usb.c ****     {
 1791              		.loc 1 965 11 is_stmt 0 view .LVU575
 1792 0010 0B78     		ldrb	r3, [r1]	@ zero_extendqisi2
 1793 0012 02EB4313 		add	r3, r2, r3, lsl #5
 965:Drivers/STM32F4xx_HAL_Driver/Src/stm32f4xx_ll_usb.c ****     {
 1794              		.loc 1 965 30 view .LVU576
 1795 0016 D3F8000B 		ldr	r0, [r3, #2816]
 965:Drivers/STM32F4xx_HAL_Driver/Src/stm32f4xx_ll_usb.c ****     {
 1796              		.loc 1 965 8 view .LVU577
 1797 001a 0028     		cmp	r0, #0
 1798 001c 2DDB     		blt	.L130
 939:Drivers/STM32F4xx_HAL_Driver/Src/stm32f4xx_ll_usb.c ****   uint32_t USBx_BASE = (uint32_t)USBx;
 1799              		.loc 1 939 21 view .LVU578
 1800 001e 0020     		movs	r0, #0
 1801              	.L122:
 1802              	.LVL146:
 983:Drivers/STM32F4xx_HAL_Driver/Src/stm32f4xx_ll_usb.c **** }
 1803              		.loc 1 983 3 is_stmt 1 view .LVU579
 984:Drivers/STM32F4xx_HAL_Driver/Src/stm32f4xx_ll_usb.c **** 
ARM GAS  C:\Users\ashto\AppData\Local\Temp\ccdF3pho.s 			page 67


 1804              		.loc 1 984 1 is_stmt 0 view .LVU580
 1805 0020 03B0     		add	sp, sp, #12
 1806              	.LCFI26:
 1807              		.cfi_remember_state
 1808              		.cfi_def_cfa_offset 4
 1809              		@ sp needed
 1810 0022 5DF8044B 		ldr	r4, [sp], #4
 1811              	.LCFI27:
 1812              		.cfi_restore 4
 1813              		.cfi_def_cfa_offset 0
 1814 0026 7047     		bx	lr
 1815              	.LVL147:
 1816              	.L129:
 1817              	.LCFI28:
 1818              		.cfi_restore_state
 946:Drivers/STM32F4xx_HAL_Driver/Src/stm32f4xx_ll_usb.c ****     {
 1819              		.loc 1 946 5 is_stmt 1 view .LVU581
 946:Drivers/STM32F4xx_HAL_Driver/Src/stm32f4xx_ll_usb.c ****     {
 1820              		.loc 1 946 11 is_stmt 0 view .LVU582
 1821 0028 0B78     		ldrb	r3, [r1]	@ zero_extendqisi2
 1822 002a 02EB4313 		add	r3, r2, r3, lsl #5
 946:Drivers/STM32F4xx_HAL_Driver/Src/stm32f4xx_ll_usb.c ****     {
 1823              		.loc 1 946 29 view .LVU583
 1824 002e D3F80049 		ldr	r4, [r3, #2304]
 946:Drivers/STM32F4xx_HAL_Driver/Src/stm32f4xx_ll_usb.c ****     {
 1825              		.loc 1 946 8 view .LVU584
 1826 0032 002C     		cmp	r4, #0
 1827 0034 01DB     		blt	.L131
 939:Drivers/STM32F4xx_HAL_Driver/Src/stm32f4xx_ll_usb.c ****   uint32_t USBx_BASE = (uint32_t)USBx;
 1828              		.loc 1 939 21 view .LVU585
 1829 0036 0020     		movs	r0, #0
 1830 0038 F2E7     		b	.L122
 1831              	.L131:
 948:Drivers/STM32F4xx_HAL_Driver/Src/stm32f4xx_ll_usb.c ****       USBx_INEP(ep->num)->DIEPCTL |= (USB_OTG_DIEPCTL_EPDIS);
 1832              		.loc 1 948 7 is_stmt 1 view .LVU586
 948:Drivers/STM32F4xx_HAL_Driver/Src/stm32f4xx_ll_usb.c ****       USBx_INEP(ep->num)->DIEPCTL |= (USB_OTG_DIEPCTL_EPDIS);
 1833              		.loc 1 948 35 is_stmt 0 view .LVU587
 1834 003a D3F80049 		ldr	r4, [r3, #2304]
 1835 003e 44F00064 		orr	r4, r4, #134217728
 1836 0042 C3F80049 		str	r4, [r3, #2304]
 949:Drivers/STM32F4xx_HAL_Driver/Src/stm32f4xx_ll_usb.c **** 
 1837              		.loc 1 949 7 is_stmt 1 view .LVU588
 1838 0046 0B78     		ldrb	r3, [r1]	@ zero_extendqisi2
 949:Drivers/STM32F4xx_HAL_Driver/Src/stm32f4xx_ll_usb.c **** 
 1839              		.loc 1 949 35 is_stmt 0 view .LVU589
 1840 0048 02EB4313 		add	r3, r2, r3, lsl #5
 1841 004c D3F80049 		ldr	r4, [r3, #2304]
 1842 0050 44F08044 		orr	r4, r4, #1073741824
 1843 0054 C3F80049 		str	r4, [r3, #2304]
 1844              	.L123:
 951:Drivers/STM32F4xx_HAL_Driver/Src/stm32f4xx_ll_usb.c ****       {
 1845              		.loc 1 951 7 is_stmt 1 view .LVU590
 953:Drivers/STM32F4xx_HAL_Driver/Src/stm32f4xx_ll_usb.c **** 
 1846              		.loc 1 953 9 view .LVU591
 953:Drivers/STM32F4xx_HAL_Driver/Src/stm32f4xx_ll_usb.c **** 
 1847              		.loc 1 953 14 is_stmt 0 view .LVU592
 1848 0058 019B     		ldr	r3, [sp, #4]
ARM GAS  C:\Users\ashto\AppData\Local\Temp\ccdF3pho.s 			page 68


 1849 005a 0133     		adds	r3, r3, #1
 1850 005c 0193     		str	r3, [sp, #4]
 955:Drivers/STM32F4xx_HAL_Driver/Src/stm32f4xx_ll_usb.c ****         {
 1851              		.loc 1 955 9 is_stmt 1 view .LVU593
 955:Drivers/STM32F4xx_HAL_Driver/Src/stm32f4xx_ll_usb.c ****         {
 1852              		.loc 1 955 19 is_stmt 0 view .LVU594
 1853 005e 019C     		ldr	r4, [sp, #4]
 955:Drivers/STM32F4xx_HAL_Driver/Src/stm32f4xx_ll_usb.c ****         {
 1854              		.loc 1 955 12 view .LVU595
 1855 0060 42F21073 		movw	r3, #10000
 1856 0064 9C42     		cmp	r4, r3
 1857 0066 DBD8     		bhi	.L122
 960:Drivers/STM32F4xx_HAL_Driver/Src/stm32f4xx_ll_usb.c ****     }
 1858              		.loc 1 960 15 is_stmt 1 view .LVU596
 960:Drivers/STM32F4xx_HAL_Driver/Src/stm32f4xx_ll_usb.c ****     }
 1859              		.loc 1 960 18 is_stmt 0 view .LVU597
 1860 0068 0B78     		ldrb	r3, [r1]	@ zero_extendqisi2
 1861 006a 02EB4313 		add	r3, r2, r3, lsl #5
 960:Drivers/STM32F4xx_HAL_Driver/Src/stm32f4xx_ll_usb.c ****     }
 1862              		.loc 1 960 36 view .LVU598
 1863 006e D3F80039 		ldr	r3, [r3, #2304]
 960:Drivers/STM32F4xx_HAL_Driver/Src/stm32f4xx_ll_usb.c ****     }
 1864              		.loc 1 960 7 view .LVU599
 1865 0072 002B     		cmp	r3, #0
 1866 0074 F0DB     		blt	.L123
 939:Drivers/STM32F4xx_HAL_Driver/Src/stm32f4xx_ll_usb.c ****   uint32_t USBx_BASE = (uint32_t)USBx;
 1867              		.loc 1 939 21 view .LVU600
 1868 0076 0020     		movs	r0, #0
 1869 0078 D2E7     		b	.L122
 1870              	.L130:
 967:Drivers/STM32F4xx_HAL_Driver/Src/stm32f4xx_ll_usb.c ****       USBx_OUTEP(ep->num)->DOEPCTL |= (USB_OTG_DOEPCTL_EPDIS);
 1871              		.loc 1 967 7 is_stmt 1 view .LVU601
 967:Drivers/STM32F4xx_HAL_Driver/Src/stm32f4xx_ll_usb.c ****       USBx_OUTEP(ep->num)->DOEPCTL |= (USB_OTG_DOEPCTL_EPDIS);
 1872              		.loc 1 967 36 is_stmt 0 view .LVU602
 1873 007a D3F8000B 		ldr	r0, [r3, #2816]
 1874 007e 40F00060 		orr	r0, r0, #134217728
 1875 0082 C3F8000B 		str	r0, [r3, #2816]
 968:Drivers/STM32F4xx_HAL_Driver/Src/stm32f4xx_ll_usb.c **** 
 1876              		.loc 1 968 7 is_stmt 1 view .LVU603
 1877 0086 0B78     		ldrb	r3, [r1]	@ zero_extendqisi2
 968:Drivers/STM32F4xx_HAL_Driver/Src/stm32f4xx_ll_usb.c **** 
 1878              		.loc 1 968 36 is_stmt 0 view .LVU604
 1879 0088 02EB4313 		add	r3, r2, r3, lsl #5
 1880 008c D3F8000B 		ldr	r0, [r3, #2816]
 1881 0090 40F08040 		orr	r0, r0, #1073741824
 1882 0094 C3F8000B 		str	r0, [r3, #2816]
 1883              	.L124:
 970:Drivers/STM32F4xx_HAL_Driver/Src/stm32f4xx_ll_usb.c ****       {
 1884              		.loc 1 970 7 is_stmt 1 view .LVU605
 972:Drivers/STM32F4xx_HAL_Driver/Src/stm32f4xx_ll_usb.c **** 
 1885              		.loc 1 972 9 view .LVU606
 972:Drivers/STM32F4xx_HAL_Driver/Src/stm32f4xx_ll_usb.c **** 
 1886              		.loc 1 972 14 is_stmt 0 view .LVU607
 1887 0098 019B     		ldr	r3, [sp, #4]
 1888 009a 0133     		adds	r3, r3, #1
 1889 009c 0193     		str	r3, [sp, #4]
 974:Drivers/STM32F4xx_HAL_Driver/Src/stm32f4xx_ll_usb.c ****         {
ARM GAS  C:\Users\ashto\AppData\Local\Temp\ccdF3pho.s 			page 69


 1890              		.loc 1 974 9 is_stmt 1 view .LVU608
 974:Drivers/STM32F4xx_HAL_Driver/Src/stm32f4xx_ll_usb.c ****         {
 1891              		.loc 1 974 19 is_stmt 0 view .LVU609
 1892 009e 0198     		ldr	r0, [sp, #4]
 974:Drivers/STM32F4xx_HAL_Driver/Src/stm32f4xx_ll_usb.c ****         {
 1893              		.loc 1 974 12 view .LVU610
 1894 00a0 42F21073 		movw	r3, #10000
 1895 00a4 9842     		cmp	r0, r3
 1896 00a6 08D8     		bhi	.L127
 979:Drivers/STM32F4xx_HAL_Driver/Src/stm32f4xx_ll_usb.c ****     }
 1897              		.loc 1 979 15 is_stmt 1 view .LVU611
 979:Drivers/STM32F4xx_HAL_Driver/Src/stm32f4xx_ll_usb.c ****     }
 1898              		.loc 1 979 18 is_stmt 0 view .LVU612
 1899 00a8 0B78     		ldrb	r3, [r1]	@ zero_extendqisi2
 1900 00aa 02EB4313 		add	r3, r2, r3, lsl #5
 979:Drivers/STM32F4xx_HAL_Driver/Src/stm32f4xx_ll_usb.c ****     }
 1901              		.loc 1 979 37 view .LVU613
 1902 00ae D3F8003B 		ldr	r3, [r3, #2816]
 979:Drivers/STM32F4xx_HAL_Driver/Src/stm32f4xx_ll_usb.c ****     }
 1903              		.loc 1 979 7 view .LVU614
 1904 00b2 002B     		cmp	r3, #0
 1905 00b4 F0DB     		blt	.L124
 939:Drivers/STM32F4xx_HAL_Driver/Src/stm32f4xx_ll_usb.c ****   uint32_t USBx_BASE = (uint32_t)USBx;
 1906              		.loc 1 939 21 view .LVU615
 1907 00b6 0020     		movs	r0, #0
 1908 00b8 B2E7     		b	.L122
 1909              	.L127:
 976:Drivers/STM32F4xx_HAL_Driver/Src/stm32f4xx_ll_usb.c ****           break;
 1910              		.loc 1 976 15 view .LVU616
 1911 00ba 0120     		movs	r0, #1
 1912 00bc B0E7     		b	.L122
 1913              		.cfi_endproc
 1914              	.LFE149:
 1916              		.section	.text.USB_WritePacket,"ax",%progbits
 1917              		.align	1
 1918              		.global	USB_WritePacket
 1919              		.syntax unified
 1920              		.thumb
 1921              		.thumb_func
 1923              	USB_WritePacket:
 1924              	.LVL148:
 1925              	.LFB150:
1002:Drivers/STM32F4xx_HAL_Driver/Src/stm32f4xx_ll_usb.c ****   uint32_t USBx_BASE = (uint32_t)USBx;
 1926              		.loc 1 1002 1 is_stmt 1 view -0
 1927              		.cfi_startproc
 1928              		@ args = 4, pretend = 0, frame = 0
 1929              		@ frame_needed = 0, uses_anonymous_args = 0
1002:Drivers/STM32F4xx_HAL_Driver/Src/stm32f4xx_ll_usb.c ****   uint32_t USBx_BASE = (uint32_t)USBx;
 1930              		.loc 1 1002 1 is_stmt 0 view .LVU618
 1931 0000 10B5     		push	{r4, lr}
 1932              	.LCFI29:
 1933              		.cfi_def_cfa_offset 8
 1934              		.cfi_offset 4, -8
 1935              		.cfi_offset 14, -4
 1936 0002 9DF80840 		ldrb	r4, [sp, #8]	@ zero_extendqisi2
1003:Drivers/STM32F4xx_HAL_Driver/Src/stm32f4xx_ll_usb.c ****   uint8_t *pSrc = src;
 1937              		.loc 1 1003 3 is_stmt 1 view .LVU619
ARM GAS  C:\Users\ashto\AppData\Local\Temp\ccdF3pho.s 			page 70


 1938              	.LVL149:
1004:Drivers/STM32F4xx_HAL_Driver/Src/stm32f4xx_ll_usb.c ****   uint32_t count32b;
 1939              		.loc 1 1004 3 view .LVU620
1005:Drivers/STM32F4xx_HAL_Driver/Src/stm32f4xx_ll_usb.c ****   uint32_t i;
 1940              		.loc 1 1005 3 view .LVU621
1006:Drivers/STM32F4xx_HAL_Driver/Src/stm32f4xx_ll_usb.c **** 
 1941              		.loc 1 1006 3 view .LVU622
1008:Drivers/STM32F4xx_HAL_Driver/Src/stm32f4xx_ll_usb.c ****   {
 1942              		.loc 1 1008 3 view .LVU623
1008:Drivers/STM32F4xx_HAL_Driver/Src/stm32f4xx_ll_usb.c ****   {
 1943              		.loc 1 1008 6 is_stmt 0 view .LVU624
 1944 0006 84B9     		cbnz	r4, .L133
1010:Drivers/STM32F4xx_HAL_Driver/Src/stm32f4xx_ll_usb.c ****     for (i = 0U; i < count32b; i++)
 1945              		.loc 1 1010 5 is_stmt 1 view .LVU625
1010:Drivers/STM32F4xx_HAL_Driver/Src/stm32f4xx_ll_usb.c ****     for (i = 0U; i < count32b; i++)
 1946              		.loc 1 1010 31 is_stmt 0 view .LVU626
 1947 0008 0333     		adds	r3, r3, #3
 1948              	.LVL150:
1010:Drivers/STM32F4xx_HAL_Driver/Src/stm32f4xx_ll_usb.c ****     for (i = 0U; i < count32b; i++)
 1949              		.loc 1 1010 14 view .LVU627
 1950 000a 4FEA930E 		lsr	lr, r3, #2
 1951              	.LVL151:
1011:Drivers/STM32F4xx_HAL_Driver/Src/stm32f4xx_ll_usb.c ****     {
 1952              		.loc 1 1011 5 is_stmt 1 view .LVU628
1011:Drivers/STM32F4xx_HAL_Driver/Src/stm32f4xx_ll_usb.c ****     {
 1953              		.loc 1 1011 12 is_stmt 0 view .LVU629
 1954 000e 4FF0000C 		mov	ip, #0
1011:Drivers/STM32F4xx_HAL_Driver/Src/stm32f4xx_ll_usb.c ****     {
 1955              		.loc 1 1011 5 view .LVU630
 1956 0012 08E0     		b	.L134
 1957              	.LVL152:
 1958              	.L135:
1013:Drivers/STM32F4xx_HAL_Driver/Src/stm32f4xx_ll_usb.c ****       pSrc++;
 1959              		.loc 1 1013 7 is_stmt 1 discriminator 3 view .LVU631
 1960 0014 00EB0233 		add	r3, r0, r2, lsl #12
 1961 0018 03F58053 		add	r3, r3, #4096
1013:Drivers/STM32F4xx_HAL_Driver/Src/stm32f4xx_ll_usb.c ****       pSrc++;
 1962              		.loc 1 1013 41 is_stmt 0 discriminator 3 view .LVU632
 1963 001c 51F8044B 		ldr	r4, [r1], #4	@ unaligned
 1964              	.LVL153:
1013:Drivers/STM32F4xx_HAL_Driver/Src/stm32f4xx_ll_usb.c ****       pSrc++;
 1965              		.loc 1 1013 39 discriminator 3 view .LVU633
 1966 0020 1C60     		str	r4, [r3]
1014:Drivers/STM32F4xx_HAL_Driver/Src/stm32f4xx_ll_usb.c ****       pSrc++;
 1967              		.loc 1 1014 7 is_stmt 1 discriminator 3 view .LVU634
 1968              	.LVL154:
1015:Drivers/STM32F4xx_HAL_Driver/Src/stm32f4xx_ll_usb.c ****       pSrc++;
 1969              		.loc 1 1015 7 discriminator 3 view .LVU635
1016:Drivers/STM32F4xx_HAL_Driver/Src/stm32f4xx_ll_usb.c ****       pSrc++;
 1970              		.loc 1 1016 7 discriminator 3 view .LVU636
1017:Drivers/STM32F4xx_HAL_Driver/Src/stm32f4xx_ll_usb.c ****     }
 1971              		.loc 1 1017 7 discriminator 3 view .LVU637
1011:Drivers/STM32F4xx_HAL_Driver/Src/stm32f4xx_ll_usb.c ****     {
 1972              		.loc 1 1011 32 discriminator 3 view .LVU638
1011:Drivers/STM32F4xx_HAL_Driver/Src/stm32f4xx_ll_usb.c ****     {
 1973              		.loc 1 1011 33 is_stmt 0 discriminator 3 view .LVU639
 1974 0022 0CF1010C 		add	ip, ip, #1
ARM GAS  C:\Users\ashto\AppData\Local\Temp\ccdF3pho.s 			page 71


 1975              	.LVL155:
 1976              	.L134:
1011:Drivers/STM32F4xx_HAL_Driver/Src/stm32f4xx_ll_usb.c ****     {
 1977              		.loc 1 1011 18 is_stmt 1 discriminator 1 view .LVU640
1011:Drivers/STM32F4xx_HAL_Driver/Src/stm32f4xx_ll_usb.c ****     {
 1978              		.loc 1 1011 5 is_stmt 0 discriminator 1 view .LVU641
 1979 0026 F445     		cmp	ip, lr
 1980 0028 F4D3     		bcc	.L135
 1981              	.LVL156:
 1982              	.L133:
1021:Drivers/STM32F4xx_HAL_Driver/Src/stm32f4xx_ll_usb.c **** }
 1983              		.loc 1 1021 3 is_stmt 1 view .LVU642
1022:Drivers/STM32F4xx_HAL_Driver/Src/stm32f4xx_ll_usb.c **** 
 1984              		.loc 1 1022 1 is_stmt 0 view .LVU643
 1985 002a 0020     		movs	r0, #0
 1986              	.LVL157:
1022:Drivers/STM32F4xx_HAL_Driver/Src/stm32f4xx_ll_usb.c **** 
 1987              		.loc 1 1022 1 view .LVU644
 1988 002c 10BD     		pop	{r4, pc}
1022:Drivers/STM32F4xx_HAL_Driver/Src/stm32f4xx_ll_usb.c **** 
 1989              		.loc 1 1022 1 view .LVU645
 1990              		.cfi_endproc
 1991              	.LFE150:
 1993              		.section	.text.USB_EPStartXfer,"ax",%progbits
 1994              		.align	1
 1995              		.global	USB_EPStartXfer
 1996              		.syntax unified
 1997              		.thumb
 1998              		.thumb_func
 2000              	USB_EPStartXfer:
 2001              	.LVL158:
 2002              	.LFB148:
 765:Drivers/STM32F4xx_HAL_Driver/Src/stm32f4xx_ll_usb.c ****   uint32_t USBx_BASE = (uint32_t)USBx;
 2003              		.loc 1 765 1 is_stmt 1 view -0
 2004              		.cfi_startproc
 2005              		@ args = 0, pretend = 0, frame = 0
 2006              		@ frame_needed = 0, uses_anonymous_args = 0
 765:Drivers/STM32F4xx_HAL_Driver/Src/stm32f4xx_ll_usb.c ****   uint32_t USBx_BASE = (uint32_t)USBx;
 2007              		.loc 1 765 1 is_stmt 0 view .LVU647
 2008 0000 F0B5     		push	{r4, r5, r6, r7, lr}
 2009              	.LCFI30:
 2010              		.cfi_def_cfa_offset 20
 2011              		.cfi_offset 4, -20
 2012              		.cfi_offset 5, -16
 2013              		.cfi_offset 6, -12
 2014              		.cfi_offset 7, -8
 2015              		.cfi_offset 14, -4
 2016 0002 83B0     		sub	sp, sp, #12
 2017              	.LCFI31:
 2018              		.cfi_def_cfa_offset 32
 766:Drivers/STM32F4xx_HAL_Driver/Src/stm32f4xx_ll_usb.c ****   uint32_t epnum = (uint32_t)ep->num;
 2019              		.loc 1 766 3 is_stmt 1 view .LVU648
 2020              	.LVL159:
 767:Drivers/STM32F4xx_HAL_Driver/Src/stm32f4xx_ll_usb.c ****   uint16_t pktcnt;
 2021              		.loc 1 767 3 view .LVU649
 767:Drivers/STM32F4xx_HAL_Driver/Src/stm32f4xx_ll_usb.c ****   uint16_t pktcnt;
 2022              		.loc 1 767 32 is_stmt 0 view .LVU650
ARM GAS  C:\Users\ashto\AppData\Local\Temp\ccdF3pho.s 			page 72


 2023 0004 0C78     		ldrb	r4, [r1]	@ zero_extendqisi2
 2024              	.LVL160:
 768:Drivers/STM32F4xx_HAL_Driver/Src/stm32f4xx_ll_usb.c **** 
 2025              		.loc 1 768 3 is_stmt 1 view .LVU651
 771:Drivers/STM32F4xx_HAL_Driver/Src/stm32f4xx_ll_usb.c ****   {
 2026              		.loc 1 771 3 view .LVU652
 771:Drivers/STM32F4xx_HAL_Driver/Src/stm32f4xx_ll_usb.c ****   {
 2027              		.loc 1 771 9 is_stmt 0 view .LVU653
 2028 0006 4B78     		ldrb	r3, [r1, #1]	@ zero_extendqisi2
 771:Drivers/STM32F4xx_HAL_Driver/Src/stm32f4xx_ll_usb.c ****   {
 2029              		.loc 1 771 6 view .LVU654
 2030 0008 012B     		cmp	r3, #1
 2031 000a 2FD0     		beq	.L160
 870:Drivers/STM32F4xx_HAL_Driver/Src/stm32f4xx_ll_usb.c ****     USBx_OUTEP(epnum)->DOEPTSIZ &= ~(USB_OTG_DOEPTSIZ_PKTCNT);
 2032              		.loc 1 870 5 is_stmt 1 view .LVU655
 870:Drivers/STM32F4xx_HAL_Driver/Src/stm32f4xx_ll_usb.c ****     USBx_OUTEP(epnum)->DOEPTSIZ &= ~(USB_OTG_DOEPTSIZ_PKTCNT);
 2033              		.loc 1 870 33 is_stmt 0 view .LVU656
 2034 000c 00EB441C 		add	ip, r0, r4, lsl #5
 2035 0010 0CF53063 		add	r3, ip, #2816
 2036 0014 1D69     		ldr	r5, [r3, #16]
 2037 0016 ED0C     		lsrs	r5, r5, #19
 2038 0018 ED04     		lsls	r5, r5, #19
 2039 001a 1D61     		str	r5, [r3, #16]
 871:Drivers/STM32F4xx_HAL_Driver/Src/stm32f4xx_ll_usb.c **** 
 2040              		.loc 1 871 5 is_stmt 1 view .LVU657
 871:Drivers/STM32F4xx_HAL_Driver/Src/stm32f4xx_ll_usb.c **** 
 2041              		.loc 1 871 33 is_stmt 0 view .LVU658
 2042 001c 1D69     		ldr	r5, [r3, #16]
 2043 001e 25F0FF55 		bic	r5, r5, #534773760
 2044 0022 25F4C015 		bic	r5, r5, #1572864
 2045 0026 1D61     		str	r5, [r3, #16]
 873:Drivers/STM32F4xx_HAL_Driver/Src/stm32f4xx_ll_usb.c ****     {
 2046              		.loc 1 873 5 is_stmt 1 view .LVU659
 873:Drivers/STM32F4xx_HAL_Driver/Src/stm32f4xx_ll_usb.c ****     {
 2047              		.loc 1 873 8 is_stmt 0 view .LVU660
 2048 0028 002C     		cmp	r4, #0
 2049 002a 40F0CC80 		bne	.L152
 875:Drivers/STM32F4xx_HAL_Driver/Src/stm32f4xx_ll_usb.c ****       {
 2050              		.loc 1 875 7 is_stmt 1 view .LVU661
 875:Drivers/STM32F4xx_HAL_Driver/Src/stm32f4xx_ll_usb.c ****       {
 2051              		.loc 1 875 13 is_stmt 0 view .LVU662
 2052 002e 0C69     		ldr	r4, [r1, #16]
 2053              	.LVL161:
 875:Drivers/STM32F4xx_HAL_Driver/Src/stm32f4xx_ll_usb.c ****       {
 2054              		.loc 1 875 10 view .LVU663
 2055 0030 0CB1     		cbz	r4, .L153
 877:Drivers/STM32F4xx_HAL_Driver/Src/stm32f4xx_ll_usb.c ****       }
 2056              		.loc 1 877 9 is_stmt 1 view .LVU664
 877:Drivers/STM32F4xx_HAL_Driver/Src/stm32f4xx_ll_usb.c ****       }
 2057              		.loc 1 877 26 is_stmt 0 view .LVU665
 2058 0032 8C68     		ldr	r4, [r1, #8]
 877:Drivers/STM32F4xx_HAL_Driver/Src/stm32f4xx_ll_usb.c ****       }
 2059              		.loc 1 877 22 view .LVU666
 2060 0034 0C61     		str	r4, [r1, #16]
 2061              	.L153:
 881:Drivers/STM32F4xx_HAL_Driver/Src/stm32f4xx_ll_usb.c **** 
 2062              		.loc 1 881 7 is_stmt 1 view .LVU667
ARM GAS  C:\Users\ashto\AppData\Local\Temp\ccdF3pho.s 			page 73


 881:Drivers/STM32F4xx_HAL_Driver/Src/stm32f4xx_ll_usb.c **** 
 2063              		.loc 1 881 25 is_stmt 0 view .LVU668
 2064 0036 8C68     		ldr	r4, [r1, #8]
 881:Drivers/STM32F4xx_HAL_Driver/Src/stm32f4xx_ll_usb.c **** 
 2065              		.loc 1 881 21 view .LVU669
 2066 0038 0C62     		str	r4, [r1, #32]
 883:Drivers/STM32F4xx_HAL_Driver/Src/stm32f4xx_ll_usb.c ****       USBx_OUTEP(epnum)->DOEPTSIZ |= (USB_OTG_DOEPTSIZ_PKTCNT & (1U << 19));
 2067              		.loc 1 883 7 is_stmt 1 view .LVU670
 883:Drivers/STM32F4xx_HAL_Driver/Src/stm32f4xx_ll_usb.c ****       USBx_OUTEP(epnum)->DOEPTSIZ |= (USB_OTG_DOEPTSIZ_PKTCNT & (1U << 19));
 2068              		.loc 1 883 35 is_stmt 0 view .LVU671
 2069 003a 1D69     		ldr	r5, [r3, #16]
 883:Drivers/STM32F4xx_HAL_Driver/Src/stm32f4xx_ll_usb.c ****       USBx_OUTEP(epnum)->DOEPTSIZ |= (USB_OTG_DOEPTSIZ_PKTCNT & (1U << 19));
 2070              		.loc 1 883 63 view .LVU672
 2071 003c C4F31204 		ubfx	r4, r4, #0, #19
 883:Drivers/STM32F4xx_HAL_Driver/Src/stm32f4xx_ll_usb.c ****       USBx_OUTEP(epnum)->DOEPTSIZ |= (USB_OTG_DOEPTSIZ_PKTCNT & (1U << 19));
 2072              		.loc 1 883 35 view .LVU673
 2073 0040 2C43     		orrs	r4, r4, r5
 2074 0042 1C61     		str	r4, [r3, #16]
 884:Drivers/STM32F4xx_HAL_Driver/Src/stm32f4xx_ll_usb.c ****     }
 2075              		.loc 1 884 7 is_stmt 1 view .LVU674
 884:Drivers/STM32F4xx_HAL_Driver/Src/stm32f4xx_ll_usb.c ****     }
 2076              		.loc 1 884 35 is_stmt 0 view .LVU675
 2077 0044 1C69     		ldr	r4, [r3, #16]
 2078 0046 44F40024 		orr	r4, r4, #524288
 2079 004a 1C61     		str	r4, [r3, #16]
 2080              	.L154:
 903:Drivers/STM32F4xx_HAL_Driver/Src/stm32f4xx_ll_usb.c ****     {
 2081              		.loc 1 903 5 is_stmt 1 view .LVU676
 903:Drivers/STM32F4xx_HAL_Driver/Src/stm32f4xx_ll_usb.c ****     {
 2082              		.loc 1 903 8 is_stmt 0 view .LVU677
 2083 004c 012A     		cmp	r2, #1
 2084 004e 00F0DD80 		beq	.L161
 2085              	.LVL162:
 2086              	.L156:
 911:Drivers/STM32F4xx_HAL_Driver/Src/stm32f4xx_ll_usb.c ****     {
 2087              		.loc 1 911 5 is_stmt 1 view .LVU678
 911:Drivers/STM32F4xx_HAL_Driver/Src/stm32f4xx_ll_usb.c ****     {
 2088              		.loc 1 911 11 is_stmt 0 view .LVU679
 2089 0052 0B79     		ldrb	r3, [r1, #4]	@ zero_extendqisi2
 911:Drivers/STM32F4xx_HAL_Driver/Src/stm32f4xx_ll_usb.c ****     {
 2090              		.loc 1 911 8 view .LVU680
 2091 0054 012B     		cmp	r3, #1
 2092 0056 00F0DF80 		beq	.L162
 2093              	.L157:
 923:Drivers/STM32F4xx_HAL_Driver/Src/stm32f4xx_ll_usb.c ****   }
 2094              		.loc 1 923 5 is_stmt 1 view .LVU681
 923:Drivers/STM32F4xx_HAL_Driver/Src/stm32f4xx_ll_usb.c ****   }
 2095              		.loc 1 923 32 is_stmt 0 view .LVU682
 2096 005a DCF8003B 		ldr	r3, [ip, #2816]
 2097 005e 43F00443 		orr	r3, r3, #-2080374784
 2098 0062 CCF8003B 		str	r3, [ip, #2816]
 2099              	.LVL163:
 2100              	.L148:
 926:Drivers/STM32F4xx_HAL_Driver/Src/stm32f4xx_ll_usb.c **** }
 2101              		.loc 1 926 3 is_stmt 1 view .LVU683
 927:Drivers/STM32F4xx_HAL_Driver/Src/stm32f4xx_ll_usb.c **** 
 2102              		.loc 1 927 1 is_stmt 0 view .LVU684
ARM GAS  C:\Users\ashto\AppData\Local\Temp\ccdF3pho.s 			page 74


 2103 0066 0020     		movs	r0, #0
 2104 0068 03B0     		add	sp, sp, #12
 2105              	.LCFI32:
 2106              		.cfi_remember_state
 2107              		.cfi_def_cfa_offset 20
 2108              		@ sp needed
 2109 006a F0BD     		pop	{r4, r5, r6, r7, pc}
 2110              	.LVL164:
 2111              	.L160:
 2112              	.LCFI33:
 2113              		.cfi_restore_state
 774:Drivers/STM32F4xx_HAL_Driver/Src/stm32f4xx_ll_usb.c ****     {
 2114              		.loc 1 774 5 is_stmt 1 view .LVU685
 774:Drivers/STM32F4xx_HAL_Driver/Src/stm32f4xx_ll_usb.c ****     {
 2115              		.loc 1 774 11 is_stmt 0 view .LVU686
 2116 006c 0B69     		ldr	r3, [r1, #16]
 774:Drivers/STM32F4xx_HAL_Driver/Src/stm32f4xx_ll_usb.c ****     {
 2117              		.loc 1 774 8 view .LVU687
 2118 006e 83BB     		cbnz	r3, .L139
 776:Drivers/STM32F4xx_HAL_Driver/Src/stm32f4xx_ll_usb.c ****       USBx_INEP(epnum)->DIEPTSIZ |= (USB_OTG_DIEPTSIZ_PKTCNT & (1U << 19));
 2119              		.loc 1 776 7 is_stmt 1 view .LVU688
 776:Drivers/STM32F4xx_HAL_Driver/Src/stm32f4xx_ll_usb.c ****       USBx_INEP(epnum)->DIEPTSIZ |= (USB_OTG_DIEPTSIZ_PKTCNT & (1U << 19));
 2120              		.loc 1 776 34 is_stmt 0 view .LVU689
 2121 0070 00EB4413 		add	r3, r0, r4, lsl #5
 2122 0074 D3F81059 		ldr	r5, [r3, #2320]
 2123 0078 25F0FF55 		bic	r5, r5, #534773760
 2124 007c 25F4C015 		bic	r5, r5, #1572864
 2125 0080 C3F81059 		str	r5, [r3, #2320]
 777:Drivers/STM32F4xx_HAL_Driver/Src/stm32f4xx_ll_usb.c ****       USBx_INEP(epnum)->DIEPTSIZ &= ~(USB_OTG_DIEPTSIZ_XFRSIZ);
 2126              		.loc 1 777 7 is_stmt 1 view .LVU690
 777:Drivers/STM32F4xx_HAL_Driver/Src/stm32f4xx_ll_usb.c ****       USBx_INEP(epnum)->DIEPTSIZ &= ~(USB_OTG_DIEPTSIZ_XFRSIZ);
 2127              		.loc 1 777 34 is_stmt 0 view .LVU691
 2128 0084 D3F81059 		ldr	r5, [r3, #2320]
 2129 0088 45F40025 		orr	r5, r5, #524288
 2130 008c C3F81059 		str	r5, [r3, #2320]
 778:Drivers/STM32F4xx_HAL_Driver/Src/stm32f4xx_ll_usb.c ****     }
 2131              		.loc 1 778 7 is_stmt 1 view .LVU692
 778:Drivers/STM32F4xx_HAL_Driver/Src/stm32f4xx_ll_usb.c ****     }
 2132              		.loc 1 778 34 is_stmt 0 view .LVU693
 2133 0090 D3F81059 		ldr	r5, [r3, #2320]
 2134 0094 ED0C     		lsrs	r5, r5, #19
 2135 0096 ED04     		lsls	r5, r5, #19
 2136 0098 C3F81059 		str	r5, [r3, #2320]
 2137              	.L140:
 814:Drivers/STM32F4xx_HAL_Driver/Src/stm32f4xx_ll_usb.c ****     {
 2138              		.loc 1 814 5 is_stmt 1 view .LVU694
 814:Drivers/STM32F4xx_HAL_Driver/Src/stm32f4xx_ll_usb.c ****     {
 2139              		.loc 1 814 8 is_stmt 0 view .LVU695
 2140 009c 012A     		cmp	r2, #1
 2141 009e 50D0     		beq	.L163
 839:Drivers/STM32F4xx_HAL_Driver/Src/stm32f4xx_ll_usb.c **** 
 2142              		.loc 1 839 7 is_stmt 1 view .LVU696
 839:Drivers/STM32F4xx_HAL_Driver/Src/stm32f4xx_ll_usb.c **** 
 2143              		.loc 1 839 33 is_stmt 0 view .LVU697
 2144 00a0 00EB4414 		add	r4, r0, r4, lsl #5
 2145              	.LVL165:
 839:Drivers/STM32F4xx_HAL_Driver/Src/stm32f4xx_ll_usb.c **** 
ARM GAS  C:\Users\ashto\AppData\Local\Temp\ccdF3pho.s 			page 75


 2146              		.loc 1 839 33 view .LVU698
 2147 00a4 D4F80039 		ldr	r3, [r4, #2304]
 2148 00a8 43F00443 		orr	r3, r3, #-2080374784
 2149 00ac C4F80039 		str	r3, [r4, #2304]
 841:Drivers/STM32F4xx_HAL_Driver/Src/stm32f4xx_ll_usb.c ****       {
 2150              		.loc 1 841 7 is_stmt 1 view .LVU699
 841:Drivers/STM32F4xx_HAL_Driver/Src/stm32f4xx_ll_usb.c ****       {
 2151              		.loc 1 841 13 is_stmt 0 view .LVU700
 2152 00b0 0B79     		ldrb	r3, [r1, #4]	@ zero_extendqisi2
 841:Drivers/STM32F4xx_HAL_Driver/Src/stm32f4xx_ll_usb.c ****       {
 2153              		.loc 1 841 10 view .LVU701
 2154 00b2 012B     		cmp	r3, #1
 2155 00b4 6ED0     		beq	.L149
 844:Drivers/STM32F4xx_HAL_Driver/Src/stm32f4xx_ll_usb.c ****         {
 2156              		.loc 1 844 9 is_stmt 1 view .LVU702
 844:Drivers/STM32F4xx_HAL_Driver/Src/stm32f4xx_ll_usb.c ****         {
 2157              		.loc 1 844 15 is_stmt 0 view .LVU703
 2158 00b6 0B69     		ldr	r3, [r1, #16]
 844:Drivers/STM32F4xx_HAL_Driver/Src/stm32f4xx_ll_usb.c ****         {
 2159              		.loc 1 844 12 view .LVU704
 2160 00b8 002B     		cmp	r3, #0
 2161 00ba D4D0     		beq	.L148
 846:Drivers/STM32F4xx_HAL_Driver/Src/stm32f4xx_ll_usb.c ****         }
 2162              		.loc 1 846 11 is_stmt 1 view .LVU705
 846:Drivers/STM32F4xx_HAL_Driver/Src/stm32f4xx_ll_usb.c ****         }
 2163              		.loc 1 846 35 is_stmt 0 view .LVU706
 2164 00bc D0F83438 		ldr	r3, [r0, #2100]
 846:Drivers/STM32F4xx_HAL_Driver/Src/stm32f4xx_ll_usb.c ****         }
 2165              		.loc 1 846 48 view .LVU707
 2166 00c0 0A78     		ldrb	r2, [r1]	@ zero_extendqisi2
 2167              	.LVL166:
 846:Drivers/STM32F4xx_HAL_Driver/Src/stm32f4xx_ll_usb.c ****         }
 2168              		.loc 1 846 54 view .LVU708
 2169 00c2 02F00F01 		and	r1, r2, #15
 2170              	.LVL167:
 846:Drivers/STM32F4xx_HAL_Driver/Src/stm32f4xx_ll_usb.c ****         }
 2171              		.loc 1 846 42 view .LVU709
 2172 00c6 0122     		movs	r2, #1
 2173 00c8 8A40     		lsls	r2, r2, r1
 846:Drivers/STM32F4xx_HAL_Driver/Src/stm32f4xx_ll_usb.c ****         }
 2174              		.loc 1 846 35 view .LVU710
 2175 00ca 1343     		orrs	r3, r3, r2
 2176 00cc C0F83438 		str	r3, [r0, #2100]
 2177 00d0 C9E7     		b	.L148
 2178              	.LVL168:
 2179              	.L139:
 787:Drivers/STM32F4xx_HAL_Driver/Src/stm32f4xx_ll_usb.c ****       USBx_INEP(epnum)->DIEPTSIZ &= ~(USB_OTG_DIEPTSIZ_PKTCNT);
 2180              		.loc 1 787 7 is_stmt 1 view .LVU711
 787:Drivers/STM32F4xx_HAL_Driver/Src/stm32f4xx_ll_usb.c ****       USBx_INEP(epnum)->DIEPTSIZ &= ~(USB_OTG_DIEPTSIZ_PKTCNT);
 2181              		.loc 1 787 34 is_stmt 0 view .LVU712
 2182 00d2 00EB4413 		add	r3, r0, r4, lsl #5
 2183 00d6 03F51063 		add	r3, r3, #2304
 2184 00da 1D69     		ldr	r5, [r3, #16]
 2185 00dc ED0C     		lsrs	r5, r5, #19
 2186 00de ED04     		lsls	r5, r5, #19
 2187 00e0 1D61     		str	r5, [r3, #16]
 788:Drivers/STM32F4xx_HAL_Driver/Src/stm32f4xx_ll_usb.c **** 
ARM GAS  C:\Users\ashto\AppData\Local\Temp\ccdF3pho.s 			page 76


 2188              		.loc 1 788 7 is_stmt 1 view .LVU713
 788:Drivers/STM32F4xx_HAL_Driver/Src/stm32f4xx_ll_usb.c **** 
 2189              		.loc 1 788 34 is_stmt 0 view .LVU714
 2190 00e2 1D69     		ldr	r5, [r3, #16]
 2191 00e4 25F0FF55 		bic	r5, r5, #534773760
 2192 00e8 25F4C015 		bic	r5, r5, #1572864
 2193 00ec 1D61     		str	r5, [r3, #16]
 790:Drivers/STM32F4xx_HAL_Driver/Src/stm32f4xx_ll_usb.c ****       {
 2194              		.loc 1 790 7 is_stmt 1 view .LVU715
 790:Drivers/STM32F4xx_HAL_Driver/Src/stm32f4xx_ll_usb.c ****       {
 2195              		.loc 1 790 10 is_stmt 0 view .LVU716
 2196 00ee DCB9     		cbnz	r4, .L141
 792:Drivers/STM32F4xx_HAL_Driver/Src/stm32f4xx_ll_usb.c ****         {
 2197              		.loc 1 792 9 is_stmt 1 view .LVU717
 792:Drivers/STM32F4xx_HAL_Driver/Src/stm32f4xx_ll_usb.c ****         {
 2198              		.loc 1 792 15 is_stmt 0 view .LVU718
 2199 00f0 0E69     		ldr	r6, [r1, #16]
 792:Drivers/STM32F4xx_HAL_Driver/Src/stm32f4xx_ll_usb.c ****         {
 2200              		.loc 1 792 30 view .LVU719
 2201 00f2 8D68     		ldr	r5, [r1, #8]
 792:Drivers/STM32F4xx_HAL_Driver/Src/stm32f4xx_ll_usb.c ****         {
 2202              		.loc 1 792 12 view .LVU720
 2203 00f4 AE42     		cmp	r6, r5
 2204 00f6 00D9     		bls	.L142
 794:Drivers/STM32F4xx_HAL_Driver/Src/stm32f4xx_ll_usb.c ****         }
 2205              		.loc 1 794 11 is_stmt 1 view .LVU721
 794:Drivers/STM32F4xx_HAL_Driver/Src/stm32f4xx_ll_usb.c ****         }
 2206              		.loc 1 794 24 is_stmt 0 view .LVU722
 2207 00f8 0D61     		str	r5, [r1, #16]
 2208              	.L142:
 797:Drivers/STM32F4xx_HAL_Driver/Src/stm32f4xx_ll_usb.c ****       }
 2209              		.loc 1 797 9 is_stmt 1 view .LVU723
 797:Drivers/STM32F4xx_HAL_Driver/Src/stm32f4xx_ll_usb.c ****       }
 2210              		.loc 1 797 36 is_stmt 0 view .LVU724
 2211 00fa 1D69     		ldr	r5, [r3, #16]
 2212 00fc 45F40025 		orr	r5, r5, #524288
 2213 0100 1D61     		str	r5, [r3, #16]
 2214              	.L143:
 805:Drivers/STM32F4xx_HAL_Driver/Src/stm32f4xx_ll_usb.c **** 
 2215              		.loc 1 805 7 is_stmt 1 view .LVU725
 805:Drivers/STM32F4xx_HAL_Driver/Src/stm32f4xx_ll_usb.c **** 
 2216              		.loc 1 805 34 is_stmt 0 view .LVU726
 2217 0102 1D69     		ldr	r5, [r3, #16]
 805:Drivers/STM32F4xx_HAL_Driver/Src/stm32f4xx_ll_usb.c **** 
 2218              		.loc 1 805 62 view .LVU727
 2219 0104 0E69     		ldr	r6, [r1, #16]
 2220 0106 C6F3120C 		ubfx	ip, r6, #0, #19
 805:Drivers/STM32F4xx_HAL_Driver/Src/stm32f4xx_ll_usb.c **** 
 2221              		.loc 1 805 34 view .LVU728
 2222 010a 45EA0C05 		orr	r5, r5, ip
 2223 010e 1D61     		str	r5, [r3, #16]
 807:Drivers/STM32F4xx_HAL_Driver/Src/stm32f4xx_ll_usb.c ****       {
 2224              		.loc 1 807 7 is_stmt 1 view .LVU729
 807:Drivers/STM32F4xx_HAL_Driver/Src/stm32f4xx_ll_usb.c ****       {
 2225              		.loc 1 807 13 is_stmt 0 view .LVU730
 2226 0110 0D79     		ldrb	r5, [r1, #4]	@ zero_extendqisi2
 807:Drivers/STM32F4xx_HAL_Driver/Src/stm32f4xx_ll_usb.c ****       {
ARM GAS  C:\Users\ashto\AppData\Local\Temp\ccdF3pho.s 			page 77


 2227              		.loc 1 807 10 view .LVU731
 2228 0112 012D     		cmp	r5, #1
 2229 0114 C2D1     		bne	.L140
 809:Drivers/STM32F4xx_HAL_Driver/Src/stm32f4xx_ll_usb.c ****         USBx_INEP(epnum)->DIEPTSIZ |= (USB_OTG_DIEPTSIZ_MULCNT & (1U << 29));
 2230              		.loc 1 809 9 is_stmt 1 view .LVU732
 809:Drivers/STM32F4xx_HAL_Driver/Src/stm32f4xx_ll_usb.c ****         USBx_INEP(epnum)->DIEPTSIZ |= (USB_OTG_DIEPTSIZ_MULCNT & (1U << 29));
 2231              		.loc 1 809 36 is_stmt 0 view .LVU733
 2232 0116 1D69     		ldr	r5, [r3, #16]
 2233 0118 25F0C045 		bic	r5, r5, #1610612736
 2234 011c 1D61     		str	r5, [r3, #16]
 810:Drivers/STM32F4xx_HAL_Driver/Src/stm32f4xx_ll_usb.c ****       }
 2235              		.loc 1 810 9 is_stmt 1 view .LVU734
 810:Drivers/STM32F4xx_HAL_Driver/Src/stm32f4xx_ll_usb.c ****       }
 2236              		.loc 1 810 36 is_stmt 0 view .LVU735
 2237 011e 1D69     		ldr	r5, [r3, #16]
 2238 0120 45F00055 		orr	r5, r5, #536870912
 2239 0124 1D61     		str	r5, [r3, #16]
 2240 0126 B9E7     		b	.L140
 2241              	.L141:
 801:Drivers/STM32F4xx_HAL_Driver/Src/stm32f4xx_ll_usb.c ****                                        (((ep->xfer_len + ep->maxpacket - 1U) / ep->maxpacket) << 19
 2242              		.loc 1 801 9 is_stmt 1 view .LVU736
 801:Drivers/STM32F4xx_HAL_Driver/Src/stm32f4xx_ll_usb.c ****                                        (((ep->xfer_len + ep->maxpacket - 1U) / ep->maxpacket) << 19
 2243              		.loc 1 801 36 is_stmt 0 view .LVU737
 2244 0128 1E69     		ldr	r6, [r3, #16]
 802:Drivers/STM32F4xx_HAL_Driver/Src/stm32f4xx_ll_usb.c ****       }
 2245              		.loc 1 802 45 view .LVU738
 2246 012a 0D69     		ldr	r5, [r1, #16]
 802:Drivers/STM32F4xx_HAL_Driver/Src/stm32f4xx_ll_usb.c ****       }
 2247              		.loc 1 802 60 view .LVU739
 2248 012c 8F68     		ldr	r7, [r1, #8]
 802:Drivers/STM32F4xx_HAL_Driver/Src/stm32f4xx_ll_usb.c ****       }
 2249              		.loc 1 802 56 view .LVU740
 2250 012e 3D44     		add	r5, r5, r7
 802:Drivers/STM32F4xx_HAL_Driver/Src/stm32f4xx_ll_usb.c ****       }
 2251              		.loc 1 802 72 view .LVU741
 2252 0130 013D     		subs	r5, r5, #1
 802:Drivers/STM32F4xx_HAL_Driver/Src/stm32f4xx_ll_usb.c ****       }
 2253              		.loc 1 802 78 view .LVU742
 2254 0132 B5FBF7F5 		udiv	r5, r5, r7
 801:Drivers/STM32F4xx_HAL_Driver/Src/stm32f4xx_ll_usb.c ****                                        (((ep->xfer_len + ep->maxpacket - 1U) / ep->maxpacket) << 19
 2255              		.loc 1 801 64 view .LVU743
 2256 0136 424F     		ldr	r7, .L165
 2257 0138 07EAC545 		and	r5, r7, r5, lsl #19
 801:Drivers/STM32F4xx_HAL_Driver/Src/stm32f4xx_ll_usb.c ****                                        (((ep->xfer_len + ep->maxpacket - 1U) / ep->maxpacket) << 19
 2258              		.loc 1 801 36 view .LVU744
 2259 013c 3543     		orrs	r5, r5, r6
 2260 013e 1D61     		str	r5, [r3, #16]
 2261 0140 DFE7     		b	.L143
 2262              	.L163:
 816:Drivers/STM32F4xx_HAL_Driver/Src/stm32f4xx_ll_usb.c ****       {
 2263              		.loc 1 816 7 is_stmt 1 view .LVU745
 816:Drivers/STM32F4xx_HAL_Driver/Src/stm32f4xx_ll_usb.c ****       {
 2264              		.loc 1 816 23 is_stmt 0 view .LVU746
 2265 0142 CB69     		ldr	r3, [r1, #28]
 816:Drivers/STM32F4xx_HAL_Driver/Src/stm32f4xx_ll_usb.c ****       {
 2266              		.loc 1 816 10 view .LVU747
 2267 0144 1BB1     		cbz	r3, .L145
ARM GAS  C:\Users\ashto\AppData\Local\Temp\ccdF3pho.s 			page 78


 818:Drivers/STM32F4xx_HAL_Driver/Src/stm32f4xx_ll_usb.c ****       }
 2268              		.loc 1 818 9 is_stmt 1 view .LVU748
 2269 0146 00EB4412 		add	r2, r0, r4, lsl #5
 2270              	.LVL169:
 818:Drivers/STM32F4xx_HAL_Driver/Src/stm32f4xx_ll_usb.c ****       }
 2271              		.loc 1 818 35 is_stmt 0 view .LVU749
 2272 014a C2F81439 		str	r3, [r2, #2324]
 2273              	.L145:
 821:Drivers/STM32F4xx_HAL_Driver/Src/stm32f4xx_ll_usb.c ****       {
 2274              		.loc 1 821 7 is_stmt 1 view .LVU750
 821:Drivers/STM32F4xx_HAL_Driver/Src/stm32f4xx_ll_usb.c ****       {
 2275              		.loc 1 821 13 is_stmt 0 view .LVU751
 2276 014e 0B79     		ldrb	r3, [r1, #4]	@ zero_extendqisi2
 821:Drivers/STM32F4xx_HAL_Driver/Src/stm32f4xx_ll_usb.c ****       {
 2277              		.loc 1 821 10 view .LVU752
 2278 0150 012B     		cmp	r3, #1
 2279 0152 08D0     		beq	.L164
 2280              	.L146:
 834:Drivers/STM32F4xx_HAL_Driver/Src/stm32f4xx_ll_usb.c ****     }
 2281              		.loc 1 834 7 is_stmt 1 view .LVU753
 834:Drivers/STM32F4xx_HAL_Driver/Src/stm32f4xx_ll_usb.c ****     }
 2282              		.loc 1 834 33 is_stmt 0 view .LVU754
 2283 0154 00EB4410 		add	r0, r0, r4, lsl #5
 2284              	.LVL170:
 834:Drivers/STM32F4xx_HAL_Driver/Src/stm32f4xx_ll_usb.c ****     }
 2285              		.loc 1 834 33 view .LVU755
 2286 0158 D0F80039 		ldr	r3, [r0, #2304]
 2287 015c 43F00443 		orr	r3, r3, #-2080374784
 2288 0160 C0F80039 		str	r3, [r0, #2304]
 2289 0164 7FE7     		b	.L148
 2290              	.LVL171:
 2291              	.L164:
 823:Drivers/STM32F4xx_HAL_Driver/Src/stm32f4xx_ll_usb.c ****         {
 2292              		.loc 1 823 9 is_stmt 1 view .LVU756
 823:Drivers/STM32F4xx_HAL_Driver/Src/stm32f4xx_ll_usb.c ****         {
 2293              		.loc 1 823 25 is_stmt 0 view .LVU757
 2294 0166 D0F80838 		ldr	r3, [r0, #2056]
 823:Drivers/STM32F4xx_HAL_Driver/Src/stm32f4xx_ll_usb.c ****         {
 2295              		.loc 1 823 12 view .LVU758
 2296 016a 13F4807F 		tst	r3, #256
 2297 016e 08D1     		bne	.L147
 825:Drivers/STM32F4xx_HAL_Driver/Src/stm32f4xx_ll_usb.c ****         }
 2298              		.loc 1 825 11 is_stmt 1 view .LVU759
 825:Drivers/STM32F4xx_HAL_Driver/Src/stm32f4xx_ll_usb.c ****         }
 2299              		.loc 1 825 37 is_stmt 0 view .LVU760
 2300 0170 00EB4412 		add	r2, r0, r4, lsl #5
 2301 0174 D2F80039 		ldr	r3, [r2, #2304]
 2302 0178 43F00053 		orr	r3, r3, #536870912
 2303 017c C2F80039 		str	r3, [r2, #2304]
 2304 0180 E8E7     		b	.L146
 2305              	.L147:
 829:Drivers/STM32F4xx_HAL_Driver/Src/stm32f4xx_ll_usb.c ****         }
 2306              		.loc 1 829 11 is_stmt 1 view .LVU761
 829:Drivers/STM32F4xx_HAL_Driver/Src/stm32f4xx_ll_usb.c ****         }
 2307              		.loc 1 829 37 is_stmt 0 view .LVU762
 2308 0182 00EB4412 		add	r2, r0, r4, lsl #5
 2309 0186 D2F80039 		ldr	r3, [r2, #2304]
ARM GAS  C:\Users\ashto\AppData\Local\Temp\ccdF3pho.s 			page 79


 2310 018a 43F08053 		orr	r3, r3, #268435456
 2311 018e C2F80039 		str	r3, [r2, #2304]
 2312 0192 DFE7     		b	.L146
 2313              	.LVL172:
 2314              	.L149:
 851:Drivers/STM32F4xx_HAL_Driver/Src/stm32f4xx_ll_usb.c ****         {
 2315              		.loc 1 851 9 is_stmt 1 view .LVU763
 851:Drivers/STM32F4xx_HAL_Driver/Src/stm32f4xx_ll_usb.c ****         {
 2316              		.loc 1 851 25 is_stmt 0 view .LVU764
 2317 0194 D0F80838 		ldr	r3, [r0, #2056]
 851:Drivers/STM32F4xx_HAL_Driver/Src/stm32f4xx_ll_usb.c ****         {
 2318              		.loc 1 851 12 view .LVU765
 2319 0198 13F4807F 		tst	r3, #256
 2320 019c 0CD1     		bne	.L150
 853:Drivers/STM32F4xx_HAL_Driver/Src/stm32f4xx_ll_usb.c ****         }
 2321              		.loc 1 853 11 is_stmt 1 view .LVU766
 853:Drivers/STM32F4xx_HAL_Driver/Src/stm32f4xx_ll_usb.c ****         }
 2322              		.loc 1 853 37 is_stmt 0 view .LVU767
 2323 019e D4F80039 		ldr	r3, [r4, #2304]
 2324 01a2 43F00053 		orr	r3, r3, #536870912
 2325 01a6 C4F80039 		str	r3, [r4, #2304]
 2326              	.L151:
 860:Drivers/STM32F4xx_HAL_Driver/Src/stm32f4xx_ll_usb.c ****       }
 2327              		.loc 1 860 9 is_stmt 1 view .LVU768
 860:Drivers/STM32F4xx_HAL_Driver/Src/stm32f4xx_ll_usb.c ****       }
 2328              		.loc 1 860 15 is_stmt 0 view .LVU769
 2329 01aa 0092     		str	r2, [sp]
 2330 01ac 0B8A     		ldrh	r3, [r1, #16]
 2331 01ae 0A78     		ldrb	r2, [r1]	@ zero_extendqisi2
 2332              	.LVL173:
 860:Drivers/STM32F4xx_HAL_Driver/Src/stm32f4xx_ll_usb.c ****       }
 2333              		.loc 1 860 15 view .LVU770
 2334 01b0 C968     		ldr	r1, [r1, #12]
 2335              	.LVL174:
 860:Drivers/STM32F4xx_HAL_Driver/Src/stm32f4xx_ll_usb.c ****       }
 2336              		.loc 1 860 15 view .LVU771
 2337 01b2 FFF7FEFF 		bl	USB_WritePacket
 2338              	.LVL175:
 860:Drivers/STM32F4xx_HAL_Driver/Src/stm32f4xx_ll_usb.c ****       }
 2339              		.loc 1 860 15 view .LVU772
 2340 01b6 56E7     		b	.L148
 2341              	.LVL176:
 2342              	.L150:
 857:Drivers/STM32F4xx_HAL_Driver/Src/stm32f4xx_ll_usb.c ****         }
 2343              		.loc 1 857 11 is_stmt 1 view .LVU773
 857:Drivers/STM32F4xx_HAL_Driver/Src/stm32f4xx_ll_usb.c ****         }
 2344              		.loc 1 857 37 is_stmt 0 view .LVU774
 2345 01b8 D4F80039 		ldr	r3, [r4, #2304]
 2346 01bc 43F08053 		orr	r3, r3, #268435456
 2347 01c0 C4F80039 		str	r3, [r4, #2304]
 2348 01c4 F1E7     		b	.L151
 2349              	.LVL177:
 2350              	.L152:
 888:Drivers/STM32F4xx_HAL_Driver/Src/stm32f4xx_ll_usb.c ****       {
 2351              		.loc 1 888 7 is_stmt 1 view .LVU775
 888:Drivers/STM32F4xx_HAL_Driver/Src/stm32f4xx_ll_usb.c ****       {
 2352              		.loc 1 888 13 is_stmt 0 view .LVU776
ARM GAS  C:\Users\ashto\AppData\Local\Temp\ccdF3pho.s 			page 80


 2353 01c6 0C69     		ldr	r4, [r1, #16]
 2354              	.LVL178:
 888:Drivers/STM32F4xx_HAL_Driver/Src/stm32f4xx_ll_usb.c ****       {
 2355              		.loc 1 888 10 view .LVU777
 2356 01c8 54B9     		cbnz	r4, .L155
 890:Drivers/STM32F4xx_HAL_Driver/Src/stm32f4xx_ll_usb.c ****         USBx_OUTEP(epnum)->DOEPTSIZ |= (USB_OTG_DOEPTSIZ_PKTCNT & (1U << 19));
 2357              		.loc 1 890 9 is_stmt 1 view .LVU778
 890:Drivers/STM32F4xx_HAL_Driver/Src/stm32f4xx_ll_usb.c ****         USBx_OUTEP(epnum)->DOEPTSIZ |= (USB_OTG_DOEPTSIZ_PKTCNT & (1U << 19));
 2358              		.loc 1 890 37 is_stmt 0 view .LVU779
 2359 01ca 1C69     		ldr	r4, [r3, #16]
 890:Drivers/STM32F4xx_HAL_Driver/Src/stm32f4xx_ll_usb.c ****         USBx_OUTEP(epnum)->DOEPTSIZ |= (USB_OTG_DOEPTSIZ_PKTCNT & (1U << 19));
 2360              		.loc 1 890 69 view .LVU780
 2361 01cc 8D68     		ldr	r5, [r1, #8]
 890:Drivers/STM32F4xx_HAL_Driver/Src/stm32f4xx_ll_usb.c ****         USBx_OUTEP(epnum)->DOEPTSIZ |= (USB_OTG_DOEPTSIZ_PKTCNT & (1U << 19));
 2362              		.loc 1 890 65 view .LVU781
 2363 01ce C5F31205 		ubfx	r5, r5, #0, #19
 890:Drivers/STM32F4xx_HAL_Driver/Src/stm32f4xx_ll_usb.c ****         USBx_OUTEP(epnum)->DOEPTSIZ |= (USB_OTG_DOEPTSIZ_PKTCNT & (1U << 19));
 2364              		.loc 1 890 37 view .LVU782
 2365 01d2 2C43     		orrs	r4, r4, r5
 2366 01d4 1C61     		str	r4, [r3, #16]
 891:Drivers/STM32F4xx_HAL_Driver/Src/stm32f4xx_ll_usb.c ****       }
 2367              		.loc 1 891 9 is_stmt 1 view .LVU783
 891:Drivers/STM32F4xx_HAL_Driver/Src/stm32f4xx_ll_usb.c ****       }
 2368              		.loc 1 891 37 is_stmt 0 view .LVU784
 2369 01d6 1C69     		ldr	r4, [r3, #16]
 2370 01d8 44F40024 		orr	r4, r4, #524288
 2371 01dc 1C61     		str	r4, [r3, #16]
 2372 01de 35E7     		b	.L154
 2373              	.L155:
 895:Drivers/STM32F4xx_HAL_Driver/Src/stm32f4xx_ll_usb.c ****         ep->xfer_size = ep->maxpacket * pktcnt;
 2374              		.loc 1 895 9 is_stmt 1 view .LVU785
 895:Drivers/STM32F4xx_HAL_Driver/Src/stm32f4xx_ll_usb.c ****         ep->xfer_size = ep->maxpacket * pktcnt;
 2375              		.loc 1 895 47 is_stmt 0 view .LVU786
 2376 01e0 8D68     		ldr	r5, [r1, #8]
 895:Drivers/STM32F4xx_HAL_Driver/Src/stm32f4xx_ll_usb.c ****         ep->xfer_size = ep->maxpacket * pktcnt;
 2377              		.loc 1 895 43 view .LVU787
 2378 01e2 2C44     		add	r4, r4, r5
 895:Drivers/STM32F4xx_HAL_Driver/Src/stm32f4xx_ll_usb.c ****         ep->xfer_size = ep->maxpacket * pktcnt;
 2379              		.loc 1 895 59 view .LVU788
 2380 01e4 013C     		subs	r4, r4, #1
 895:Drivers/STM32F4xx_HAL_Driver/Src/stm32f4xx_ll_usb.c ****         ep->xfer_size = ep->maxpacket * pktcnt;
 2381              		.loc 1 895 65 view .LVU789
 2382 01e6 B4FBF5F4 		udiv	r4, r4, r5
 2383              	.LVL179:
 896:Drivers/STM32F4xx_HAL_Driver/Src/stm32f4xx_ll_usb.c **** 
 2384              		.loc 1 896 9 is_stmt 1 view .LVU790
 2385 01ea A4B2     		uxth	r4, r4
 896:Drivers/STM32F4xx_HAL_Driver/Src/stm32f4xx_ll_usb.c **** 
 2386              		.loc 1 896 39 is_stmt 0 view .LVU791
 2387 01ec 04FB05F5 		mul	r5, r4, r5
 896:Drivers/STM32F4xx_HAL_Driver/Src/stm32f4xx_ll_usb.c **** 
 2388              		.loc 1 896 23 view .LVU792
 2389 01f0 0D62     		str	r5, [r1, #32]
 898:Drivers/STM32F4xx_HAL_Driver/Src/stm32f4xx_ll_usb.c ****         USBx_OUTEP(epnum)->DOEPTSIZ |= USB_OTG_DOEPTSIZ_XFRSIZ & ep->xfer_size;
 2390              		.loc 1 898 9 is_stmt 1 view .LVU793
 898:Drivers/STM32F4xx_HAL_Driver/Src/stm32f4xx_ll_usb.c ****         USBx_OUTEP(epnum)->DOEPTSIZ |= USB_OTG_DOEPTSIZ_XFRSIZ & ep->xfer_size;
 2391              		.loc 1 898 37 is_stmt 0 view .LVU794
ARM GAS  C:\Users\ashto\AppData\Local\Temp\ccdF3pho.s 			page 81


 2392 01f2 1D69     		ldr	r5, [r3, #16]
 898:Drivers/STM32F4xx_HAL_Driver/Src/stm32f4xx_ll_usb.c ****         USBx_OUTEP(epnum)->DOEPTSIZ |= USB_OTG_DOEPTSIZ_XFRSIZ & ep->xfer_size;
 2393              		.loc 1 898 64 view .LVU795
 2394 01f4 124E     		ldr	r6, .L165
 2395 01f6 06EAC444 		and	r4, r6, r4, lsl #19
 2396              	.LVL180:
 898:Drivers/STM32F4xx_HAL_Driver/Src/stm32f4xx_ll_usb.c ****         USBx_OUTEP(epnum)->DOEPTSIZ |= USB_OTG_DOEPTSIZ_XFRSIZ & ep->xfer_size;
 2397              		.loc 1 898 37 view .LVU796
 2398 01fa 2C43     		orrs	r4, r4, r5
 2399 01fc 1C61     		str	r4, [r3, #16]
 2400              	.LVL181:
 899:Drivers/STM32F4xx_HAL_Driver/Src/stm32f4xx_ll_usb.c ****       }
 2401              		.loc 1 899 9 is_stmt 1 view .LVU797
 899:Drivers/STM32F4xx_HAL_Driver/Src/stm32f4xx_ll_usb.c ****       }
 2402              		.loc 1 899 37 is_stmt 0 view .LVU798
 2403 01fe 1C69     		ldr	r4, [r3, #16]
 899:Drivers/STM32F4xx_HAL_Driver/Src/stm32f4xx_ll_usb.c ****       }
 2404              		.loc 1 899 68 view .LVU799
 2405 0200 0D6A     		ldr	r5, [r1, #32]
 899:Drivers/STM32F4xx_HAL_Driver/Src/stm32f4xx_ll_usb.c ****       }
 2406              		.loc 1 899 64 view .LVU800
 2407 0202 C5F31205 		ubfx	r5, r5, #0, #19
 899:Drivers/STM32F4xx_HAL_Driver/Src/stm32f4xx_ll_usb.c ****       }
 2408              		.loc 1 899 37 view .LVU801
 2409 0206 2C43     		orrs	r4, r4, r5
 2410 0208 1C61     		str	r4, [r3, #16]
 2411 020a 1FE7     		b	.L154
 2412              	.L161:
 905:Drivers/STM32F4xx_HAL_Driver/Src/stm32f4xx_ll_usb.c ****       {
 2413              		.loc 1 905 7 is_stmt 1 view .LVU802
 905:Drivers/STM32F4xx_HAL_Driver/Src/stm32f4xx_ll_usb.c ****       {
 2414              		.loc 1 905 23 is_stmt 0 view .LVU803
 2415 020c CA68     		ldr	r2, [r1, #12]
 2416              	.LVL182:
 905:Drivers/STM32F4xx_HAL_Driver/Src/stm32f4xx_ll_usb.c ****       {
 2417              		.loc 1 905 10 view .LVU804
 2418 020e 002A     		cmp	r2, #0
 2419 0210 3FF41FAF 		beq	.L156
 907:Drivers/STM32F4xx_HAL_Driver/Src/stm32f4xx_ll_usb.c ****       }
 2420              		.loc 1 907 9 is_stmt 1 view .LVU805
 907:Drivers/STM32F4xx_HAL_Driver/Src/stm32f4xx_ll_usb.c ****       }
 2421              		.loc 1 907 36 is_stmt 0 view .LVU806
 2422 0214 5A61     		str	r2, [r3, #20]
 2423 0216 1CE7     		b	.L156
 2424              	.L162:
 913:Drivers/STM32F4xx_HAL_Driver/Src/stm32f4xx_ll_usb.c ****       {
 2425              		.loc 1 913 7 is_stmt 1 view .LVU807
 913:Drivers/STM32F4xx_HAL_Driver/Src/stm32f4xx_ll_usb.c ****       {
 2426              		.loc 1 913 23 is_stmt 0 view .LVU808
 2427 0218 D0F80838 		ldr	r3, [r0, #2056]
 913:Drivers/STM32F4xx_HAL_Driver/Src/stm32f4xx_ll_usb.c ****       {
 2428              		.loc 1 913 10 view .LVU809
 2429 021c 13F4807F 		tst	r3, #256
 2430 0220 06D1     		bne	.L158
 915:Drivers/STM32F4xx_HAL_Driver/Src/stm32f4xx_ll_usb.c ****       }
 2431              		.loc 1 915 9 is_stmt 1 view .LVU810
 915:Drivers/STM32F4xx_HAL_Driver/Src/stm32f4xx_ll_usb.c ****       }
ARM GAS  C:\Users\ashto\AppData\Local\Temp\ccdF3pho.s 			page 82


 2432              		.loc 1 915 36 is_stmt 0 view .LVU811
 2433 0222 DCF8003B 		ldr	r3, [ip, #2816]
 2434 0226 43F00053 		orr	r3, r3, #536870912
 2435 022a CCF8003B 		str	r3, [ip, #2816]
 2436 022e 14E7     		b	.L157
 2437              	.L158:
 919:Drivers/STM32F4xx_HAL_Driver/Src/stm32f4xx_ll_usb.c ****       }
 2438              		.loc 1 919 9 is_stmt 1 view .LVU812
 919:Drivers/STM32F4xx_HAL_Driver/Src/stm32f4xx_ll_usb.c ****       }
 2439              		.loc 1 919 36 is_stmt 0 view .LVU813
 2440 0230 DCF8003B 		ldr	r3, [ip, #2816]
 2441 0234 43F08053 		orr	r3, r3, #268435456
 2442 0238 CCF8003B 		str	r3, [ip, #2816]
 2443 023c 0DE7     		b	.L157
 2444              	.L166:
 2445 023e 00BF     		.align	2
 2446              	.L165:
 2447 0240 0000F81F 		.word	536346624
 2448              		.cfi_endproc
 2449              	.LFE148:
 2451              		.section	.text.USB_ReadPacket,"ax",%progbits
 2452              		.align	1
 2453              		.global	USB_ReadPacket
 2454              		.syntax unified
 2455              		.thumb
 2456              		.thumb_func
 2458              	USB_ReadPacket:
 2459              	.LVL183:
 2460              	.LFB151:
1032:Drivers/STM32F4xx_HAL_Driver/Src/stm32f4xx_ll_usb.c ****   uint32_t USBx_BASE = (uint32_t)USBx;
 2461              		.loc 1 1032 1 is_stmt 1 view -0
 2462              		.cfi_startproc
 2463              		@ args = 0, pretend = 0, frame = 8
 2464              		@ frame_needed = 0, uses_anonymous_args = 0
1032:Drivers/STM32F4xx_HAL_Driver/Src/stm32f4xx_ll_usb.c ****   uint32_t USBx_BASE = (uint32_t)USBx;
 2465              		.loc 1 1032 1 is_stmt 0 view .LVU815
 2466 0000 00B5     		push	{lr}
 2467              	.LCFI34:
 2468              		.cfi_def_cfa_offset 4
 2469              		.cfi_offset 14, -4
 2470 0002 83B0     		sub	sp, sp, #12
 2471              	.LCFI35:
 2472              		.cfi_def_cfa_offset 16
 2473 0004 8446     		mov	ip, r0
 2474 0006 0846     		mov	r0, r1
 2475              	.LVL184:
1033:Drivers/STM32F4xx_HAL_Driver/Src/stm32f4xx_ll_usb.c ****   uint8_t *pDest = dest;
 2476              		.loc 1 1033 3 is_stmt 1 view .LVU816
1034:Drivers/STM32F4xx_HAL_Driver/Src/stm32f4xx_ll_usb.c ****   uint32_t pData;
 2477              		.loc 1 1034 3 view .LVU817
1035:Drivers/STM32F4xx_HAL_Driver/Src/stm32f4xx_ll_usb.c ****   uint32_t i;
 2478              		.loc 1 1035 3 view .LVU818
1036:Drivers/STM32F4xx_HAL_Driver/Src/stm32f4xx_ll_usb.c ****   uint32_t count32b = (uint32_t)len >> 2U;
 2479              		.loc 1 1036 3 view .LVU819
1037:Drivers/STM32F4xx_HAL_Driver/Src/stm32f4xx_ll_usb.c ****   uint16_t remaining_bytes = len % 4U;
 2480              		.loc 1 1037 3 view .LVU820
1037:Drivers/STM32F4xx_HAL_Driver/Src/stm32f4xx_ll_usb.c ****   uint16_t remaining_bytes = len % 4U;
ARM GAS  C:\Users\ashto\AppData\Local\Temp\ccdF3pho.s 			page 83


 2481              		.loc 1 1037 37 is_stmt 0 view .LVU821
 2482 0008 4FEA920E 		lsr	lr, r2, #2
 2483              	.LVL185:
1038:Drivers/STM32F4xx_HAL_Driver/Src/stm32f4xx_ll_usb.c **** 
 2484              		.loc 1 1038 3 is_stmt 1 view .LVU822
1038:Drivers/STM32F4xx_HAL_Driver/Src/stm32f4xx_ll_usb.c **** 
 2485              		.loc 1 1038 12 is_stmt 0 view .LVU823
 2486 000c 02F00302 		and	r2, r2, #3
 2487              	.LVL186:
1040:Drivers/STM32F4xx_HAL_Driver/Src/stm32f4xx_ll_usb.c ****   {
 2488              		.loc 1 1040 3 is_stmt 1 view .LVU824
1040:Drivers/STM32F4xx_HAL_Driver/Src/stm32f4xx_ll_usb.c ****   {
 2489              		.loc 1 1040 10 is_stmt 0 view .LVU825
 2490 0010 0023     		movs	r3, #0
1040:Drivers/STM32F4xx_HAL_Driver/Src/stm32f4xx_ll_usb.c ****   {
 2491              		.loc 1 1040 3 view .LVU826
 2492 0012 05E0     		b	.L168
 2493              	.LVL187:
 2494              	.L169:
1042:Drivers/STM32F4xx_HAL_Driver/Src/stm32f4xx_ll_usb.c ****     pDest++;
 2495              		.loc 1 1042 5 is_stmt 1 discriminator 3 view .LVU827
 2496 0014 0CF58051 		add	r1, ip, #4096
 2497 0018 0968     		ldr	r1, [r1]
 2498 001a 40F8041B 		str	r1, [r0], #4	@ unaligned
 2499              	.LVL188:
1043:Drivers/STM32F4xx_HAL_Driver/Src/stm32f4xx_ll_usb.c ****     pDest++;
 2500              		.loc 1 1043 5 discriminator 3 view .LVU828
1044:Drivers/STM32F4xx_HAL_Driver/Src/stm32f4xx_ll_usb.c ****     pDest++;
 2501              		.loc 1 1044 5 discriminator 3 view .LVU829
1045:Drivers/STM32F4xx_HAL_Driver/Src/stm32f4xx_ll_usb.c ****     pDest++;
 2502              		.loc 1 1045 5 discriminator 3 view .LVU830
1046:Drivers/STM32F4xx_HAL_Driver/Src/stm32f4xx_ll_usb.c ****   }
 2503              		.loc 1 1046 5 discriminator 3 view .LVU831
1040:Drivers/STM32F4xx_HAL_Driver/Src/stm32f4xx_ll_usb.c ****   {
 2504              		.loc 1 1040 30 discriminator 3 view .LVU832
1040:Drivers/STM32F4xx_HAL_Driver/Src/stm32f4xx_ll_usb.c ****   {
 2505              		.loc 1 1040 31 is_stmt 0 discriminator 3 view .LVU833
 2506 001e 0133     		adds	r3, r3, #1
 2507              	.LVL189:
 2508              	.L168:
1040:Drivers/STM32F4xx_HAL_Driver/Src/stm32f4xx_ll_usb.c ****   {
 2509              		.loc 1 1040 16 is_stmt 1 discriminator 1 view .LVU834
1040:Drivers/STM32F4xx_HAL_Driver/Src/stm32f4xx_ll_usb.c ****   {
 2510              		.loc 1 1040 3 is_stmt 0 discriminator 1 view .LVU835
 2511 0020 7345     		cmp	r3, lr
 2512 0022 F7D3     		bcc	.L169
1050:Drivers/STM32F4xx_HAL_Driver/Src/stm32f4xx_ll_usb.c ****   {
 2513              		.loc 1 1050 3 is_stmt 1 view .LVU836
1050:Drivers/STM32F4xx_HAL_Driver/Src/stm32f4xx_ll_usb.c ****   {
 2514              		.loc 1 1050 6 is_stmt 0 view .LVU837
 2515 0024 9AB1     		cbz	r2, .L170
1052:Drivers/STM32F4xx_HAL_Driver/Src/stm32f4xx_ll_usb.c ****     __UNALIGNED_UINT32_WRITE(&pData, USBx_DFIFO(0U));
 2516              		.loc 1 1052 5 is_stmt 1 view .LVU838
 2517              	.LVL190:
1053:Drivers/STM32F4xx_HAL_Driver/Src/stm32f4xx_ll_usb.c **** 
 2518              		.loc 1 1053 5 view .LVU839
 2519 0026 0CF5805C 		add	ip, ip, #4096
ARM GAS  C:\Users\ashto\AppData\Local\Temp\ccdF3pho.s 			page 84


 2520              	.LVL191:
1053:Drivers/STM32F4xx_HAL_Driver/Src/stm32f4xx_ll_usb.c **** 
 2521              		.loc 1 1053 5 is_stmt 0 view .LVU840
 2522 002a DCF80030 		ldr	r3, [ip]
 2523 002e 0193     		str	r3, [sp, #4]
1052:Drivers/STM32F4xx_HAL_Driver/Src/stm32f4xx_ll_usb.c ****     __UNALIGNED_UINT32_WRITE(&pData, USBx_DFIFO(0U));
 2524              		.loc 1 1052 7 view .LVU841
 2525 0030 4FF0000C 		mov	ip, #0
 2526              	.LVL192:
 2527              	.L171:
1055:Drivers/STM32F4xx_HAL_Driver/Src/stm32f4xx_ll_usb.c ****     {
 2528              		.loc 1 1055 5 is_stmt 1 discriminator 1 view .LVU842
1057:Drivers/STM32F4xx_HAL_Driver/Src/stm32f4xx_ll_usb.c ****       i++;
 2529              		.loc 1 1057 7 discriminator 1 view .LVU843
1057:Drivers/STM32F4xx_HAL_Driver/Src/stm32f4xx_ll_usb.c ****       i++;
 2530              		.loc 1 1057 50 is_stmt 0 discriminator 1 view .LVU844
 2531 0034 5FFA8CF3 		uxtb	r3, ip
 2532 0038 D900     		lsls	r1, r3, #3
1057:Drivers/STM32F4xx_HAL_Driver/Src/stm32f4xx_ll_usb.c ****       i++;
 2533              		.loc 1 1057 43 discriminator 1 view .LVU845
 2534 003a 019B     		ldr	r3, [sp, #4]
 2535 003c CB40     		lsrs	r3, r3, r1
1057:Drivers/STM32F4xx_HAL_Driver/Src/stm32f4xx_ll_usb.c ****       i++;
 2536              		.loc 1 1057 25 discriminator 1 view .LVU846
 2537 003e 00F8013B 		strb	r3, [r0], #1
 2538              	.LVL193:
1058:Drivers/STM32F4xx_HAL_Driver/Src/stm32f4xx_ll_usb.c ****       pDest++;
 2539              		.loc 1 1058 7 is_stmt 1 discriminator 1 view .LVU847
1058:Drivers/STM32F4xx_HAL_Driver/Src/stm32f4xx_ll_usb.c ****       pDest++;
 2540              		.loc 1 1058 8 is_stmt 0 discriminator 1 view .LVU848
 2541 0042 0CF1010C 		add	ip, ip, #1
 2542              	.LVL194:
1059:Drivers/STM32F4xx_HAL_Driver/Src/stm32f4xx_ll_usb.c ****       remaining_bytes--;
 2543              		.loc 1 1059 7 is_stmt 1 discriminator 1 view .LVU849
1060:Drivers/STM32F4xx_HAL_Driver/Src/stm32f4xx_ll_usb.c ****     } while (remaining_bytes != 0U);
 2544              		.loc 1 1060 7 discriminator 1 view .LVU850
1060:Drivers/STM32F4xx_HAL_Driver/Src/stm32f4xx_ll_usb.c ****     } while (remaining_bytes != 0U);
 2545              		.loc 1 1060 22 is_stmt 0 discriminator 1 view .LVU851
 2546 0046 013A     		subs	r2, r2, #1
 2547              	.LVL195:
1060:Drivers/STM32F4xx_HAL_Driver/Src/stm32f4xx_ll_usb.c ****     } while (remaining_bytes != 0U);
 2548              		.loc 1 1060 22 discriminator 1 view .LVU852
 2549 0048 92B2     		uxth	r2, r2
 2550              	.LVL196:
1061:Drivers/STM32F4xx_HAL_Driver/Src/stm32f4xx_ll_usb.c ****   }
 2551              		.loc 1 1061 13 is_stmt 1 discriminator 1 view .LVU853
1061:Drivers/STM32F4xx_HAL_Driver/Src/stm32f4xx_ll_usb.c ****   }
 2552              		.loc 1 1061 5 is_stmt 0 discriminator 1 view .LVU854
 2553 004a 002A     		cmp	r2, #0
 2554 004c F2D1     		bne	.L171
 2555              	.LVL197:
 2556              	.L170:
1064:Drivers/STM32F4xx_HAL_Driver/Src/stm32f4xx_ll_usb.c **** }
 2557              		.loc 1 1064 3 is_stmt 1 view .LVU855
1065:Drivers/STM32F4xx_HAL_Driver/Src/stm32f4xx_ll_usb.c **** 
 2558              		.loc 1 1065 1 is_stmt 0 view .LVU856
 2559 004e 03B0     		add	sp, sp, #12
ARM GAS  C:\Users\ashto\AppData\Local\Temp\ccdF3pho.s 			page 85


 2560              	.LCFI36:
 2561              		.cfi_def_cfa_offset 4
 2562              		@ sp needed
 2563 0050 5DF804FB 		ldr	pc, [sp], #4
 2564              		.cfi_endproc
 2565              	.LFE151:
 2567              		.section	.text.USB_EPSetStall,"ax",%progbits
 2568              		.align	1
 2569              		.global	USB_EPSetStall
 2570              		.syntax unified
 2571              		.thumb
 2572              		.thumb_func
 2574              	USB_EPSetStall:
 2575              	.LVL198:
 2576              	.LFB152:
1074:Drivers/STM32F4xx_HAL_Driver/Src/stm32f4xx_ll_usb.c ****   uint32_t USBx_BASE = (uint32_t)USBx;
 2577              		.loc 1 1074 1 is_stmt 1 view -0
 2578              		.cfi_startproc
 2579              		@ args = 0, pretend = 0, frame = 0
 2580              		@ frame_needed = 0, uses_anonymous_args = 0
 2581              		@ link register save eliminated.
1075:Drivers/STM32F4xx_HAL_Driver/Src/stm32f4xx_ll_usb.c ****   uint32_t epnum = (uint32_t)ep->num;
 2582              		.loc 1 1075 3 view .LVU858
1076:Drivers/STM32F4xx_HAL_Driver/Src/stm32f4xx_ll_usb.c **** 
 2583              		.loc 1 1076 3 view .LVU859
1076:Drivers/STM32F4xx_HAL_Driver/Src/stm32f4xx_ll_usb.c **** 
 2584              		.loc 1 1076 32 is_stmt 0 view .LVU860
 2585 0000 0B78     		ldrb	r3, [r1]	@ zero_extendqisi2
 2586              	.LVL199:
1078:Drivers/STM32F4xx_HAL_Driver/Src/stm32f4xx_ll_usb.c ****   {
 2587              		.loc 1 1078 3 is_stmt 1 view .LVU861
1078:Drivers/STM32F4xx_HAL_Driver/Src/stm32f4xx_ll_usb.c ****   {
 2588              		.loc 1 1078 9 is_stmt 0 view .LVU862
 2589 0002 4A78     		ldrb	r2, [r1, #1]	@ zero_extendqisi2
1078:Drivers/STM32F4xx_HAL_Driver/Src/stm32f4xx_ll_usb.c ****   {
 2590              		.loc 1 1078 6 view .LVU863
 2591 0004 012A     		cmp	r2, #1
 2592 0006 14D0     		beq	.L178
1088:Drivers/STM32F4xx_HAL_Driver/Src/stm32f4xx_ll_usb.c ****     {
 2593              		.loc 1 1088 5 is_stmt 1 view .LVU864
1088:Drivers/STM32F4xx_HAL_Driver/Src/stm32f4xx_ll_usb.c ****     {
 2594              		.loc 1 1088 11 is_stmt 0 view .LVU865
 2595 0008 00EB4310 		add	r0, r0, r3, lsl #5
 2596              	.LVL200:
1088:Drivers/STM32F4xx_HAL_Driver/Src/stm32f4xx_ll_usb.c ****     {
 2597              		.loc 1 1088 28 view .LVU866
 2598 000c D0F8002B 		ldr	r2, [r0, #2816]
1088:Drivers/STM32F4xx_HAL_Driver/Src/stm32f4xx_ll_usb.c ****     {
 2599              		.loc 1 1088 8 view .LVU867
 2600 0010 002A     		cmp	r2, #0
 2601 0012 06DB     		blt	.L177
1088:Drivers/STM32F4xx_HAL_Driver/Src/stm32f4xx_ll_usb.c ****     {
 2602              		.loc 1 1088 70 discriminator 1 view .LVU868
 2603 0014 2BB1     		cbz	r3, .L177
1090:Drivers/STM32F4xx_HAL_Driver/Src/stm32f4xx_ll_usb.c ****     }
 2604              		.loc 1 1090 7 is_stmt 1 view .LVU869
1090:Drivers/STM32F4xx_HAL_Driver/Src/stm32f4xx_ll_usb.c ****     }
ARM GAS  C:\Users\ashto\AppData\Local\Temp\ccdF3pho.s 			page 86


 2605              		.loc 1 1090 34 is_stmt 0 view .LVU870
 2606 0016 D0F8003B 		ldr	r3, [r0, #2816]
 2607              	.LVL201:
1090:Drivers/STM32F4xx_HAL_Driver/Src/stm32f4xx_ll_usb.c ****     }
 2608              		.loc 1 1090 34 view .LVU871
 2609 001a 23F08043 		bic	r3, r3, #1073741824
 2610 001e C0F8003B 		str	r3, [r0, #2816]
 2611              	.LVL202:
 2612              	.L177:
1092:Drivers/STM32F4xx_HAL_Driver/Src/stm32f4xx_ll_usb.c ****   }
 2613              		.loc 1 1092 5 is_stmt 1 view .LVU872
1092:Drivers/STM32F4xx_HAL_Driver/Src/stm32f4xx_ll_usb.c ****   }
 2614              		.loc 1 1092 32 is_stmt 0 view .LVU873
 2615 0022 D0F8003B 		ldr	r3, [r0, #2816]
 2616 0026 43F40013 		orr	r3, r3, #2097152
 2617 002a C0F8003B 		str	r3, [r0, #2816]
 2618              	.L176:
1095:Drivers/STM32F4xx_HAL_Driver/Src/stm32f4xx_ll_usb.c **** }
 2619              		.loc 1 1095 3 is_stmt 1 view .LVU874
1096:Drivers/STM32F4xx_HAL_Driver/Src/stm32f4xx_ll_usb.c **** 
 2620              		.loc 1 1096 1 is_stmt 0 view .LVU875
 2621 002e 0020     		movs	r0, #0
 2622 0030 7047     		bx	lr
 2623              	.LVL203:
 2624              	.L178:
1080:Drivers/STM32F4xx_HAL_Driver/Src/stm32f4xx_ll_usb.c ****     {
 2625              		.loc 1 1080 5 is_stmt 1 view .LVU876
1080:Drivers/STM32F4xx_HAL_Driver/Src/stm32f4xx_ll_usb.c ****     {
 2626              		.loc 1 1080 11 is_stmt 0 view .LVU877
 2627 0032 00EB4310 		add	r0, r0, r3, lsl #5
 2628              	.LVL204:
1080:Drivers/STM32F4xx_HAL_Driver/Src/stm32f4xx_ll_usb.c ****     {
 2629              		.loc 1 1080 27 view .LVU878
 2630 0036 D0F80029 		ldr	r2, [r0, #2304]
1080:Drivers/STM32F4xx_HAL_Driver/Src/stm32f4xx_ll_usb.c ****     {
 2631              		.loc 1 1080 8 view .LVU879
 2632 003a 002A     		cmp	r2, #0
 2633 003c 06DB     		blt	.L175
1080:Drivers/STM32F4xx_HAL_Driver/Src/stm32f4xx_ll_usb.c ****     {
 2634              		.loc 1 1080 69 discriminator 1 view .LVU880
 2635 003e 2BB1     		cbz	r3, .L175
1082:Drivers/STM32F4xx_HAL_Driver/Src/stm32f4xx_ll_usb.c ****     }
 2636              		.loc 1 1082 7 is_stmt 1 view .LVU881
1082:Drivers/STM32F4xx_HAL_Driver/Src/stm32f4xx_ll_usb.c ****     }
 2637              		.loc 1 1082 33 is_stmt 0 view .LVU882
 2638 0040 D0F80039 		ldr	r3, [r0, #2304]
 2639              	.LVL205:
1082:Drivers/STM32F4xx_HAL_Driver/Src/stm32f4xx_ll_usb.c ****     }
 2640              		.loc 1 1082 33 view .LVU883
 2641 0044 23F08043 		bic	r3, r3, #1073741824
 2642 0048 C0F80039 		str	r3, [r0, #2304]
 2643              	.LVL206:
 2644              	.L175:
1084:Drivers/STM32F4xx_HAL_Driver/Src/stm32f4xx_ll_usb.c ****   }
 2645              		.loc 1 1084 5 is_stmt 1 view .LVU884
1084:Drivers/STM32F4xx_HAL_Driver/Src/stm32f4xx_ll_usb.c ****   }
 2646              		.loc 1 1084 31 is_stmt 0 view .LVU885
ARM GAS  C:\Users\ashto\AppData\Local\Temp\ccdF3pho.s 			page 87


 2647 004c D0F80039 		ldr	r3, [r0, #2304]
 2648 0050 43F40013 		orr	r3, r3, #2097152
 2649 0054 C0F80039 		str	r3, [r0, #2304]
 2650 0058 E9E7     		b	.L176
 2651              		.cfi_endproc
 2652              	.LFE152:
 2654              		.section	.text.USB_EPClearStall,"ax",%progbits
 2655              		.align	1
 2656              		.global	USB_EPClearStall
 2657              		.syntax unified
 2658              		.thumb
 2659              		.thumb_func
 2661              	USB_EPClearStall:
 2662              	.LVL207:
 2663              	.LFB153:
1105:Drivers/STM32F4xx_HAL_Driver/Src/stm32f4xx_ll_usb.c ****   uint32_t USBx_BASE = (uint32_t)USBx;
 2664              		.loc 1 1105 1 is_stmt 1 view -0
 2665              		.cfi_startproc
 2666              		@ args = 0, pretend = 0, frame = 0
 2667              		@ frame_needed = 0, uses_anonymous_args = 0
 2668              		@ link register save eliminated.
1106:Drivers/STM32F4xx_HAL_Driver/Src/stm32f4xx_ll_usb.c ****   uint32_t epnum = (uint32_t)ep->num;
 2669              		.loc 1 1106 3 view .LVU887
1107:Drivers/STM32F4xx_HAL_Driver/Src/stm32f4xx_ll_usb.c **** 
 2670              		.loc 1 1107 3 view .LVU888
1107:Drivers/STM32F4xx_HAL_Driver/Src/stm32f4xx_ll_usb.c **** 
 2671              		.loc 1 1107 32 is_stmt 0 view .LVU889
 2672 0000 0B78     		ldrb	r3, [r1]	@ zero_extendqisi2
 2673              	.LVL208:
1109:Drivers/STM32F4xx_HAL_Driver/Src/stm32f4xx_ll_usb.c ****   {
 2674              		.loc 1 1109 3 is_stmt 1 view .LVU890
1109:Drivers/STM32F4xx_HAL_Driver/Src/stm32f4xx_ll_usb.c ****   {
 2675              		.loc 1 1109 9 is_stmt 0 view .LVU891
 2676 0002 4A78     		ldrb	r2, [r1, #1]	@ zero_extendqisi2
1109:Drivers/STM32F4xx_HAL_Driver/Src/stm32f4xx_ll_usb.c ****   {
 2677              		.loc 1 1109 6 view .LVU892
 2678 0004 012A     		cmp	r2, #1
 2679 0006 0ED0     		beq	.L182
1119:Drivers/STM32F4xx_HAL_Driver/Src/stm32f4xx_ll_usb.c ****     if ((ep->type == EP_TYPE_INTR) || (ep->type == EP_TYPE_BULK))
 2680              		.loc 1 1119 5 is_stmt 1 view .LVU893
1119:Drivers/STM32F4xx_HAL_Driver/Src/stm32f4xx_ll_usb.c ****     if ((ep->type == EP_TYPE_INTR) || (ep->type == EP_TYPE_BULK))
 2681              		.loc 1 1119 32 is_stmt 0 view .LVU894
 2682 0008 00EB4310 		add	r0, r0, r3, lsl #5
 2683              	.LVL209:
1119:Drivers/STM32F4xx_HAL_Driver/Src/stm32f4xx_ll_usb.c ****     if ((ep->type == EP_TYPE_INTR) || (ep->type == EP_TYPE_BULK))
 2684              		.loc 1 1119 32 view .LVU895
 2685 000c D0F8003B 		ldr	r3, [r0, #2816]
 2686              	.LVL210:
1119:Drivers/STM32F4xx_HAL_Driver/Src/stm32f4xx_ll_usb.c ****     if ((ep->type == EP_TYPE_INTR) || (ep->type == EP_TYPE_BULK))
 2687              		.loc 1 1119 32 view .LVU896
 2688 0010 23F40013 		bic	r3, r3, #2097152
 2689 0014 C0F8003B 		str	r3, [r0, #2816]
 2690              	.LVL211:
1120:Drivers/STM32F4xx_HAL_Driver/Src/stm32f4xx_ll_usb.c ****     {
 2691              		.loc 1 1120 5 is_stmt 1 view .LVU897
1120:Drivers/STM32F4xx_HAL_Driver/Src/stm32f4xx_ll_usb.c ****     {
 2692              		.loc 1 1120 12 is_stmt 0 view .LVU898
ARM GAS  C:\Users\ashto\AppData\Local\Temp\ccdF3pho.s 			page 88


 2693 0018 0B79     		ldrb	r3, [r1, #4]	@ zero_extendqisi2
1120:Drivers/STM32F4xx_HAL_Driver/Src/stm32f4xx_ll_usb.c ****     {
 2694              		.loc 1 1120 36 view .LVU899
 2695 001a 023B     		subs	r3, r3, #2
 2696 001c DBB2     		uxtb	r3, r3
1120:Drivers/STM32F4xx_HAL_Driver/Src/stm32f4xx_ll_usb.c ****     {
 2697              		.loc 1 1120 8 view .LVU900
 2698 001e 012B     		cmp	r3, #1
 2699 0020 15D9     		bls	.L183
 2700              	.L181:
1125:Drivers/STM32F4xx_HAL_Driver/Src/stm32f4xx_ll_usb.c **** }
 2701              		.loc 1 1125 3 is_stmt 1 view .LVU901
1126:Drivers/STM32F4xx_HAL_Driver/Src/stm32f4xx_ll_usb.c **** 
 2702              		.loc 1 1126 1 is_stmt 0 view .LVU902
 2703 0022 0020     		movs	r0, #0
 2704 0024 7047     		bx	lr
 2705              	.LVL212:
 2706              	.L182:
1111:Drivers/STM32F4xx_HAL_Driver/Src/stm32f4xx_ll_usb.c ****     if ((ep->type == EP_TYPE_INTR) || (ep->type == EP_TYPE_BULK))
 2707              		.loc 1 1111 5 is_stmt 1 view .LVU903
1111:Drivers/STM32F4xx_HAL_Driver/Src/stm32f4xx_ll_usb.c ****     if ((ep->type == EP_TYPE_INTR) || (ep->type == EP_TYPE_BULK))
 2708              		.loc 1 1111 31 is_stmt 0 view .LVU904
 2709 0026 00EB4310 		add	r0, r0, r3, lsl #5
 2710              	.LVL213:
1111:Drivers/STM32F4xx_HAL_Driver/Src/stm32f4xx_ll_usb.c ****     if ((ep->type == EP_TYPE_INTR) || (ep->type == EP_TYPE_BULK))
 2711              		.loc 1 1111 31 view .LVU905
 2712 002a D0F80039 		ldr	r3, [r0, #2304]
 2713              	.LVL214:
1111:Drivers/STM32F4xx_HAL_Driver/Src/stm32f4xx_ll_usb.c ****     if ((ep->type == EP_TYPE_INTR) || (ep->type == EP_TYPE_BULK))
 2714              		.loc 1 1111 31 view .LVU906
 2715 002e 23F40013 		bic	r3, r3, #2097152
 2716 0032 C0F80039 		str	r3, [r0, #2304]
 2717              	.LVL215:
1112:Drivers/STM32F4xx_HAL_Driver/Src/stm32f4xx_ll_usb.c ****     {
 2718              		.loc 1 1112 5 is_stmt 1 view .LVU907
1112:Drivers/STM32F4xx_HAL_Driver/Src/stm32f4xx_ll_usb.c ****     {
 2719              		.loc 1 1112 12 is_stmt 0 view .LVU908
 2720 0036 0B79     		ldrb	r3, [r1, #4]	@ zero_extendqisi2
1112:Drivers/STM32F4xx_HAL_Driver/Src/stm32f4xx_ll_usb.c ****     {
 2721              		.loc 1 1112 36 view .LVU909
 2722 0038 023B     		subs	r3, r3, #2
 2723 003a DBB2     		uxtb	r3, r3
1112:Drivers/STM32F4xx_HAL_Driver/Src/stm32f4xx_ll_usb.c ****     {
 2724              		.loc 1 1112 8 view .LVU910
 2725 003c 012B     		cmp	r3, #1
 2726 003e F0D8     		bhi	.L181
1114:Drivers/STM32F4xx_HAL_Driver/Src/stm32f4xx_ll_usb.c ****     }
 2727              		.loc 1 1114 7 is_stmt 1 view .LVU911
1114:Drivers/STM32F4xx_HAL_Driver/Src/stm32f4xx_ll_usb.c ****     }
 2728              		.loc 1 1114 33 is_stmt 0 view .LVU912
 2729 0040 D0F80039 		ldr	r3, [r0, #2304]
 2730 0044 43F08053 		orr	r3, r3, #268435456
 2731 0048 C0F80039 		str	r3, [r0, #2304]
 2732 004c E9E7     		b	.L181
 2733              	.L183:
1122:Drivers/STM32F4xx_HAL_Driver/Src/stm32f4xx_ll_usb.c ****     }
 2734              		.loc 1 1122 7 is_stmt 1 view .LVU913
ARM GAS  C:\Users\ashto\AppData\Local\Temp\ccdF3pho.s 			page 89


1122:Drivers/STM32F4xx_HAL_Driver/Src/stm32f4xx_ll_usb.c ****     }
 2735              		.loc 1 1122 34 is_stmt 0 view .LVU914
 2736 004e D0F8003B 		ldr	r3, [r0, #2816]
 2737 0052 43F08053 		orr	r3, r3, #268435456
 2738 0056 C0F8003B 		str	r3, [r0, #2816]
 2739 005a E2E7     		b	.L181
 2740              		.cfi_endproc
 2741              	.LFE153:
 2743              		.section	.text.USB_StopDevice,"ax",%progbits
 2744              		.align	1
 2745              		.global	USB_StopDevice
 2746              		.syntax unified
 2747              		.thumb
 2748              		.thumb_func
 2750              	USB_StopDevice:
 2751              	.LVL216:
 2752              	.LFB154:
1134:Drivers/STM32F4xx_HAL_Driver/Src/stm32f4xx_ll_usb.c ****   HAL_StatusTypeDef ret;
 2753              		.loc 1 1134 1 is_stmt 1 view -0
 2754              		.cfi_startproc
 2755              		@ args = 0, pretend = 0, frame = 0
 2756              		@ frame_needed = 0, uses_anonymous_args = 0
1134:Drivers/STM32F4xx_HAL_Driver/Src/stm32f4xx_ll_usb.c ****   HAL_StatusTypeDef ret;
 2757              		.loc 1 1134 1 is_stmt 0 view .LVU916
 2758 0000 10B5     		push	{r4, lr}
 2759              	.LCFI37:
 2760              		.cfi_def_cfa_offset 8
 2761              		.cfi_offset 4, -8
 2762              		.cfi_offset 14, -4
 2763 0002 0446     		mov	r4, r0
1135:Drivers/STM32F4xx_HAL_Driver/Src/stm32f4xx_ll_usb.c ****   uint32_t USBx_BASE = (uint32_t)USBx;
 2764              		.loc 1 1135 3 is_stmt 1 view .LVU917
1136:Drivers/STM32F4xx_HAL_Driver/Src/stm32f4xx_ll_usb.c ****   uint32_t i;
 2765              		.loc 1 1136 3 view .LVU918
 2766              	.LVL217:
1137:Drivers/STM32F4xx_HAL_Driver/Src/stm32f4xx_ll_usb.c **** 
 2767              		.loc 1 1137 3 view .LVU919
1140:Drivers/STM32F4xx_HAL_Driver/Src/stm32f4xx_ll_usb.c ****   {
 2768              		.loc 1 1140 3 view .LVU920
1140:Drivers/STM32F4xx_HAL_Driver/Src/stm32f4xx_ll_usb.c ****   {
 2769              		.loc 1 1140 10 is_stmt 0 view .LVU921
 2770 0004 0022     		movs	r2, #0
1140:Drivers/STM32F4xx_HAL_Driver/Src/stm32f4xx_ll_usb.c ****   {
 2771              		.loc 1 1140 3 view .LVU922
 2772 0006 08E0     		b	.L185
 2773              	.LVL218:
 2774              	.L186:
1142:Drivers/STM32F4xx_HAL_Driver/Src/stm32f4xx_ll_usb.c ****     USBx_OUTEP(i)->DOEPINT = 0xFB7FU;
 2775              		.loc 1 1142 5 is_stmt 1 discriminator 3 view .LVU923
 2776 0008 04EB4213 		add	r3, r4, r2, lsl #5
1142:Drivers/STM32F4xx_HAL_Driver/Src/stm32f4xx_ll_usb.c ****     USBx_OUTEP(i)->DOEPINT = 0xFB7FU;
 2777              		.loc 1 1142 27 is_stmt 0 discriminator 3 view .LVU924
 2778 000c 4FF67F31 		movw	r1, #64383
 2779 0010 C3F80819 		str	r1, [r3, #2312]
1143:Drivers/STM32F4xx_HAL_Driver/Src/stm32f4xx_ll_usb.c ****   }
 2780              		.loc 1 1143 5 is_stmt 1 discriminator 3 view .LVU925
1143:Drivers/STM32F4xx_HAL_Driver/Src/stm32f4xx_ll_usb.c ****   }
ARM GAS  C:\Users\ashto\AppData\Local\Temp\ccdF3pho.s 			page 90


 2781              		.loc 1 1143 28 is_stmt 0 discriminator 3 view .LVU926
 2782 0014 C3F8081B 		str	r1, [r3, #2824]
1140:Drivers/STM32F4xx_HAL_Driver/Src/stm32f4xx_ll_usb.c ****   {
 2783              		.loc 1 1140 25 is_stmt 1 discriminator 3 view .LVU927
1140:Drivers/STM32F4xx_HAL_Driver/Src/stm32f4xx_ll_usb.c ****   {
 2784              		.loc 1 1140 26 is_stmt 0 discriminator 3 view .LVU928
 2785 0018 0132     		adds	r2, r2, #1
 2786              	.LVL219:
 2787              	.L185:
1140:Drivers/STM32F4xx_HAL_Driver/Src/stm32f4xx_ll_usb.c ****   {
 2788              		.loc 1 1140 16 is_stmt 1 discriminator 1 view .LVU929
1140:Drivers/STM32F4xx_HAL_Driver/Src/stm32f4xx_ll_usb.c ****   {
 2789              		.loc 1 1140 3 is_stmt 0 discriminator 1 view .LVU930
 2790 001a 0E2A     		cmp	r2, #14
 2791 001c F4D9     		bls	.L186
1147:Drivers/STM32F4xx_HAL_Driver/Src/stm32f4xx_ll_usb.c ****   USBx_DEVICE->DOEPMSK  = 0U;
 2792              		.loc 1 1147 3 is_stmt 1 view .LVU931
1147:Drivers/STM32F4xx_HAL_Driver/Src/stm32f4xx_ll_usb.c ****   USBx_DEVICE->DOEPMSK  = 0U;
 2793              		.loc 1 1147 25 is_stmt 0 view .LVU932
 2794 001e 0022     		movs	r2, #0
 2795              	.LVL220:
1147:Drivers/STM32F4xx_HAL_Driver/Src/stm32f4xx_ll_usb.c ****   USBx_DEVICE->DOEPMSK  = 0U;
 2796              		.loc 1 1147 25 view .LVU933
 2797 0020 C4F81028 		str	r2, [r4, #2064]
1148:Drivers/STM32F4xx_HAL_Driver/Src/stm32f4xx_ll_usb.c ****   USBx_DEVICE->DAINTMSK = 0U;
 2798              		.loc 1 1148 3 is_stmt 1 view .LVU934
1148:Drivers/STM32F4xx_HAL_Driver/Src/stm32f4xx_ll_usb.c ****   USBx_DEVICE->DAINTMSK = 0U;
 2799              		.loc 1 1148 25 is_stmt 0 view .LVU935
 2800 0024 C4F81428 		str	r2, [r4, #2068]
1149:Drivers/STM32F4xx_HAL_Driver/Src/stm32f4xx_ll_usb.c **** 
 2801              		.loc 1 1149 3 is_stmt 1 view .LVU936
1149:Drivers/STM32F4xx_HAL_Driver/Src/stm32f4xx_ll_usb.c **** 
 2802              		.loc 1 1149 25 is_stmt 0 view .LVU937
 2803 0028 C4F81C28 		str	r2, [r4, #2076]
1152:Drivers/STM32F4xx_HAL_Driver/Src/stm32f4xx_ll_usb.c ****   if (ret != HAL_OK)
 2804              		.loc 1 1152 3 is_stmt 1 view .LVU938
1152:Drivers/STM32F4xx_HAL_Driver/Src/stm32f4xx_ll_usb.c ****   if (ret != HAL_OK)
 2805              		.loc 1 1152 9 is_stmt 0 view .LVU939
 2806 002c 2046     		mov	r0, r4
 2807              	.LVL221:
1152:Drivers/STM32F4xx_HAL_Driver/Src/stm32f4xx_ll_usb.c ****   if (ret != HAL_OK)
 2808              		.loc 1 1152 9 view .LVU940
 2809 002e FFF7FEFF 		bl	USB_FlushRxFifo
 2810              	.LVL222:
1153:Drivers/STM32F4xx_HAL_Driver/Src/stm32f4xx_ll_usb.c ****   {
 2811              		.loc 1 1153 3 is_stmt 1 view .LVU941
1153:Drivers/STM32F4xx_HAL_Driver/Src/stm32f4xx_ll_usb.c ****   {
 2812              		.loc 1 1153 6 is_stmt 0 view .LVU942
 2813 0032 00B1     		cbz	r0, .L189
 2814              	.L187:
1165:Drivers/STM32F4xx_HAL_Driver/Src/stm32f4xx_ll_usb.c **** 
 2815              		.loc 1 1165 1 view .LVU943
 2816 0034 10BD     		pop	{r4, pc}
 2817              	.LVL223:
 2818              	.L189:
1158:Drivers/STM32F4xx_HAL_Driver/Src/stm32f4xx_ll_usb.c ****   if (ret != HAL_OK)
 2819              		.loc 1 1158 3 is_stmt 1 view .LVU944
ARM GAS  C:\Users\ashto\AppData\Local\Temp\ccdF3pho.s 			page 91


1158:Drivers/STM32F4xx_HAL_Driver/Src/stm32f4xx_ll_usb.c ****   if (ret != HAL_OK)
 2820              		.loc 1 1158 9 is_stmt 0 view .LVU945
 2821 0036 1021     		movs	r1, #16
 2822 0038 2046     		mov	r0, r4
 2823              	.LVL224:
1158:Drivers/STM32F4xx_HAL_Driver/Src/stm32f4xx_ll_usb.c ****   if (ret != HAL_OK)
 2824              		.loc 1 1158 9 view .LVU946
 2825 003a FFF7FEFF 		bl	USB_FlushTxFifo
 2826              	.LVL225:
1159:Drivers/STM32F4xx_HAL_Driver/Src/stm32f4xx_ll_usb.c ****   {
 2827              		.loc 1 1159 3 is_stmt 1 view .LVU947
 2828 003e F9E7     		b	.L187
 2829              		.cfi_endproc
 2830              	.LFE154:
 2832              		.section	.text.USB_SetDevAddress,"ax",%progbits
 2833              		.align	1
 2834              		.global	USB_SetDevAddress
 2835              		.syntax unified
 2836              		.thumb
 2837              		.thumb_func
 2839              	USB_SetDevAddress:
 2840              	.LVL226:
 2841              	.LFB155:
1175:Drivers/STM32F4xx_HAL_Driver/Src/stm32f4xx_ll_usb.c ****   uint32_t USBx_BASE = (uint32_t)USBx;
 2842              		.loc 1 1175 1 view -0
 2843              		.cfi_startproc
 2844              		@ args = 0, pretend = 0, frame = 0
 2845              		@ frame_needed = 0, uses_anonymous_args = 0
 2846              		@ link register save eliminated.
1176:Drivers/STM32F4xx_HAL_Driver/Src/stm32f4xx_ll_usb.c **** 
 2847              		.loc 1 1176 3 view .LVU949
1178:Drivers/STM32F4xx_HAL_Driver/Src/stm32f4xx_ll_usb.c ****   USBx_DEVICE->DCFG |= ((uint32_t)address << 4) & USB_OTG_DCFG_DAD;
 2848              		.loc 1 1178 3 view .LVU950
1178:Drivers/STM32F4xx_HAL_Driver/Src/stm32f4xx_ll_usb.c ****   USBx_DEVICE->DCFG |= ((uint32_t)address << 4) & USB_OTG_DCFG_DAD;
 2849              		.loc 1 1178 21 is_stmt 0 view .LVU951
 2850 0000 D0F80038 		ldr	r3, [r0, #2048]
 2851 0004 23F4FE63 		bic	r3, r3, #2032
 2852 0008 C0F80038 		str	r3, [r0, #2048]
1179:Drivers/STM32F4xx_HAL_Driver/Src/stm32f4xx_ll_usb.c **** 
 2853              		.loc 1 1179 3 is_stmt 1 view .LVU952
1179:Drivers/STM32F4xx_HAL_Driver/Src/stm32f4xx_ll_usb.c **** 
 2854              		.loc 1 1179 21 is_stmt 0 view .LVU953
 2855 000c D0F80038 		ldr	r3, [r0, #2048]
1179:Drivers/STM32F4xx_HAL_Driver/Src/stm32f4xx_ll_usb.c **** 
 2856              		.loc 1 1179 43 view .LVU954
 2857 0010 0901     		lsls	r1, r1, #4
 2858              	.LVL227:
1179:Drivers/STM32F4xx_HAL_Driver/Src/stm32f4xx_ll_usb.c **** 
 2859              		.loc 1 1179 49 view .LVU955
 2860 0012 01F4FE61 		and	r1, r1, #2032
1179:Drivers/STM32F4xx_HAL_Driver/Src/stm32f4xx_ll_usb.c **** 
 2861              		.loc 1 1179 21 view .LVU956
 2862 0016 1943     		orrs	r1, r1, r3
 2863 0018 C0F80018 		str	r1, [r0, #2048]
1181:Drivers/STM32F4xx_HAL_Driver/Src/stm32f4xx_ll_usb.c **** }
 2864              		.loc 1 1181 3 is_stmt 1 view .LVU957
1182:Drivers/STM32F4xx_HAL_Driver/Src/stm32f4xx_ll_usb.c **** 
ARM GAS  C:\Users\ashto\AppData\Local\Temp\ccdF3pho.s 			page 92


 2865              		.loc 1 1182 1 is_stmt 0 view .LVU958
 2866 001c 0020     		movs	r0, #0
 2867              	.LVL228:
1182:Drivers/STM32F4xx_HAL_Driver/Src/stm32f4xx_ll_usb.c **** 
 2868              		.loc 1 1182 1 view .LVU959
 2869 001e 7047     		bx	lr
 2870              		.cfi_endproc
 2871              	.LFE155:
 2873              		.section	.text.USB_DevConnect,"ax",%progbits
 2874              		.align	1
 2875              		.global	USB_DevConnect
 2876              		.syntax unified
 2877              		.thumb
 2878              		.thumb_func
 2880              	USB_DevConnect:
 2881              	.LVL229:
 2882              	.LFB156:
1190:Drivers/STM32F4xx_HAL_Driver/Src/stm32f4xx_ll_usb.c ****   uint32_t USBx_BASE = (uint32_t)USBx;
 2883              		.loc 1 1190 1 is_stmt 1 view -0
 2884              		.cfi_startproc
 2885              		@ args = 0, pretend = 0, frame = 0
 2886              		@ frame_needed = 0, uses_anonymous_args = 0
 2887              		@ link register save eliminated.
1191:Drivers/STM32F4xx_HAL_Driver/Src/stm32f4xx_ll_usb.c **** 
 2888              		.loc 1 1191 3 view .LVU961
1194:Drivers/STM32F4xx_HAL_Driver/Src/stm32f4xx_ll_usb.c **** 
 2889              		.loc 1 1194 3 view .LVU962
1194:Drivers/STM32F4xx_HAL_Driver/Src/stm32f4xx_ll_usb.c **** 
 2890              		.loc 1 1194 16 is_stmt 0 view .LVU963
 2891 0000 D0F8003E 		ldr	r3, [r0, #3584]
 2892 0004 23F00303 		bic	r3, r3, #3
 2893 0008 C0F8003E 		str	r3, [r0, #3584]
1196:Drivers/STM32F4xx_HAL_Driver/Src/stm32f4xx_ll_usb.c **** 
 2894              		.loc 1 1196 3 is_stmt 1 view .LVU964
1196:Drivers/STM32F4xx_HAL_Driver/Src/stm32f4xx_ll_usb.c **** 
 2895              		.loc 1 1196 21 is_stmt 0 view .LVU965
 2896 000c D0F80438 		ldr	r3, [r0, #2052]
 2897 0010 23F00203 		bic	r3, r3, #2
 2898 0014 C0F80438 		str	r3, [r0, #2052]
1198:Drivers/STM32F4xx_HAL_Driver/Src/stm32f4xx_ll_usb.c **** }
 2899              		.loc 1 1198 3 is_stmt 1 view .LVU966
1199:Drivers/STM32F4xx_HAL_Driver/Src/stm32f4xx_ll_usb.c **** 
 2900              		.loc 1 1199 1 is_stmt 0 view .LVU967
 2901 0018 0020     		movs	r0, #0
 2902              	.LVL230:
1199:Drivers/STM32F4xx_HAL_Driver/Src/stm32f4xx_ll_usb.c **** 
 2903              		.loc 1 1199 1 view .LVU968
 2904 001a 7047     		bx	lr
 2905              		.cfi_endproc
 2906              	.LFE156:
 2908              		.section	.text.USB_DevDisconnect,"ax",%progbits
 2909              		.align	1
 2910              		.global	USB_DevDisconnect
 2911              		.syntax unified
 2912              		.thumb
 2913              		.thumb_func
 2915              	USB_DevDisconnect:
ARM GAS  C:\Users\ashto\AppData\Local\Temp\ccdF3pho.s 			page 93


 2916              	.LVL231:
 2917              	.LFB157:
1207:Drivers/STM32F4xx_HAL_Driver/Src/stm32f4xx_ll_usb.c ****   uint32_t USBx_BASE = (uint32_t)USBx;
 2918              		.loc 1 1207 1 is_stmt 1 view -0
 2919              		.cfi_startproc
 2920              		@ args = 0, pretend = 0, frame = 0
 2921              		@ frame_needed = 0, uses_anonymous_args = 0
 2922              		@ link register save eliminated.
1208:Drivers/STM32F4xx_HAL_Driver/Src/stm32f4xx_ll_usb.c **** 
 2923              		.loc 1 1208 3 view .LVU970
1211:Drivers/STM32F4xx_HAL_Driver/Src/stm32f4xx_ll_usb.c **** 
 2924              		.loc 1 1211 3 view .LVU971
1211:Drivers/STM32F4xx_HAL_Driver/Src/stm32f4xx_ll_usb.c **** 
 2925              		.loc 1 1211 16 is_stmt 0 view .LVU972
 2926 0000 D0F8003E 		ldr	r3, [r0, #3584]
 2927 0004 23F00303 		bic	r3, r3, #3
 2928 0008 C0F8003E 		str	r3, [r0, #3584]
1213:Drivers/STM32F4xx_HAL_Driver/Src/stm32f4xx_ll_usb.c **** 
 2929              		.loc 1 1213 3 is_stmt 1 view .LVU973
1213:Drivers/STM32F4xx_HAL_Driver/Src/stm32f4xx_ll_usb.c **** 
 2930              		.loc 1 1213 21 is_stmt 0 view .LVU974
 2931 000c D0F80438 		ldr	r3, [r0, #2052]
 2932 0010 43F00203 		orr	r3, r3, #2
 2933 0014 C0F80438 		str	r3, [r0, #2052]
1215:Drivers/STM32F4xx_HAL_Driver/Src/stm32f4xx_ll_usb.c **** }
 2934              		.loc 1 1215 3 is_stmt 1 view .LVU975
1216:Drivers/STM32F4xx_HAL_Driver/Src/stm32f4xx_ll_usb.c **** 
 2935              		.loc 1 1216 1 is_stmt 0 view .LVU976
 2936 0018 0020     		movs	r0, #0
 2937              	.LVL232:
1216:Drivers/STM32F4xx_HAL_Driver/Src/stm32f4xx_ll_usb.c **** 
 2938              		.loc 1 1216 1 view .LVU977
 2939 001a 7047     		bx	lr
 2940              		.cfi_endproc
 2941              	.LFE157:
 2943              		.section	.text.USB_ReadInterrupts,"ax",%progbits
 2944              		.align	1
 2945              		.global	USB_ReadInterrupts
 2946              		.syntax unified
 2947              		.thumb
 2948              		.thumb_func
 2950              	USB_ReadInterrupts:
 2951              	.LVL233:
 2952              	.LFB158:
1224:Drivers/STM32F4xx_HAL_Driver/Src/stm32f4xx_ll_usb.c ****   uint32_t tmpreg;
 2953              		.loc 1 1224 1 is_stmt 1 view -0
 2954              		.cfi_startproc
 2955              		@ args = 0, pretend = 0, frame = 0
 2956              		@ frame_needed = 0, uses_anonymous_args = 0
 2957              		@ link register save eliminated.
1225:Drivers/STM32F4xx_HAL_Driver/Src/stm32f4xx_ll_usb.c **** 
 2958              		.loc 1 1225 3 view .LVU979
1227:Drivers/STM32F4xx_HAL_Driver/Src/stm32f4xx_ll_usb.c ****   tmpreg &= USBx->GINTMSK;
 2959              		.loc 1 1227 3 view .LVU980
1227:Drivers/STM32F4xx_HAL_Driver/Src/stm32f4xx_ll_usb.c ****   tmpreg &= USBx->GINTMSK;
 2960              		.loc 1 1227 10 is_stmt 0 view .LVU981
 2961 0000 4269     		ldr	r2, [r0, #20]
ARM GAS  C:\Users\ashto\AppData\Local\Temp\ccdF3pho.s 			page 94


 2962              	.LVL234:
1228:Drivers/STM32F4xx_HAL_Driver/Src/stm32f4xx_ll_usb.c **** 
 2963              		.loc 1 1228 3 is_stmt 1 view .LVU982
1228:Drivers/STM32F4xx_HAL_Driver/Src/stm32f4xx_ll_usb.c **** 
 2964              		.loc 1 1228 17 is_stmt 0 view .LVU983
 2965 0002 8069     		ldr	r0, [r0, #24]
 2966              	.LVL235:
1230:Drivers/STM32F4xx_HAL_Driver/Src/stm32f4xx_ll_usb.c **** }
 2967              		.loc 1 1230 3 is_stmt 1 view .LVU984
1231:Drivers/STM32F4xx_HAL_Driver/Src/stm32f4xx_ll_usb.c **** 
 2968              		.loc 1 1231 1 is_stmt 0 view .LVU985
 2969 0004 1040     		ands	r0, r0, r2
 2970              	.LVL236:
1231:Drivers/STM32F4xx_HAL_Driver/Src/stm32f4xx_ll_usb.c **** 
 2971              		.loc 1 1231 1 view .LVU986
 2972 0006 7047     		bx	lr
 2973              		.cfi_endproc
 2974              	.LFE158:
 2976              		.section	.text.USB_ReadChInterrupts,"ax",%progbits
 2977              		.align	1
 2978              		.global	USB_ReadChInterrupts
 2979              		.syntax unified
 2980              		.thumb
 2981              		.thumb_func
 2983              	USB_ReadChInterrupts:
 2984              	.LVL237:
 2985              	.LFB159:
1240:Drivers/STM32F4xx_HAL_Driver/Src/stm32f4xx_ll_usb.c ****   uint32_t USBx_BASE = (uint32_t)USBx;
 2986              		.loc 1 1240 1 is_stmt 1 view -0
 2987              		.cfi_startproc
 2988              		@ args = 0, pretend = 0, frame = 0
 2989              		@ frame_needed = 0, uses_anonymous_args = 0
 2990              		@ link register save eliminated.
1241:Drivers/STM32F4xx_HAL_Driver/Src/stm32f4xx_ll_usb.c ****   uint32_t tmpreg;
 2991              		.loc 1 1241 3 view .LVU988
1242:Drivers/STM32F4xx_HAL_Driver/Src/stm32f4xx_ll_usb.c **** 
 2992              		.loc 1 1242 3 view .LVU989
1244:Drivers/STM32F4xx_HAL_Driver/Src/stm32f4xx_ll_usb.c ****   tmpreg &= USBx_HC(chnum)->HCINTMSK;
 2993              		.loc 1 1244 3 view .LVU990
1244:Drivers/STM32F4xx_HAL_Driver/Src/stm32f4xx_ll_usb.c ****   tmpreg &= USBx_HC(chnum)->HCINTMSK;
 2994              		.loc 1 1244 12 is_stmt 0 view .LVU991
 2995 0000 00EB4111 		add	r1, r0, r1, lsl #5
 2996              	.LVL238:
1244:Drivers/STM32F4xx_HAL_Driver/Src/stm32f4xx_ll_usb.c ****   tmpreg &= USBx_HC(chnum)->HCINTMSK;
 2997              		.loc 1 1244 10 view .LVU992
 2998 0004 D1F80805 		ldr	r0, [r1, #1288]
 2999              	.LVL239:
1245:Drivers/STM32F4xx_HAL_Driver/Src/stm32f4xx_ll_usb.c **** 
 3000              		.loc 1 1245 3 is_stmt 1 view .LVU993
1245:Drivers/STM32F4xx_HAL_Driver/Src/stm32f4xx_ll_usb.c **** 
 3001              		.loc 1 1245 27 is_stmt 0 view .LVU994
 3002 0008 D1F80C35 		ldr	r3, [r1, #1292]
 3003              	.LVL240:
1247:Drivers/STM32F4xx_HAL_Driver/Src/stm32f4xx_ll_usb.c **** }
 3004              		.loc 1 1247 3 is_stmt 1 view .LVU995
1248:Drivers/STM32F4xx_HAL_Driver/Src/stm32f4xx_ll_usb.c **** 
 3005              		.loc 1 1248 1 is_stmt 0 view .LVU996
ARM GAS  C:\Users\ashto\AppData\Local\Temp\ccdF3pho.s 			page 95


 3006 000c 1840     		ands	r0, r0, r3
 3007              	.LVL241:
1248:Drivers/STM32F4xx_HAL_Driver/Src/stm32f4xx_ll_usb.c **** 
 3008              		.loc 1 1248 1 view .LVU997
 3009 000e 7047     		bx	lr
 3010              		.cfi_endproc
 3011              	.LFE159:
 3013              		.section	.text.USB_ReadDevAllOutEpInterrupt,"ax",%progbits
 3014              		.align	1
 3015              		.global	USB_ReadDevAllOutEpInterrupt
 3016              		.syntax unified
 3017              		.thumb
 3018              		.thumb_func
 3020              	USB_ReadDevAllOutEpInterrupt:
 3021              	.LVL242:
 3022              	.LFB160:
1256:Drivers/STM32F4xx_HAL_Driver/Src/stm32f4xx_ll_usb.c ****   uint32_t USBx_BASE = (uint32_t)USBx;
 3023              		.loc 1 1256 1 is_stmt 1 view -0
 3024              		.cfi_startproc
 3025              		@ args = 0, pretend = 0, frame = 0
 3026              		@ frame_needed = 0, uses_anonymous_args = 0
 3027              		@ link register save eliminated.
1257:Drivers/STM32F4xx_HAL_Driver/Src/stm32f4xx_ll_usb.c ****   uint32_t tmpreg;
 3028              		.loc 1 1257 3 view .LVU999
1258:Drivers/STM32F4xx_HAL_Driver/Src/stm32f4xx_ll_usb.c **** 
 3029              		.loc 1 1258 3 view .LVU1000
1260:Drivers/STM32F4xx_HAL_Driver/Src/stm32f4xx_ll_usb.c ****   tmpreg &= USBx_DEVICE->DAINTMSK;
 3030              		.loc 1 1260 3 view .LVU1001
1260:Drivers/STM32F4xx_HAL_Driver/Src/stm32f4xx_ll_usb.c ****   tmpreg &= USBx_DEVICE->DAINTMSK;
 3031              		.loc 1 1260 11 is_stmt 0 view .LVU1002
 3032 0000 D0F81838 		ldr	r3, [r0, #2072]
1260:Drivers/STM32F4xx_HAL_Driver/Src/stm32f4xx_ll_usb.c ****   tmpreg &= USBx_DEVICE->DAINTMSK;
 3033              		.loc 1 1260 13 view .LVU1003
 3034 0004 00F50060 		add	r0, r0, #2048
 3035              	.LVL243:
1261:Drivers/STM32F4xx_HAL_Driver/Src/stm32f4xx_ll_usb.c **** 
 3036              		.loc 1 1261 3 is_stmt 1 view .LVU1004
1261:Drivers/STM32F4xx_HAL_Driver/Src/stm32f4xx_ll_usb.c **** 
 3037              		.loc 1 1261 24 is_stmt 0 view .LVU1005
 3038 0008 C069     		ldr	r0, [r0, #28]
 3039              	.LVL244:
1261:Drivers/STM32F4xx_HAL_Driver/Src/stm32f4xx_ll_usb.c **** 
 3040              		.loc 1 1261 10 view .LVU1006
 3041 000a 1840     		ands	r0, r0, r3
 3042              	.LVL245:
1263:Drivers/STM32F4xx_HAL_Driver/Src/stm32f4xx_ll_usb.c **** }
 3043              		.loc 1 1263 3 is_stmt 1 view .LVU1007
1264:Drivers/STM32F4xx_HAL_Driver/Src/stm32f4xx_ll_usb.c **** 
 3044              		.loc 1 1264 1 is_stmt 0 view .LVU1008
 3045 000c 000C     		lsrs	r0, r0, #16
 3046              	.LVL246:
1264:Drivers/STM32F4xx_HAL_Driver/Src/stm32f4xx_ll_usb.c **** 
 3047              		.loc 1 1264 1 view .LVU1009
 3048 000e 7047     		bx	lr
 3049              		.cfi_endproc
 3050              	.LFE160:
 3052              		.section	.text.USB_ReadDevAllInEpInterrupt,"ax",%progbits
ARM GAS  C:\Users\ashto\AppData\Local\Temp\ccdF3pho.s 			page 96


 3053              		.align	1
 3054              		.global	USB_ReadDevAllInEpInterrupt
 3055              		.syntax unified
 3056              		.thumb
 3057              		.thumb_func
 3059              	USB_ReadDevAllInEpInterrupt:
 3060              	.LVL247:
 3061              	.LFB161:
1272:Drivers/STM32F4xx_HAL_Driver/Src/stm32f4xx_ll_usb.c ****   uint32_t USBx_BASE = (uint32_t)USBx;
 3062              		.loc 1 1272 1 is_stmt 1 view -0
 3063              		.cfi_startproc
 3064              		@ args = 0, pretend = 0, frame = 0
 3065              		@ frame_needed = 0, uses_anonymous_args = 0
 3066              		@ link register save eliminated.
1273:Drivers/STM32F4xx_HAL_Driver/Src/stm32f4xx_ll_usb.c ****   uint32_t tmpreg;
 3067              		.loc 1 1273 3 view .LVU1011
1274:Drivers/STM32F4xx_HAL_Driver/Src/stm32f4xx_ll_usb.c **** 
 3068              		.loc 1 1274 3 view .LVU1012
1276:Drivers/STM32F4xx_HAL_Driver/Src/stm32f4xx_ll_usb.c ****   tmpreg &= USBx_DEVICE->DAINTMSK;
 3069              		.loc 1 1276 3 view .LVU1013
1276:Drivers/STM32F4xx_HAL_Driver/Src/stm32f4xx_ll_usb.c ****   tmpreg &= USBx_DEVICE->DAINTMSK;
 3070              		.loc 1 1276 11 is_stmt 0 view .LVU1014
 3071 0000 D0F81838 		ldr	r3, [r0, #2072]
1276:Drivers/STM32F4xx_HAL_Driver/Src/stm32f4xx_ll_usb.c ****   tmpreg &= USBx_DEVICE->DAINTMSK;
 3072              		.loc 1 1276 13 view .LVU1015
 3073 0004 00F50060 		add	r0, r0, #2048
 3074              	.LVL248:
1277:Drivers/STM32F4xx_HAL_Driver/Src/stm32f4xx_ll_usb.c **** 
 3075              		.loc 1 1277 3 is_stmt 1 view .LVU1016
1277:Drivers/STM32F4xx_HAL_Driver/Src/stm32f4xx_ll_usb.c **** 
 3076              		.loc 1 1277 24 is_stmt 0 view .LVU1017
 3077 0008 C069     		ldr	r0, [r0, #28]
 3078              	.LVL249:
1277:Drivers/STM32F4xx_HAL_Driver/Src/stm32f4xx_ll_usb.c **** 
 3079              		.loc 1 1277 10 view .LVU1018
 3080 000a 1840     		ands	r0, r0, r3
 3081              	.LVL250:
1279:Drivers/STM32F4xx_HAL_Driver/Src/stm32f4xx_ll_usb.c **** }
 3082              		.loc 1 1279 3 is_stmt 1 view .LVU1019
1280:Drivers/STM32F4xx_HAL_Driver/Src/stm32f4xx_ll_usb.c **** 
 3083              		.loc 1 1280 1 is_stmt 0 view .LVU1020
 3084 000c 80B2     		uxth	r0, r0
 3085              	.LVL251:
1280:Drivers/STM32F4xx_HAL_Driver/Src/stm32f4xx_ll_usb.c **** 
 3086              		.loc 1 1280 1 view .LVU1021
 3087 000e 7047     		bx	lr
 3088              		.cfi_endproc
 3089              	.LFE161:
 3091              		.section	.text.USB_ReadDevOutEPInterrupt,"ax",%progbits
 3092              		.align	1
 3093              		.global	USB_ReadDevOutEPInterrupt
 3094              		.syntax unified
 3095              		.thumb
 3096              		.thumb_func
 3098              	USB_ReadDevOutEPInterrupt:
 3099              	.LVL252:
 3100              	.LFB162:
ARM GAS  C:\Users\ashto\AppData\Local\Temp\ccdF3pho.s 			page 97


1290:Drivers/STM32F4xx_HAL_Driver/Src/stm32f4xx_ll_usb.c ****   uint32_t USBx_BASE = (uint32_t)USBx;
 3101              		.loc 1 1290 1 is_stmt 1 view -0
 3102              		.cfi_startproc
 3103              		@ args = 0, pretend = 0, frame = 0
 3104              		@ frame_needed = 0, uses_anonymous_args = 0
 3105              		@ link register save eliminated.
1291:Drivers/STM32F4xx_HAL_Driver/Src/stm32f4xx_ll_usb.c ****   uint32_t tmpreg;
 3106              		.loc 1 1291 3 view .LVU1023
1292:Drivers/STM32F4xx_HAL_Driver/Src/stm32f4xx_ll_usb.c **** 
 3107              		.loc 1 1292 3 view .LVU1024
1294:Drivers/STM32F4xx_HAL_Driver/Src/stm32f4xx_ll_usb.c ****   tmpreg &= USBx_DEVICE->DOEPMSK;
 3108              		.loc 1 1294 3 view .LVU1025
1294:Drivers/STM32F4xx_HAL_Driver/Src/stm32f4xx_ll_usb.c ****   tmpreg &= USBx_DEVICE->DOEPMSK;
 3109              		.loc 1 1294 13 is_stmt 0 view .LVU1026
 3110 0000 00EB4111 		add	r1, r0, r1, lsl #5
 3111              	.LVL253:
1294:Drivers/STM32F4xx_HAL_Driver/Src/stm32f4xx_ll_usb.c ****   tmpreg &= USBx_DEVICE->DOEPMSK;
 3112              		.loc 1 1294 11 view .LVU1027
 3113 0004 D1F8082B 		ldr	r2, [r1, #2824]
 3114              	.LVL254:
1295:Drivers/STM32F4xx_HAL_Driver/Src/stm32f4xx_ll_usb.c **** 
 3115              		.loc 1 1295 3 is_stmt 1 view .LVU1028
1295:Drivers/STM32F4xx_HAL_Driver/Src/stm32f4xx_ll_usb.c **** 
 3116              		.loc 1 1295 13 is_stmt 0 view .LVU1029
 3117 0008 00F50060 		add	r0, r0, #2048
 3118              	.LVL255:
1295:Drivers/STM32F4xx_HAL_Driver/Src/stm32f4xx_ll_usb.c **** 
 3119              		.loc 1 1295 24 view .LVU1030
 3120 000c 4069     		ldr	r0, [r0, #20]
 3121              	.LVL256:
1297:Drivers/STM32F4xx_HAL_Driver/Src/stm32f4xx_ll_usb.c **** }
 3122              		.loc 1 1297 3 is_stmt 1 view .LVU1031
1298:Drivers/STM32F4xx_HAL_Driver/Src/stm32f4xx_ll_usb.c **** 
 3123              		.loc 1 1298 1 is_stmt 0 view .LVU1032
 3124 000e 1040     		ands	r0, r0, r2
 3125              	.LVL257:
1298:Drivers/STM32F4xx_HAL_Driver/Src/stm32f4xx_ll_usb.c **** 
 3126              		.loc 1 1298 1 view .LVU1033
 3127 0010 7047     		bx	lr
 3128              		.cfi_endproc
 3129              	.LFE162:
 3131              		.section	.text.USB_ReadDevInEPInterrupt,"ax",%progbits
 3132              		.align	1
 3133              		.global	USB_ReadDevInEPInterrupt
 3134              		.syntax unified
 3135              		.thumb
 3136              		.thumb_func
 3138              	USB_ReadDevInEPInterrupt:
 3139              	.LVL258:
 3140              	.LFB163:
1308:Drivers/STM32F4xx_HAL_Driver/Src/stm32f4xx_ll_usb.c ****   uint32_t USBx_BASE = (uint32_t)USBx;
 3141              		.loc 1 1308 1 is_stmt 1 view -0
 3142              		.cfi_startproc
 3143              		@ args = 0, pretend = 0, frame = 0
 3144              		@ frame_needed = 0, uses_anonymous_args = 0
 3145              		@ link register save eliminated.
1308:Drivers/STM32F4xx_HAL_Driver/Src/stm32f4xx_ll_usb.c ****   uint32_t USBx_BASE = (uint32_t)USBx;
ARM GAS  C:\Users\ashto\AppData\Local\Temp\ccdF3pho.s 			page 98


 3146              		.loc 1 1308 1 is_stmt 0 view .LVU1035
 3147 0000 10B4     		push	{r4}
 3148              	.LCFI38:
 3149              		.cfi_def_cfa_offset 4
 3150              		.cfi_offset 4, -4
1309:Drivers/STM32F4xx_HAL_Driver/Src/stm32f4xx_ll_usb.c ****   uint32_t tmpreg;
 3151              		.loc 1 1309 3 is_stmt 1 view .LVU1036
 3152              	.LVL259:
1310:Drivers/STM32F4xx_HAL_Driver/Src/stm32f4xx_ll_usb.c ****   uint32_t msk;
 3153              		.loc 1 1310 3 view .LVU1037
1311:Drivers/STM32F4xx_HAL_Driver/Src/stm32f4xx_ll_usb.c ****   uint32_t emp;
 3154              		.loc 1 1311 3 view .LVU1038
1312:Drivers/STM32F4xx_HAL_Driver/Src/stm32f4xx_ll_usb.c **** 
 3155              		.loc 1 1312 3 view .LVU1039
1314:Drivers/STM32F4xx_HAL_Driver/Src/stm32f4xx_ll_usb.c ****   emp = USBx_DEVICE->DIEPEMPMSK;
 3156              		.loc 1 1314 3 view .LVU1040
1314:Drivers/STM32F4xx_HAL_Driver/Src/stm32f4xx_ll_usb.c ****   emp = USBx_DEVICE->DIEPEMPMSK;
 3157              		.loc 1 1314 7 is_stmt 0 view .LVU1041
 3158 0002 D0F81048 		ldr	r4, [r0, #2064]
 3159              	.LVL260:
1315:Drivers/STM32F4xx_HAL_Driver/Src/stm32f4xx_ll_usb.c ****   msk |= ((emp >> (epnum & EP_ADDR_MSK)) & 0x1U) << 7;
 3160              		.loc 1 1315 3 is_stmt 1 view .LVU1042
1315:Drivers/STM32F4xx_HAL_Driver/Src/stm32f4xx_ll_usb.c ****   msk |= ((emp >> (epnum & EP_ADDR_MSK)) & 0x1U) << 7;
 3161              		.loc 1 1315 7 is_stmt 0 view .LVU1043
 3162 0006 D0F83438 		ldr	r3, [r0, #2100]
 3163              	.LVL261:
1316:Drivers/STM32F4xx_HAL_Driver/Src/stm32f4xx_ll_usb.c ****   tmpreg = USBx_INEP((uint32_t)epnum)->DIEPINT & msk;
 3164              		.loc 1 1316 3 is_stmt 1 view .LVU1044
1316:Drivers/STM32F4xx_HAL_Driver/Src/stm32f4xx_ll_usb.c ****   tmpreg = USBx_INEP((uint32_t)epnum)->DIEPINT & msk;
 3165              		.loc 1 1316 26 is_stmt 0 view .LVU1045
 3166 000a 01F00F02 		and	r2, r1, #15
1316:Drivers/STM32F4xx_HAL_Driver/Src/stm32f4xx_ll_usb.c ****   tmpreg = USBx_INEP((uint32_t)epnum)->DIEPINT & msk;
 3167              		.loc 1 1316 16 view .LVU1046
 3168 000e D340     		lsrs	r3, r3, r2
 3169              	.LVL262:
1316:Drivers/STM32F4xx_HAL_Driver/Src/stm32f4xx_ll_usb.c ****   tmpreg = USBx_INEP((uint32_t)epnum)->DIEPINT & msk;
 3170              		.loc 1 1316 50 view .LVU1047
 3171 0010 DB01     		lsls	r3, r3, #7
 3172 0012 DBB2     		uxtb	r3, r3
1316:Drivers/STM32F4xx_HAL_Driver/Src/stm32f4xx_ll_usb.c ****   tmpreg = USBx_INEP((uint32_t)epnum)->DIEPINT & msk;
 3173              		.loc 1 1316 7 view .LVU1048
 3174 0014 2343     		orrs	r3, r3, r4
 3175              	.LVL263:
1317:Drivers/STM32F4xx_HAL_Driver/Src/stm32f4xx_ll_usb.c **** 
 3176              		.loc 1 1317 3 is_stmt 1 view .LVU1049
1317:Drivers/STM32F4xx_HAL_Driver/Src/stm32f4xx_ll_usb.c **** 
 3177              		.loc 1 1317 12 is_stmt 0 view .LVU1050
 3178 0016 00EB4110 		add	r0, r0, r1, lsl #5
 3179              	.LVL264:
1317:Drivers/STM32F4xx_HAL_Driver/Src/stm32f4xx_ll_usb.c **** 
 3180              		.loc 1 1317 12 view .LVU1051
 3181 001a 00F51060 		add	r0, r0, #2304
1317:Drivers/STM32F4xx_HAL_Driver/Src/stm32f4xx_ll_usb.c **** 
 3182              		.loc 1 1317 38 view .LVU1052
 3183 001e 8068     		ldr	r0, [r0, #8]
 3184              	.LVL265:
1319:Drivers/STM32F4xx_HAL_Driver/Src/stm32f4xx_ll_usb.c **** }
ARM GAS  C:\Users\ashto\AppData\Local\Temp\ccdF3pho.s 			page 99


 3185              		.loc 1 1319 3 is_stmt 1 view .LVU1053
1320:Drivers/STM32F4xx_HAL_Driver/Src/stm32f4xx_ll_usb.c **** 
 3186              		.loc 1 1320 1 is_stmt 0 view .LVU1054
 3187 0020 1840     		ands	r0, r0, r3
 3188              	.LVL266:
1320:Drivers/STM32F4xx_HAL_Driver/Src/stm32f4xx_ll_usb.c **** 
 3189              		.loc 1 1320 1 view .LVU1055
 3190 0022 5DF8044B 		ldr	r4, [sp], #4
 3191              	.LCFI39:
 3192              		.cfi_restore 4
 3193              		.cfi_def_cfa_offset 0
 3194 0026 7047     		bx	lr
 3195              		.cfi_endproc
 3196              	.LFE163:
 3198              		.section	.text.USB_ClearInterrupts,"ax",%progbits
 3199              		.align	1
 3200              		.global	USB_ClearInterrupts
 3201              		.syntax unified
 3202              		.thumb
 3203              		.thumb_func
 3205              	USB_ClearInterrupts:
 3206              	.LVL267:
 3207              	.LFB164:
1329:Drivers/STM32F4xx_HAL_Driver/Src/stm32f4xx_ll_usb.c ****   USBx->GINTSTS &= interrupt;
 3208              		.loc 1 1329 1 is_stmt 1 view -0
 3209              		.cfi_startproc
 3210              		@ args = 0, pretend = 0, frame = 0
 3211              		@ frame_needed = 0, uses_anonymous_args = 0
 3212              		@ link register save eliminated.
1330:Drivers/STM32F4xx_HAL_Driver/Src/stm32f4xx_ll_usb.c **** }
 3213              		.loc 1 1330 3 view .LVU1057
1330:Drivers/STM32F4xx_HAL_Driver/Src/stm32f4xx_ll_usb.c **** }
 3214              		.loc 1 1330 17 is_stmt 0 view .LVU1058
 3215 0000 4369     		ldr	r3, [r0, #20]
 3216 0002 0B40     		ands	r3, r3, r1
 3217 0004 4361     		str	r3, [r0, #20]
1331:Drivers/STM32F4xx_HAL_Driver/Src/stm32f4xx_ll_usb.c **** 
 3218              		.loc 1 1331 1 view .LVU1059
 3219 0006 7047     		bx	lr
 3220              		.cfi_endproc
 3221              	.LFE164:
 3223              		.section	.text.USB_GetMode,"ax",%progbits
 3224              		.align	1
 3225              		.global	USB_GetMode
 3226              		.syntax unified
 3227              		.thumb
 3228              		.thumb_func
 3230              	USB_GetMode:
 3231              	.LVL268:
 3232              	.LFB165:
1342:Drivers/STM32F4xx_HAL_Driver/Src/stm32f4xx_ll_usb.c ****   return ((USBx->GINTSTS) & 0x1U);
 3233              		.loc 1 1342 1 is_stmt 1 view -0
 3234              		.cfi_startproc
 3235              		@ args = 0, pretend = 0, frame = 0
 3236              		@ frame_needed = 0, uses_anonymous_args = 0
 3237              		@ link register save eliminated.
1343:Drivers/STM32F4xx_HAL_Driver/Src/stm32f4xx_ll_usb.c **** }
ARM GAS  C:\Users\ashto\AppData\Local\Temp\ccdF3pho.s 			page 100


 3238              		.loc 1 1343 3 view .LVU1061
1343:Drivers/STM32F4xx_HAL_Driver/Src/stm32f4xx_ll_usb.c **** }
 3239              		.loc 1 1343 16 is_stmt 0 view .LVU1062
 3240 0000 4069     		ldr	r0, [r0, #20]
 3241              	.LVL269:
1344:Drivers/STM32F4xx_HAL_Driver/Src/stm32f4xx_ll_usb.c **** 
 3242              		.loc 1 1344 1 view .LVU1063
 3243 0002 00F00100 		and	r0, r0, #1
 3244 0006 7047     		bx	lr
 3245              		.cfi_endproc
 3246              	.LFE165:
 3248              		.section	.text.USB_SetCurrentMode,"ax",%progbits
 3249              		.align	1
 3250              		.global	USB_SetCurrentMode
 3251              		.syntax unified
 3252              		.thumb
 3253              		.thumb_func
 3255              	USB_SetCurrentMode:
 3256              	.LVL270:
 3257              	.LFB138:
 250:Drivers/STM32F4xx_HAL_Driver/Src/stm32f4xx_ll_usb.c ****   uint32_t ms = 0U;
 3258              		.loc 1 250 1 is_stmt 1 view -0
 3259              		.cfi_startproc
 3260              		@ args = 0, pretend = 0, frame = 0
 3261              		@ frame_needed = 0, uses_anonymous_args = 0
 250:Drivers/STM32F4xx_HAL_Driver/Src/stm32f4xx_ll_usb.c ****   uint32_t ms = 0U;
 3262              		.loc 1 250 1 is_stmt 0 view .LVU1065
 3263 0000 38B5     		push	{r3, r4, r5, lr}
 3264              	.LCFI40:
 3265              		.cfi_def_cfa_offset 16
 3266              		.cfi_offset 3, -16
 3267              		.cfi_offset 4, -12
 3268              		.cfi_offset 5, -8
 3269              		.cfi_offset 14, -4
 3270 0002 0546     		mov	r5, r0
 251:Drivers/STM32F4xx_HAL_Driver/Src/stm32f4xx_ll_usb.c **** 
 3271              		.loc 1 251 3 is_stmt 1 view .LVU1066
 3272              	.LVL271:
 253:Drivers/STM32F4xx_HAL_Driver/Src/stm32f4xx_ll_usb.c **** 
 3273              		.loc 1 253 3 view .LVU1067
 253:Drivers/STM32F4xx_HAL_Driver/Src/stm32f4xx_ll_usb.c **** 
 3274              		.loc 1 253 17 is_stmt 0 view .LVU1068
 3275 0004 C368     		ldr	r3, [r0, #12]
 3276 0006 23F0C043 		bic	r3, r3, #1610612736
 3277 000a C360     		str	r3, [r0, #12]
 255:Drivers/STM32F4xx_HAL_Driver/Src/stm32f4xx_ll_usb.c ****   {
 3278              		.loc 1 255 3 is_stmt 1 view .LVU1069
 255:Drivers/STM32F4xx_HAL_Driver/Src/stm32f4xx_ll_usb.c ****   {
 3279              		.loc 1 255 6 is_stmt 0 view .LVU1070
 3280 000c 0129     		cmp	r1, #1
 3281 000e 13D0     		beq	.L211
 265:Drivers/STM32F4xx_HAL_Driver/Src/stm32f4xx_ll_usb.c ****   {
 3282              		.loc 1 265 8 is_stmt 1 view .LVU1071
 265:Drivers/STM32F4xx_HAL_Driver/Src/stm32f4xx_ll_usb.c ****   {
 3283              		.loc 1 265 11 is_stmt 0 view .LVU1072
 3284 0010 19BB     		cbnz	r1, .L208
 267:Drivers/STM32F4xx_HAL_Driver/Src/stm32f4xx_ll_usb.c **** 
ARM GAS  C:\Users\ashto\AppData\Local\Temp\ccdF3pho.s 			page 101


 3285              		.loc 1 267 5 is_stmt 1 view .LVU1073
 267:Drivers/STM32F4xx_HAL_Driver/Src/stm32f4xx_ll_usb.c **** 
 3286              		.loc 1 267 19 is_stmt 0 view .LVU1074
 3287 0012 C368     		ldr	r3, [r0, #12]
 3288 0014 43F08043 		orr	r3, r3, #1073741824
 3289 0018 C360     		str	r3, [r0, #12]
 251:Drivers/STM32F4xx_HAL_Driver/Src/stm32f4xx_ll_usb.c **** 
 3290              		.loc 1 251 12 view .LVU1075
 3291 001a 0024     		movs	r4, #0
 3292              	.LVL272:
 3293              	.L207:
 269:Drivers/STM32F4xx_HAL_Driver/Src/stm32f4xx_ll_usb.c ****     {
 3294              		.loc 1 269 5 is_stmt 1 discriminator 2 view .LVU1076
 271:Drivers/STM32F4xx_HAL_Driver/Src/stm32f4xx_ll_usb.c ****       ms += 10U;
 3295              		.loc 1 271 7 discriminator 2 view .LVU1077
 3296 001c 0A20     		movs	r0, #10
 3297 001e FFF7FEFF 		bl	HAL_Delay
 3298              	.LVL273:
 272:Drivers/STM32F4xx_HAL_Driver/Src/stm32f4xx_ll_usb.c ****     } while ((USB_GetMode(USBx) != (uint32_t)USB_DEVICE_MODE) && (ms < HAL_USB_CURRENT_MODE_MAX_DEL
 3299              		.loc 1 272 7 discriminator 2 view .LVU1078
 272:Drivers/STM32F4xx_HAL_Driver/Src/stm32f4xx_ll_usb.c ****     } while ((USB_GetMode(USBx) != (uint32_t)USB_DEVICE_MODE) && (ms < HAL_USB_CURRENT_MODE_MAX_DEL
 3300              		.loc 1 272 10 is_stmt 0 discriminator 2 view .LVU1079
 3301 0022 0A34     		adds	r4, r4, #10
 3302              	.LVL274:
 273:Drivers/STM32F4xx_HAL_Driver/Src/stm32f4xx_ll_usb.c ****   }
 3303              		.loc 1 273 13 is_stmt 1 discriminator 2 view .LVU1080
 273:Drivers/STM32F4xx_HAL_Driver/Src/stm32f4xx_ll_usb.c ****   }
 3304              		.loc 1 273 15 is_stmt 0 discriminator 2 view .LVU1081
 3305 0024 2846     		mov	r0, r5
 3306 0026 FFF7FEFF 		bl	USB_GetMode
 3307              	.LVL275:
 273:Drivers/STM32F4xx_HAL_Driver/Src/stm32f4xx_ll_usb.c ****   }
 3308              		.loc 1 273 5 discriminator 2 view .LVU1082
 3309 002a 08B1     		cbz	r0, .L204
 273:Drivers/STM32F4xx_HAL_Driver/Src/stm32f4xx_ll_usb.c ****   }
 3310              		.loc 1 273 63 discriminator 1 view .LVU1083
 3311 002c C72C     		cmp	r4, #199
 3312 002e F5D9     		bls	.L207
 3313              	.L204:
 280:Drivers/STM32F4xx_HAL_Driver/Src/stm32f4xx_ll_usb.c ****   {
 3314              		.loc 1 280 3 is_stmt 1 view .LVU1084
 280:Drivers/STM32F4xx_HAL_Driver/Src/stm32f4xx_ll_usb.c ****   {
 3315              		.loc 1 280 6 is_stmt 0 view .LVU1085
 3316 0030 C82C     		cmp	r4, #200
 3317 0032 14D0     		beq	.L209
 285:Drivers/STM32F4xx_HAL_Driver/Src/stm32f4xx_ll_usb.c **** }
 3318              		.loc 1 285 10 view .LVU1086
 3319 0034 0020     		movs	r0, #0
 3320              	.LVL276:
 3321              	.L206:
 286:Drivers/STM32F4xx_HAL_Driver/Src/stm32f4xx_ll_usb.c **** 
 3322              		.loc 1 286 1 view .LVU1087
 3323 0036 38BD     		pop	{r3, r4, r5, pc}
 3324              	.LVL277:
 3325              	.L211:
 257:Drivers/STM32F4xx_HAL_Driver/Src/stm32f4xx_ll_usb.c **** 
 3326              		.loc 1 257 5 is_stmt 1 view .LVU1088
ARM GAS  C:\Users\ashto\AppData\Local\Temp\ccdF3pho.s 			page 102


 257:Drivers/STM32F4xx_HAL_Driver/Src/stm32f4xx_ll_usb.c **** 
 3327              		.loc 1 257 19 is_stmt 0 view .LVU1089
 3328 0038 C368     		ldr	r3, [r0, #12]
 3329 003a 43F00053 		orr	r3, r3, #536870912
 3330 003e C360     		str	r3, [r0, #12]
 251:Drivers/STM32F4xx_HAL_Driver/Src/stm32f4xx_ll_usb.c **** 
 3331              		.loc 1 251 12 view .LVU1090
 3332 0040 0024     		movs	r4, #0
 3333              	.LVL278:
 3334              	.L205:
 259:Drivers/STM32F4xx_HAL_Driver/Src/stm32f4xx_ll_usb.c ****     {
 3335              		.loc 1 259 5 is_stmt 1 discriminator 2 view .LVU1091
 261:Drivers/STM32F4xx_HAL_Driver/Src/stm32f4xx_ll_usb.c ****       ms += 10U;
 3336              		.loc 1 261 7 discriminator 2 view .LVU1092
 3337 0042 0A20     		movs	r0, #10
 3338 0044 FFF7FEFF 		bl	HAL_Delay
 3339              	.LVL279:
 262:Drivers/STM32F4xx_HAL_Driver/Src/stm32f4xx_ll_usb.c ****     } while ((USB_GetMode(USBx) != (uint32_t)USB_HOST_MODE) && (ms < HAL_USB_CURRENT_MODE_MAX_DELAY
 3340              		.loc 1 262 7 discriminator 2 view .LVU1093
 262:Drivers/STM32F4xx_HAL_Driver/Src/stm32f4xx_ll_usb.c ****     } while ((USB_GetMode(USBx) != (uint32_t)USB_HOST_MODE) && (ms < HAL_USB_CURRENT_MODE_MAX_DELAY
 3341              		.loc 1 262 10 is_stmt 0 discriminator 2 view .LVU1094
 3342 0048 0A34     		adds	r4, r4, #10
 3343              	.LVL280:
 263:Drivers/STM32F4xx_HAL_Driver/Src/stm32f4xx_ll_usb.c ****   }
 3344              		.loc 1 263 13 is_stmt 1 discriminator 2 view .LVU1095
 263:Drivers/STM32F4xx_HAL_Driver/Src/stm32f4xx_ll_usb.c ****   }
 3345              		.loc 1 263 15 is_stmt 0 discriminator 2 view .LVU1096
 3346 004a 2846     		mov	r0, r5
 3347 004c FFF7FEFF 		bl	USB_GetMode
 3348              	.LVL281:
 263:Drivers/STM32F4xx_HAL_Driver/Src/stm32f4xx_ll_usb.c ****   }
 3349              		.loc 1 263 5 discriminator 2 view .LVU1097
 3350 0050 0128     		cmp	r0, #1
 3351 0052 EDD0     		beq	.L204
 263:Drivers/STM32F4xx_HAL_Driver/Src/stm32f4xx_ll_usb.c ****   }
 3352              		.loc 1 263 61 discriminator 1 view .LVU1098
 3353 0054 C72C     		cmp	r4, #199
 3354 0056 F4D9     		bls	.L205
 3355 0058 EAE7     		b	.L204
 3356              	.LVL282:
 3357              	.L208:
 277:Drivers/STM32F4xx_HAL_Driver/Src/stm32f4xx_ll_usb.c ****   }
 3358              		.loc 1 277 12 view .LVU1099
 3359 005a 0120     		movs	r0, #1
 3360              	.LVL283:
 277:Drivers/STM32F4xx_HAL_Driver/Src/stm32f4xx_ll_usb.c ****   }
 3361              		.loc 1 277 12 view .LVU1100
 3362 005c EBE7     		b	.L206
 3363              	.LVL284:
 3364              	.L209:
 282:Drivers/STM32F4xx_HAL_Driver/Src/stm32f4xx_ll_usb.c ****   }
 3365              		.loc 1 282 12 view .LVU1101
 3366 005e 0120     		movs	r0, #1
 3367 0060 E9E7     		b	.L206
 3368              		.cfi_endproc
 3369              	.LFE138:
 3371              		.section	.text.USB_ActivateSetup,"ax",%progbits
ARM GAS  C:\Users\ashto\AppData\Local\Temp\ccdF3pho.s 			page 103


 3372              		.align	1
 3373              		.global	USB_ActivateSetup
 3374              		.syntax unified
 3375              		.thumb
 3376              		.thumb_func
 3378              	USB_ActivateSetup:
 3379              	.LVL285:
 3380              	.LFB166:
1352:Drivers/STM32F4xx_HAL_Driver/Src/stm32f4xx_ll_usb.c ****   uint32_t USBx_BASE = (uint32_t)USBx;
 3381              		.loc 1 1352 1 is_stmt 1 view -0
 3382              		.cfi_startproc
 3383              		@ args = 0, pretend = 0, frame = 0
 3384              		@ frame_needed = 0, uses_anonymous_args = 0
 3385              		@ link register save eliminated.
1353:Drivers/STM32F4xx_HAL_Driver/Src/stm32f4xx_ll_usb.c **** 
 3386              		.loc 1 1353 3 view .LVU1103
1356:Drivers/STM32F4xx_HAL_Driver/Src/stm32f4xx_ll_usb.c **** 
 3387              		.loc 1 1356 3 view .LVU1104
1356:Drivers/STM32F4xx_HAL_Driver/Src/stm32f4xx_ll_usb.c **** 
 3388              		.loc 1 1356 26 is_stmt 0 view .LVU1105
 3389 0000 D0F80039 		ldr	r3, [r0, #2304]
 3390 0004 23F4FF63 		bic	r3, r3, #2040
 3391 0008 23F00703 		bic	r3, r3, #7
 3392 000c C0F80039 		str	r3, [r0, #2304]
1358:Drivers/STM32F4xx_HAL_Driver/Src/stm32f4xx_ll_usb.c **** 
 3393              		.loc 1 1358 3 is_stmt 1 view .LVU1106
1358:Drivers/STM32F4xx_HAL_Driver/Src/stm32f4xx_ll_usb.c **** 
 3394              		.loc 1 1358 21 is_stmt 0 view .LVU1107
 3395 0010 D0F80438 		ldr	r3, [r0, #2052]
 3396 0014 43F48073 		orr	r3, r3, #256
 3397 0018 C0F80438 		str	r3, [r0, #2052]
1360:Drivers/STM32F4xx_HAL_Driver/Src/stm32f4xx_ll_usb.c **** }
 3398              		.loc 1 1360 3 is_stmt 1 view .LVU1108
1361:Drivers/STM32F4xx_HAL_Driver/Src/stm32f4xx_ll_usb.c **** 
 3399              		.loc 1 1361 1 is_stmt 0 view .LVU1109
 3400 001c 0020     		movs	r0, #0
 3401              	.LVL286:
1361:Drivers/STM32F4xx_HAL_Driver/Src/stm32f4xx_ll_usb.c **** 
 3402              		.loc 1 1361 1 view .LVU1110
 3403 001e 7047     		bx	lr
 3404              		.cfi_endproc
 3405              	.LFE166:
 3407              		.section	.text.USB_EP0_OutStart,"ax",%progbits
 3408              		.align	1
 3409              		.global	USB_EP0_OutStart
 3410              		.syntax unified
 3411              		.thumb
 3412              		.thumb_func
 3414              	USB_EP0_OutStart:
 3415              	.LVL287:
 3416              	.LFB167:
1374:Drivers/STM32F4xx_HAL_Driver/Src/stm32f4xx_ll_usb.c ****   uint32_t USBx_BASE = (uint32_t)USBx;
 3417              		.loc 1 1374 1 is_stmt 1 view -0
 3418              		.cfi_startproc
 3419              		@ args = 0, pretend = 0, frame = 0
 3420              		@ frame_needed = 0, uses_anonymous_args = 0
 3421              		@ link register save eliminated.
ARM GAS  C:\Users\ashto\AppData\Local\Temp\ccdF3pho.s 			page 104


1374:Drivers/STM32F4xx_HAL_Driver/Src/stm32f4xx_ll_usb.c ****   uint32_t USBx_BASE = (uint32_t)USBx;
 3422              		.loc 1 1374 1 is_stmt 0 view .LVU1112
 3423 0000 10B4     		push	{r4}
 3424              	.LCFI41:
 3425              		.cfi_def_cfa_offset 4
 3426              		.cfi_offset 4, -4
1375:Drivers/STM32F4xx_HAL_Driver/Src/stm32f4xx_ll_usb.c ****   uint32_t gSNPSiD = *(__IO const uint32_t *)(&USBx->CID + 0x1U);
 3427              		.loc 1 1375 3 is_stmt 1 view .LVU1113
 3428              	.LVL288:
1376:Drivers/STM32F4xx_HAL_Driver/Src/stm32f4xx_ll_usb.c **** 
 3429              		.loc 1 1376 3 view .LVU1114
1376:Drivers/STM32F4xx_HAL_Driver/Src/stm32f4xx_ll_usb.c **** 
 3430              		.loc 1 1376 12 is_stmt 0 view .LVU1115
 3431 0002 046C     		ldr	r4, [r0, #64]
 3432              	.LVL289:
1378:Drivers/STM32F4xx_HAL_Driver/Src/stm32f4xx_ll_usb.c ****   {
 3433              		.loc 1 1378 3 is_stmt 1 view .LVU1116
1378:Drivers/STM32F4xx_HAL_Driver/Src/stm32f4xx_ll_usb.c ****   {
 3434              		.loc 1 1378 6 is_stmt 0 view .LVU1117
 3435 0004 154B     		ldr	r3, .L218
 3436 0006 9C42     		cmp	r4, r3
 3437 0008 03D9     		bls	.L214
1380:Drivers/STM32F4xx_HAL_Driver/Src/stm32f4xx_ll_usb.c ****     {
 3438              		.loc 1 1380 5 is_stmt 1 view .LVU1118
1380:Drivers/STM32F4xx_HAL_Driver/Src/stm32f4xx_ll_usb.c ****     {
 3439              		.loc 1 1380 24 is_stmt 0 view .LVU1119
 3440 000a D0F8003B 		ldr	r3, [r0, #2816]
1380:Drivers/STM32F4xx_HAL_Driver/Src/stm32f4xx_ll_usb.c ****     {
 3441              		.loc 1 1380 8 view .LVU1120
 3442 000e 002B     		cmp	r3, #0
 3443 0010 16DB     		blt	.L215
 3444              	.L214:
1386:Drivers/STM32F4xx_HAL_Driver/Src/stm32f4xx_ll_usb.c ****   USBx_OUTEP(0U)->DOEPTSIZ |= (USB_OTG_DOEPTSIZ_PKTCNT & (1U << 19));
 3445              		.loc 1 1386 3 is_stmt 1 view .LVU1121
1386:Drivers/STM32F4xx_HAL_Driver/Src/stm32f4xx_ll_usb.c ****   USBx_OUTEP(0U)->DOEPTSIZ |= (USB_OTG_DOEPTSIZ_PKTCNT & (1U << 19));
 3446              		.loc 1 1386 28 is_stmt 0 view .LVU1122
 3447 0012 0024     		movs	r4, #0
 3448              	.LVL290:
1386:Drivers/STM32F4xx_HAL_Driver/Src/stm32f4xx_ll_usb.c ****   USBx_OUTEP(0U)->DOEPTSIZ |= (USB_OTG_DOEPTSIZ_PKTCNT & (1U << 19));
 3449              		.loc 1 1386 28 view .LVU1123
 3450 0014 C0F8104B 		str	r4, [r0, #2832]
1387:Drivers/STM32F4xx_HAL_Driver/Src/stm32f4xx_ll_usb.c ****   USBx_OUTEP(0U)->DOEPTSIZ |= (3U * 8U);
 3451              		.loc 1 1387 3 is_stmt 1 view .LVU1124
1387:Drivers/STM32F4xx_HAL_Driver/Src/stm32f4xx_ll_usb.c ****   USBx_OUTEP(0U)->DOEPTSIZ |= (3U * 8U);
 3452              		.loc 1 1387 28 is_stmt 0 view .LVU1125
 3453 0018 D0F8104B 		ldr	r4, [r0, #2832]
 3454 001c 44F40024 		orr	r4, r4, #524288
 3455 0020 C0F8104B 		str	r4, [r0, #2832]
1388:Drivers/STM32F4xx_HAL_Driver/Src/stm32f4xx_ll_usb.c ****   USBx_OUTEP(0U)->DOEPTSIZ |=  USB_OTG_DOEPTSIZ_STUPCNT;
 3456              		.loc 1 1388 3 is_stmt 1 view .LVU1126
1388:Drivers/STM32F4xx_HAL_Driver/Src/stm32f4xx_ll_usb.c ****   USBx_OUTEP(0U)->DOEPTSIZ |=  USB_OTG_DOEPTSIZ_STUPCNT;
 3457              		.loc 1 1388 28 is_stmt 0 view .LVU1127
 3458 0024 D0F8104B 		ldr	r4, [r0, #2832]
 3459 0028 44F01804 		orr	r4, r4, #24
 3460 002c C0F8104B 		str	r4, [r0, #2832]
1389:Drivers/STM32F4xx_HAL_Driver/Src/stm32f4xx_ll_usb.c **** 
 3461              		.loc 1 1389 3 is_stmt 1 view .LVU1128
ARM GAS  C:\Users\ashto\AppData\Local\Temp\ccdF3pho.s 			page 105


1389:Drivers/STM32F4xx_HAL_Driver/Src/stm32f4xx_ll_usb.c **** 
 3462              		.loc 1 1389 28 is_stmt 0 view .LVU1129
 3463 0030 D0F8104B 		ldr	r4, [r0, #2832]
 3464 0034 44F0C044 		orr	r4, r4, #1610612736
 3465 0038 C0F8104B 		str	r4, [r0, #2832]
1391:Drivers/STM32F4xx_HAL_Driver/Src/stm32f4xx_ll_usb.c ****   {
 3466              		.loc 1 1391 3 is_stmt 1 view .LVU1130
1391:Drivers/STM32F4xx_HAL_Driver/Src/stm32f4xx_ll_usb.c ****   {
 3467              		.loc 1 1391 6 is_stmt 0 view .LVU1131
 3468 003c 0129     		cmp	r1, #1
 3469 003e 03D0     		beq	.L217
 3470              	.L215:
1399:Drivers/STM32F4xx_HAL_Driver/Src/stm32f4xx_ll_usb.c **** 
 3471              		.loc 1 1399 1 view .LVU1132
 3472 0040 0020     		movs	r0, #0
 3473              	.LVL291:
1399:Drivers/STM32F4xx_HAL_Driver/Src/stm32f4xx_ll_usb.c **** 
 3474              		.loc 1 1399 1 view .LVU1133
 3475 0042 5DF8044B 		ldr	r4, [sp], #4
 3476              	.LCFI42:
 3477              		.cfi_remember_state
 3478              		.cfi_restore 4
 3479              		.cfi_def_cfa_offset 0
 3480 0046 7047     		bx	lr
 3481              	.LVL292:
 3482              	.L217:
 3483              	.LCFI43:
 3484              		.cfi_restore_state
1393:Drivers/STM32F4xx_HAL_Driver/Src/stm32f4xx_ll_usb.c ****     /* EP enable */
 3485              		.loc 1 1393 5 is_stmt 1 view .LVU1134
1393:Drivers/STM32F4xx_HAL_Driver/Src/stm32f4xx_ll_usb.c ****     /* EP enable */
 3486              		.loc 1 1393 29 is_stmt 0 view .LVU1135
 3487 0048 C0F8142B 		str	r2, [r0, #2836]
1395:Drivers/STM32F4xx_HAL_Driver/Src/stm32f4xx_ll_usb.c ****   }
 3488              		.loc 1 1395 5 is_stmt 1 view .LVU1136
1395:Drivers/STM32F4xx_HAL_Driver/Src/stm32f4xx_ll_usb.c ****   }
 3489              		.loc 1 1395 29 is_stmt 0 view .LVU1137
 3490 004c D0F8003B 		ldr	r3, [r0, #2816]
 3491 0050 43F08023 		orr	r3, r3, #-2147450880
 3492 0054 C0F8003B 		str	r3, [r0, #2816]
 3493 0058 F2E7     		b	.L215
 3494              	.L219:
 3495 005a 00BF     		.align	2
 3496              	.L218:
 3497 005c 0A30544F 		.word	1330917386
 3498              		.cfi_endproc
 3499              	.LFE167:
 3501              		.section	.text.USB_HostInit,"ax",%progbits
 3502              		.align	1
 3503              		.global	USB_HostInit
 3504              		.syntax unified
 3505              		.thumb
 3506              		.thumb_func
 3508              	USB_HostInit:
 3509              	.LVL293:
 3510              	.LFB169:
1437:Drivers/STM32F4xx_HAL_Driver/Src/stm32f4xx_ll_usb.c **** 
ARM GAS  C:\Users\ashto\AppData\Local\Temp\ccdF3pho.s 			page 106


1438:Drivers/STM32F4xx_HAL_Driver/Src/stm32f4xx_ll_usb.c **** /**
1439:Drivers/STM32F4xx_HAL_Driver/Src/stm32f4xx_ll_usb.c ****   * @brief  USB_HostInit : Initializes the USB OTG controller registers
1440:Drivers/STM32F4xx_HAL_Driver/Src/stm32f4xx_ll_usb.c ****   *         for Host mode
1441:Drivers/STM32F4xx_HAL_Driver/Src/stm32f4xx_ll_usb.c ****   * @param  USBx  Selected device
1442:Drivers/STM32F4xx_HAL_Driver/Src/stm32f4xx_ll_usb.c ****   * @param  cfg   pointer to a USB_OTG_CfgTypeDef structure that contains
1443:Drivers/STM32F4xx_HAL_Driver/Src/stm32f4xx_ll_usb.c ****   *         the configuration information for the specified USBx peripheral.
1444:Drivers/STM32F4xx_HAL_Driver/Src/stm32f4xx_ll_usb.c ****   * @retval HAL status
1445:Drivers/STM32F4xx_HAL_Driver/Src/stm32f4xx_ll_usb.c ****   */
1446:Drivers/STM32F4xx_HAL_Driver/Src/stm32f4xx_ll_usb.c **** HAL_StatusTypeDef USB_HostInit(USB_OTG_GlobalTypeDef *USBx, USB_OTG_CfgTypeDef cfg)
1447:Drivers/STM32F4xx_HAL_Driver/Src/stm32f4xx_ll_usb.c **** {
 3511              		.loc 1 1447 1 is_stmt 1 view -0
 3512              		.cfi_startproc
 3513              		@ args = 20, pretend = 16, frame = 0
 3514              		@ frame_needed = 0, uses_anonymous_args = 0
 3515              		.loc 1 1447 1 is_stmt 0 view .LVU1139
 3516 0000 84B0     		sub	sp, sp, #16
 3517              	.LCFI44:
 3518              		.cfi_def_cfa_offset 16
 3519 0002 38B5     		push	{r3, r4, r5, lr}
 3520              	.LCFI45:
 3521              		.cfi_def_cfa_offset 32
 3522              		.cfi_offset 3, -32
 3523              		.cfi_offset 4, -28
 3524              		.cfi_offset 5, -24
 3525              		.cfi_offset 14, -20
 3526 0004 0446     		mov	r4, r0
 3527 0006 05A8     		add	r0, sp, #20
 3528 0008 80E80E00 		stm	r0, {r1, r2, r3}
1448:Drivers/STM32F4xx_HAL_Driver/Src/stm32f4xx_ll_usb.c ****   HAL_StatusTypeDef ret = HAL_OK;
 3529              		.loc 1 1448 3 is_stmt 1 view .LVU1140
 3530              	.LVL294:
1449:Drivers/STM32F4xx_HAL_Driver/Src/stm32f4xx_ll_usb.c ****   uint32_t USBx_BASE = (uint32_t)USBx;
 3531              		.loc 1 1449 3 view .LVU1141
1450:Drivers/STM32F4xx_HAL_Driver/Src/stm32f4xx_ll_usb.c ****   uint32_t i;
 3532              		.loc 1 1450 3 view .LVU1142
1451:Drivers/STM32F4xx_HAL_Driver/Src/stm32f4xx_ll_usb.c **** 
1452:Drivers/STM32F4xx_HAL_Driver/Src/stm32f4xx_ll_usb.c ****   /* Restart the Phy Clock */
1453:Drivers/STM32F4xx_HAL_Driver/Src/stm32f4xx_ll_usb.c ****   USBx_PCGCCTL = 0U;
 3533              		.loc 1 1453 3 view .LVU1143
 3534              		.loc 1 1453 16 is_stmt 0 view .LVU1144
 3535 000c 0023     		movs	r3, #0
 3536 000e C4F8003E 		str	r3, [r4, #3584]
1454:Drivers/STM32F4xx_HAL_Driver/Src/stm32f4xx_ll_usb.c **** 
1455:Drivers/STM32F4xx_HAL_Driver/Src/stm32f4xx_ll_usb.c **** #if defined(STM32F446xx) || defined(STM32F469xx) || defined(STM32F479xx) || defined(STM32F412Zx) \
1456:Drivers/STM32F4xx_HAL_Driver/Src/stm32f4xx_ll_usb.c ****  || defined(STM32F412Vx) || defined(STM32F412Rx) || defined(STM32F412Cx) || defined(STM32F413xx) \
1457:Drivers/STM32F4xx_HAL_Driver/Src/stm32f4xx_ll_usb.c ****  || defined(STM32F423xx)
1458:Drivers/STM32F4xx_HAL_Driver/Src/stm32f4xx_ll_usb.c ****   /* Disable HW VBUS sensing */
1459:Drivers/STM32F4xx_HAL_Driver/Src/stm32f4xx_ll_usb.c ****   USBx->GCCFG &= ~(USB_OTG_GCCFG_VBDEN);
1460:Drivers/STM32F4xx_HAL_Driver/Src/stm32f4xx_ll_usb.c **** #else
1461:Drivers/STM32F4xx_HAL_Driver/Src/stm32f4xx_ll_usb.c ****   /*
1462:Drivers/STM32F4xx_HAL_Driver/Src/stm32f4xx_ll_usb.c ****   * Disable HW VBUS sensing. VBUS is internally considered to be always
1463:Drivers/STM32F4xx_HAL_Driver/Src/stm32f4xx_ll_usb.c ****   * at VBUS-Valid level (5V).
1464:Drivers/STM32F4xx_HAL_Driver/Src/stm32f4xx_ll_usb.c ****   */
1465:Drivers/STM32F4xx_HAL_Driver/Src/stm32f4xx_ll_usb.c ****   USBx->GCCFG |= USB_OTG_GCCFG_NOVBUSSENS;
 3537              		.loc 1 1465 3 is_stmt 1 view .LVU1145
 3538              		.loc 1 1465 15 is_stmt 0 view .LVU1146
 3539 0012 A36B     		ldr	r3, [r4, #56]
ARM GAS  C:\Users\ashto\AppData\Local\Temp\ccdF3pho.s 			page 107


 3540 0014 43F40013 		orr	r3, r3, #2097152
 3541 0018 A363     		str	r3, [r4, #56]
1466:Drivers/STM32F4xx_HAL_Driver/Src/stm32f4xx_ll_usb.c ****   USBx->GCCFG &= ~USB_OTG_GCCFG_VBUSBSEN;
 3542              		.loc 1 1466 3 is_stmt 1 view .LVU1147
 3543              		.loc 1 1466 15 is_stmt 0 view .LVU1148
 3544 001a A36B     		ldr	r3, [r4, #56]
 3545 001c 23F40023 		bic	r3, r3, #524288
 3546 0020 A363     		str	r3, [r4, #56]
1467:Drivers/STM32F4xx_HAL_Driver/Src/stm32f4xx_ll_usb.c ****   USBx->GCCFG &= ~USB_OTG_GCCFG_VBUSASEN;
 3547              		.loc 1 1467 3 is_stmt 1 view .LVU1149
 3548              		.loc 1 1467 15 is_stmt 0 view .LVU1150
 3549 0022 A36B     		ldr	r3, [r4, #56]
 3550 0024 23F48023 		bic	r3, r3, #262144
 3551 0028 A363     		str	r3, [r4, #56]
1468:Drivers/STM32F4xx_HAL_Driver/Src/stm32f4xx_ll_usb.c **** #endif /* defined(STM32F446xx) || defined(STM32F469xx) || defined(STM32F479xx) || defined(STM32F412
1469:Drivers/STM32F4xx_HAL_Driver/Src/stm32f4xx_ll_usb.c ****           defined(STM32F412Vx) || defined(STM32F412Rx) || defined(STM32F412Cx) || defined(STM32F413
1470:Drivers/STM32F4xx_HAL_Driver/Src/stm32f4xx_ll_usb.c ****           defined(STM32F423xx) */
1471:Drivers/STM32F4xx_HAL_Driver/Src/stm32f4xx_ll_usb.c **** #if defined(STM32F412Zx) || defined(STM32F412Vx) || defined(STM32F412Rx) \
1472:Drivers/STM32F4xx_HAL_Driver/Src/stm32f4xx_ll_usb.c ****  || defined(STM32F412Cx) || defined(STM32F413xx) || defined(STM32F423xx)
1473:Drivers/STM32F4xx_HAL_Driver/Src/stm32f4xx_ll_usb.c ****   /* Disable Battery chargin detector */
1474:Drivers/STM32F4xx_HAL_Driver/Src/stm32f4xx_ll_usb.c ****   USBx->GCCFG &= ~(USB_OTG_GCCFG_BCDEN);
1475:Drivers/STM32F4xx_HAL_Driver/Src/stm32f4xx_ll_usb.c **** #endif /* defined(STM32F412Zx) || defined(STM32F412Vx) || defined(STM32F412Rx) ||
1476:Drivers/STM32F4xx_HAL_Driver/Src/stm32f4xx_ll_usb.c ****           defined(STM32F412Cx) || defined(STM32F413xx) || defined(STM32F423xx) */
1477:Drivers/STM32F4xx_HAL_Driver/Src/stm32f4xx_ll_usb.c **** 
1478:Drivers/STM32F4xx_HAL_Driver/Src/stm32f4xx_ll_usb.c ****   if ((USBx->GUSBCFG & USB_OTG_GUSBCFG_PHYSEL) == 0U)
 3552              		.loc 1 1478 3 is_stmt 1 view .LVU1151
 3553              		.loc 1 1478 12 is_stmt 0 view .LVU1152
 3554 002a E368     		ldr	r3, [r4, #12]
 3555              		.loc 1 1478 6 view .LVU1153
 3556 002c 13F0400F 		tst	r3, #64
 3557 0030 11D1     		bne	.L221
1479:Drivers/STM32F4xx_HAL_Driver/Src/stm32f4xx_ll_usb.c ****   {
1480:Drivers/STM32F4xx_HAL_Driver/Src/stm32f4xx_ll_usb.c ****     if (cfg.speed == USBH_FSLS_SPEED)
 3558              		.loc 1 1480 5 is_stmt 1 view .LVU1154
 3559              		.loc 1 1480 12 is_stmt 0 view .LVU1155
 3560 0032 9DF81730 		ldrb	r3, [sp, #23]	@ zero_extendqisi2
 3561              		.loc 1 1480 8 view .LVU1156
 3562 0036 012B     		cmp	r3, #1
 3563 0038 06D0     		beq	.L234
1481:Drivers/STM32F4xx_HAL_Driver/Src/stm32f4xx_ll_usb.c ****     {
1482:Drivers/STM32F4xx_HAL_Driver/Src/stm32f4xx_ll_usb.c ****       /* Force Device Enumeration to FS/LS mode only */
1483:Drivers/STM32F4xx_HAL_Driver/Src/stm32f4xx_ll_usb.c ****       USBx_HOST->HCFG |= USB_OTG_HCFG_FSLSS;
1484:Drivers/STM32F4xx_HAL_Driver/Src/stm32f4xx_ll_usb.c ****     }
1485:Drivers/STM32F4xx_HAL_Driver/Src/stm32f4xx_ll_usb.c ****     else
1486:Drivers/STM32F4xx_HAL_Driver/Src/stm32f4xx_ll_usb.c ****     {
1487:Drivers/STM32F4xx_HAL_Driver/Src/stm32f4xx_ll_usb.c ****       /* Set default Max speed support */
1488:Drivers/STM32F4xx_HAL_Driver/Src/stm32f4xx_ll_usb.c ****       USBx_HOST->HCFG &= ~(USB_OTG_HCFG_FSLSS);
 3564              		.loc 1 1488 7 is_stmt 1 view .LVU1157
 3565              		.loc 1 1488 23 is_stmt 0 view .LVU1158
 3566 003a D4F80034 		ldr	r3, [r4, #1024]
 3567 003e 23F00403 		bic	r3, r3, #4
 3568 0042 C4F80034 		str	r3, [r4, #1024]
 3569 0046 0CE0     		b	.L223
 3570              	.L234:
1483:Drivers/STM32F4xx_HAL_Driver/Src/stm32f4xx_ll_usb.c ****     }
 3571              		.loc 1 1483 7 is_stmt 1 view .LVU1159
1483:Drivers/STM32F4xx_HAL_Driver/Src/stm32f4xx_ll_usb.c ****     }
ARM GAS  C:\Users\ashto\AppData\Local\Temp\ccdF3pho.s 			page 108


 3572              		.loc 1 1483 23 is_stmt 0 view .LVU1160
 3573 0048 D4F80034 		ldr	r3, [r4, #1024]
 3574 004c 43F00403 		orr	r3, r3, #4
 3575 0050 C4F80034 		str	r3, [r4, #1024]
 3576 0054 05E0     		b	.L223
 3577              	.L221:
1489:Drivers/STM32F4xx_HAL_Driver/Src/stm32f4xx_ll_usb.c ****     }
1490:Drivers/STM32F4xx_HAL_Driver/Src/stm32f4xx_ll_usb.c ****   }
1491:Drivers/STM32F4xx_HAL_Driver/Src/stm32f4xx_ll_usb.c ****   else
1492:Drivers/STM32F4xx_HAL_Driver/Src/stm32f4xx_ll_usb.c ****   {
1493:Drivers/STM32F4xx_HAL_Driver/Src/stm32f4xx_ll_usb.c ****     /* Set default Max speed support */
1494:Drivers/STM32F4xx_HAL_Driver/Src/stm32f4xx_ll_usb.c ****     USBx_HOST->HCFG &= ~(USB_OTG_HCFG_FSLSS);
 3578              		.loc 1 1494 5 is_stmt 1 view .LVU1161
 3579              		.loc 1 1494 21 is_stmt 0 view .LVU1162
 3580 0056 D4F80034 		ldr	r3, [r4, #1024]
 3581 005a 23F00403 		bic	r3, r3, #4
 3582 005e C4F80034 		str	r3, [r4, #1024]
 3583              	.L223:
1495:Drivers/STM32F4xx_HAL_Driver/Src/stm32f4xx_ll_usb.c ****   }
1496:Drivers/STM32F4xx_HAL_Driver/Src/stm32f4xx_ll_usb.c **** 
1497:Drivers/STM32F4xx_HAL_Driver/Src/stm32f4xx_ll_usb.c ****   /* Make sure the FIFOs are flushed. */
1498:Drivers/STM32F4xx_HAL_Driver/Src/stm32f4xx_ll_usb.c ****   if (USB_FlushTxFifo(USBx, 0x10U) != HAL_OK) /* all Tx FIFOs */
 3584              		.loc 1 1498 3 is_stmt 1 view .LVU1163
 3585              		.loc 1 1498 7 is_stmt 0 view .LVU1164
 3586 0062 1021     		movs	r1, #16
 3587 0064 2046     		mov	r0, r4
 3588              	.LVL295:
 3589              		.loc 1 1498 7 view .LVU1165
 3590 0066 FFF7FEFF 		bl	USB_FlushTxFifo
 3591              	.LVL296:
 3592              		.loc 1 1498 6 view .LVU1166
 3593 006a 0546     		mov	r5, r0
 3594 006c 00B1     		cbz	r0, .L224
1499:Drivers/STM32F4xx_HAL_Driver/Src/stm32f4xx_ll_usb.c ****   {
1500:Drivers/STM32F4xx_HAL_Driver/Src/stm32f4xx_ll_usb.c ****     ret = HAL_ERROR;
 3595              		.loc 1 1500 9 view .LVU1167
 3596 006e 0125     		movs	r5, #1
 3597              	.L224:
 3598              	.LVL297:
1501:Drivers/STM32F4xx_HAL_Driver/Src/stm32f4xx_ll_usb.c ****   }
1502:Drivers/STM32F4xx_HAL_Driver/Src/stm32f4xx_ll_usb.c **** 
1503:Drivers/STM32F4xx_HAL_Driver/Src/stm32f4xx_ll_usb.c ****   if (USB_FlushRxFifo(USBx) != HAL_OK)
 3599              		.loc 1 1503 3 is_stmt 1 view .LVU1168
 3600              		.loc 1 1503 7 is_stmt 0 view .LVU1169
 3601 0070 2046     		mov	r0, r4
 3602 0072 FFF7FEFF 		bl	USB_FlushRxFifo
 3603              	.LVL298:
 3604              		.loc 1 1503 6 view .LVU1170
 3605 0076 00B1     		cbz	r0, .L225
1504:Drivers/STM32F4xx_HAL_Driver/Src/stm32f4xx_ll_usb.c ****   {
1505:Drivers/STM32F4xx_HAL_Driver/Src/stm32f4xx_ll_usb.c ****     ret = HAL_ERROR;
 3606              		.loc 1 1505 9 view .LVU1171
 3607 0078 0125     		movs	r5, #1
 3608              	.LVL299:
 3609              	.L225:
1506:Drivers/STM32F4xx_HAL_Driver/Src/stm32f4xx_ll_usb.c ****   }
1507:Drivers/STM32F4xx_HAL_Driver/Src/stm32f4xx_ll_usb.c **** 
ARM GAS  C:\Users\ashto\AppData\Local\Temp\ccdF3pho.s 			page 109


1508:Drivers/STM32F4xx_HAL_Driver/Src/stm32f4xx_ll_usb.c ****   /* Clear all pending HC Interrupts */
1509:Drivers/STM32F4xx_HAL_Driver/Src/stm32f4xx_ll_usb.c ****   for (i = 0U; i < cfg.Host_channels; i++)
 3610              		.loc 1 1509 3 is_stmt 1 view .LVU1172
 3611              		.loc 1 1509 10 is_stmt 0 view .LVU1173
 3612 007a 0022     		movs	r2, #0
 3613              		.loc 1 1509 3 view .LVU1174
 3614 007c 09E0     		b	.L226
 3615              	.LVL300:
 3616              	.L227:
1510:Drivers/STM32F4xx_HAL_Driver/Src/stm32f4xx_ll_usb.c ****   {
1511:Drivers/STM32F4xx_HAL_Driver/Src/stm32f4xx_ll_usb.c ****     USBx_HC(i)->HCINT = CLEAR_INTERRUPT_MASK;
 3617              		.loc 1 1511 5 is_stmt 1 discriminator 3 view .LVU1175
 3618 007e 04EB4213 		add	r3, r4, r2, lsl #5
 3619              		.loc 1 1511 23 is_stmt 0 discriminator 3 view .LVU1176
 3620 0082 4FF0FF31 		mov	r1, #-1
 3621 0086 C3F80815 		str	r1, [r3, #1288]
1512:Drivers/STM32F4xx_HAL_Driver/Src/stm32f4xx_ll_usb.c ****     USBx_HC(i)->HCINTMSK = 0U;
 3622              		.loc 1 1512 5 is_stmt 1 discriminator 3 view .LVU1177
 3623              		.loc 1 1512 26 is_stmt 0 discriminator 3 view .LVU1178
 3624 008a 0021     		movs	r1, #0
 3625 008c C3F80C15 		str	r1, [r3, #1292]
1509:Drivers/STM32F4xx_HAL_Driver/Src/stm32f4xx_ll_usb.c ****   {
 3626              		.loc 1 1509 39 is_stmt 1 discriminator 3 view .LVU1179
1509:Drivers/STM32F4xx_HAL_Driver/Src/stm32f4xx_ll_usb.c ****   {
 3627              		.loc 1 1509 40 is_stmt 0 discriminator 3 view .LVU1180
 3628 0090 0132     		adds	r2, r2, #1
 3629              	.LVL301:
 3630              	.L226:
1509:Drivers/STM32F4xx_HAL_Driver/Src/stm32f4xx_ll_usb.c ****   {
 3631              		.loc 1 1509 16 is_stmt 1 discriminator 1 view .LVU1181
1509:Drivers/STM32F4xx_HAL_Driver/Src/stm32f4xx_ll_usb.c ****   {
 3632              		.loc 1 1509 23 is_stmt 0 discriminator 1 view .LVU1182
 3633 0092 9DF81530 		ldrb	r3, [sp, #21]	@ zero_extendqisi2
1509:Drivers/STM32F4xx_HAL_Driver/Src/stm32f4xx_ll_usb.c ****   {
 3634              		.loc 1 1509 3 discriminator 1 view .LVU1183
 3635 0096 9342     		cmp	r3, r2
 3636 0098 F1D8     		bhi	.L227
1513:Drivers/STM32F4xx_HAL_Driver/Src/stm32f4xx_ll_usb.c ****   }
1514:Drivers/STM32F4xx_HAL_Driver/Src/stm32f4xx_ll_usb.c **** 
1515:Drivers/STM32F4xx_HAL_Driver/Src/stm32f4xx_ll_usb.c ****   /* Disable all interrupts. */
1516:Drivers/STM32F4xx_HAL_Driver/Src/stm32f4xx_ll_usb.c ****   USBx->GINTMSK = 0U;
 3637              		.loc 1 1516 3 is_stmt 1 view .LVU1184
 3638              		.loc 1 1516 17 is_stmt 0 view .LVU1185
 3639 009a 0023     		movs	r3, #0
 3640 009c A361     		str	r3, [r4, #24]
1517:Drivers/STM32F4xx_HAL_Driver/Src/stm32f4xx_ll_usb.c **** 
1518:Drivers/STM32F4xx_HAL_Driver/Src/stm32f4xx_ll_usb.c ****   /* Clear any pending interrupts */
1519:Drivers/STM32F4xx_HAL_Driver/Src/stm32f4xx_ll_usb.c ****   USBx->GINTSTS = CLEAR_INTERRUPT_MASK;
 3641              		.loc 1 1519 3 is_stmt 1 view .LVU1186
 3642              		.loc 1 1519 17 is_stmt 0 view .LVU1187
 3643 009e 4FF0FF33 		mov	r3, #-1
 3644 00a2 6361     		str	r3, [r4, #20]
1520:Drivers/STM32F4xx_HAL_Driver/Src/stm32f4xx_ll_usb.c **** #if defined (USB_OTG_HS)
1521:Drivers/STM32F4xx_HAL_Driver/Src/stm32f4xx_ll_usb.c ****   if (USBx == USB_OTG_HS)
 3645              		.loc 1 1521 3 is_stmt 1 view .LVU1188
 3646              		.loc 1 1521 6 is_stmt 0 view .LVU1189
 3647 00a4 124B     		ldr	r3, .L236
ARM GAS  C:\Users\ashto\AppData\Local\Temp\ccdF3pho.s 			page 110


 3648 00a6 9C42     		cmp	r4, r3
 3649 00a8 17D0     		beq	.L235
1522:Drivers/STM32F4xx_HAL_Driver/Src/stm32f4xx_ll_usb.c ****   {
1523:Drivers/STM32F4xx_HAL_Driver/Src/stm32f4xx_ll_usb.c ****     /* set Rx FIFO size */
1524:Drivers/STM32F4xx_HAL_Driver/Src/stm32f4xx_ll_usb.c ****     USBx->GRXFSIZ  = 0x200U;
1525:Drivers/STM32F4xx_HAL_Driver/Src/stm32f4xx_ll_usb.c ****     USBx->DIEPTXF0_HNPTXFSIZ = (uint32_t)(((0x100U << 16) & USB_OTG_NPTXFD) | 0x200U);
1526:Drivers/STM32F4xx_HAL_Driver/Src/stm32f4xx_ll_usb.c ****     USBx->HPTXFSIZ = (uint32_t)(((0xE0U << 16) & USB_OTG_HPTXFSIZ_PTXFD) | 0x300U);
1527:Drivers/STM32F4xx_HAL_Driver/Src/stm32f4xx_ll_usb.c ****   }
1528:Drivers/STM32F4xx_HAL_Driver/Src/stm32f4xx_ll_usb.c ****   else
1529:Drivers/STM32F4xx_HAL_Driver/Src/stm32f4xx_ll_usb.c **** #endif /* defined (USB_OTG_HS) */
1530:Drivers/STM32F4xx_HAL_Driver/Src/stm32f4xx_ll_usb.c ****   {
1531:Drivers/STM32F4xx_HAL_Driver/Src/stm32f4xx_ll_usb.c ****     /* set Rx FIFO size */
1532:Drivers/STM32F4xx_HAL_Driver/Src/stm32f4xx_ll_usb.c ****     USBx->GRXFSIZ  = 0x80U;
 3650              		.loc 1 1532 5 is_stmt 1 view .LVU1190
 3651              		.loc 1 1532 20 is_stmt 0 view .LVU1191
 3652 00aa 8023     		movs	r3, #128
 3653 00ac 6362     		str	r3, [r4, #36]
1533:Drivers/STM32F4xx_HAL_Driver/Src/stm32f4xx_ll_usb.c ****     USBx->DIEPTXF0_HNPTXFSIZ = (uint32_t)(((0x60U << 16) & USB_OTG_NPTXFD) | 0x80U);
 3654              		.loc 1 1533 5 is_stmt 1 view .LVU1192
 3655              		.loc 1 1533 30 is_stmt 0 view .LVU1193
 3656 00ae 03F5C003 		add	r3, r3, #6291456
 3657 00b2 A362     		str	r3, [r4, #40]
1534:Drivers/STM32F4xx_HAL_Driver/Src/stm32f4xx_ll_usb.c ****     USBx->HPTXFSIZ = (uint32_t)(((0x40U << 16)& USB_OTG_HPTXFSIZ_PTXFD) | 0xE0U);
 3658              		.loc 1 1534 5 is_stmt 1 view .LVU1194
 3659              		.loc 1 1534 20 is_stmt 0 view .LVU1195
 3660 00b4 0F4B     		ldr	r3, .L236+4
 3661 00b6 C4F80031 		str	r3, [r4, #256]
 3662              	.L229:
1535:Drivers/STM32F4xx_HAL_Driver/Src/stm32f4xx_ll_usb.c ****   }
1536:Drivers/STM32F4xx_HAL_Driver/Src/stm32f4xx_ll_usb.c **** 
1537:Drivers/STM32F4xx_HAL_Driver/Src/stm32f4xx_ll_usb.c ****   /* Enable the common interrupts */
1538:Drivers/STM32F4xx_HAL_Driver/Src/stm32f4xx_ll_usb.c ****   if (cfg.dma_enable == 0U)
 3663              		.loc 1 1538 3 is_stmt 1 view .LVU1196
 3664              		.loc 1 1538 10 is_stmt 0 view .LVU1197
 3665 00ba 9DF81630 		ldrb	r3, [sp, #22]	@ zero_extendqisi2
 3666              		.loc 1 1538 6 view .LVU1198
 3667 00be 1BB9     		cbnz	r3, .L230
1539:Drivers/STM32F4xx_HAL_Driver/Src/stm32f4xx_ll_usb.c ****   {
1540:Drivers/STM32F4xx_HAL_Driver/Src/stm32f4xx_ll_usb.c ****     USBx->GINTMSK |= USB_OTG_GINTMSK_RXFLVLM;
 3668              		.loc 1 1540 5 is_stmt 1 view .LVU1199
 3669              		.loc 1 1540 19 is_stmt 0 view .LVU1200
 3670 00c0 A369     		ldr	r3, [r4, #24]
 3671 00c2 43F01003 		orr	r3, r3, #16
 3672 00c6 A361     		str	r3, [r4, #24]
 3673              	.L230:
1541:Drivers/STM32F4xx_HAL_Driver/Src/stm32f4xx_ll_usb.c ****   }
1542:Drivers/STM32F4xx_HAL_Driver/Src/stm32f4xx_ll_usb.c **** 
1543:Drivers/STM32F4xx_HAL_Driver/Src/stm32f4xx_ll_usb.c ****   /* Enable interrupts matching to the Host mode ONLY */
1544:Drivers/STM32F4xx_HAL_Driver/Src/stm32f4xx_ll_usb.c ****   USBx->GINTMSK |= (USB_OTG_GINTMSK_PRTIM            | USB_OTG_GINTMSK_HCIM | \
 3674              		.loc 1 1544 3 is_stmt 1 view .LVU1201
 3675              		.loc 1 1544 17 is_stmt 0 view .LVU1202
 3676 00c8 A269     		ldr	r2, [r4, #24]
 3677              	.LVL302:
 3678              		.loc 1 1544 17 view .LVU1203
 3679 00ca 0B4B     		ldr	r3, .L236+8
 3680 00cc 1343     		orrs	r3, r3, r2
 3681 00ce A361     		str	r3, [r4, #24]
ARM GAS  C:\Users\ashto\AppData\Local\Temp\ccdF3pho.s 			page 111


1545:Drivers/STM32F4xx_HAL_Driver/Src/stm32f4xx_ll_usb.c ****                     USB_OTG_GINTMSK_SOFM             | USB_OTG_GINTSTS_DISCINT | \
1546:Drivers/STM32F4xx_HAL_Driver/Src/stm32f4xx_ll_usb.c ****                     USB_OTG_GINTMSK_PXFRM_IISOOXFRM  | USB_OTG_GINTMSK_WUIM);
1547:Drivers/STM32F4xx_HAL_Driver/Src/stm32f4xx_ll_usb.c **** 
1548:Drivers/STM32F4xx_HAL_Driver/Src/stm32f4xx_ll_usb.c ****   return ret;
 3682              		.loc 1 1548 3 is_stmt 1 view .LVU1204
1549:Drivers/STM32F4xx_HAL_Driver/Src/stm32f4xx_ll_usb.c **** }
 3683              		.loc 1 1549 1 is_stmt 0 view .LVU1205
 3684 00d0 2846     		mov	r0, r5
 3685 00d2 BDE83840 		pop	{r3, r4, r5, lr}
 3686              	.LCFI46:
 3687              		.cfi_remember_state
 3688              		.cfi_restore 14
 3689              		.cfi_restore 5
 3690              		.cfi_restore 4
 3691              		.cfi_restore 3
 3692              		.cfi_def_cfa_offset 16
 3693              	.LVL303:
 3694              		.loc 1 1549 1 view .LVU1206
 3695 00d6 04B0     		add	sp, sp, #16
 3696              	.LCFI47:
 3697              		.cfi_def_cfa_offset 0
 3698 00d8 7047     		bx	lr
 3699              	.LVL304:
 3700              	.L235:
 3701              	.LCFI48:
 3702              		.cfi_restore_state
1524:Drivers/STM32F4xx_HAL_Driver/Src/stm32f4xx_ll_usb.c ****     USBx->DIEPTXF0_HNPTXFSIZ = (uint32_t)(((0x100U << 16) & USB_OTG_NPTXFD) | 0x200U);
 3703              		.loc 1 1524 5 is_stmt 1 view .LVU1207
1524:Drivers/STM32F4xx_HAL_Driver/Src/stm32f4xx_ll_usb.c ****     USBx->DIEPTXF0_HNPTXFSIZ = (uint32_t)(((0x100U << 16) & USB_OTG_NPTXFD) | 0x200U);
 3704              		.loc 1 1524 20 is_stmt 0 view .LVU1208
 3705 00da 4FF40073 		mov	r3, #512
 3706 00de 6362     		str	r3, [r4, #36]
1525:Drivers/STM32F4xx_HAL_Driver/Src/stm32f4xx_ll_usb.c ****     USBx->HPTXFSIZ = (uint32_t)(((0xE0U << 16) & USB_OTG_HPTXFSIZ_PTXFD) | 0x300U);
 3707              		.loc 1 1525 5 is_stmt 1 view .LVU1209
1525:Drivers/STM32F4xx_HAL_Driver/Src/stm32f4xx_ll_usb.c ****     USBx->HPTXFSIZ = (uint32_t)(((0xE0U << 16) & USB_OTG_HPTXFSIZ_PTXFD) | 0x300U);
 3708              		.loc 1 1525 30 is_stmt 0 view .LVU1210
 3709 00e0 03F18073 		add	r3, r3, #16777216
 3710 00e4 A362     		str	r3, [r4, #40]
1526:Drivers/STM32F4xx_HAL_Driver/Src/stm32f4xx_ll_usb.c ****   }
 3711              		.loc 1 1526 5 is_stmt 1 view .LVU1211
1526:Drivers/STM32F4xx_HAL_Driver/Src/stm32f4xx_ll_usb.c ****   }
 3712              		.loc 1 1526 20 is_stmt 0 view .LVU1212
 3713 00e6 054B     		ldr	r3, .L236+12
 3714 00e8 C4F80031 		str	r3, [r4, #256]
 3715 00ec E5E7     		b	.L229
 3716              	.L237:
 3717 00ee 00BF     		.align	2
 3718              	.L236:
 3719 00f0 00000440 		.word	1074003968
 3720 00f4 E0004000 		.word	4194528
 3721 00f8 080020A3 		.word	-1558183928
 3722 00fc 0003E000 		.word	14680832
 3723              		.cfi_endproc
 3724              	.LFE169:
 3726              		.section	.text.USB_InitFSLSPClkSel,"ax",%progbits
 3727              		.align	1
 3728              		.global	USB_InitFSLSPClkSel
ARM GAS  C:\Users\ashto\AppData\Local\Temp\ccdF3pho.s 			page 112


 3729              		.syntax unified
 3730              		.thumb
 3731              		.thumb_func
 3733              	USB_InitFSLSPClkSel:
 3734              	.LVL305:
 3735              	.LFB170:
1550:Drivers/STM32F4xx_HAL_Driver/Src/stm32f4xx_ll_usb.c **** 
1551:Drivers/STM32F4xx_HAL_Driver/Src/stm32f4xx_ll_usb.c **** /**
1552:Drivers/STM32F4xx_HAL_Driver/Src/stm32f4xx_ll_usb.c ****   * @brief  USB_InitFSLSPClkSel : Initializes the FSLSPClkSel field of the
1553:Drivers/STM32F4xx_HAL_Driver/Src/stm32f4xx_ll_usb.c ****   *         HCFG register on the PHY type and set the right frame interval
1554:Drivers/STM32F4xx_HAL_Driver/Src/stm32f4xx_ll_usb.c ****   * @param  USBx  Selected device
1555:Drivers/STM32F4xx_HAL_Driver/Src/stm32f4xx_ll_usb.c ****   * @param  freq  clock frequency
1556:Drivers/STM32F4xx_HAL_Driver/Src/stm32f4xx_ll_usb.c ****   *          This parameter can be one of these values:
1557:Drivers/STM32F4xx_HAL_Driver/Src/stm32f4xx_ll_usb.c ****   *           HCFG_48_MHZ : Full Speed 48 MHz Clock
1558:Drivers/STM32F4xx_HAL_Driver/Src/stm32f4xx_ll_usb.c ****   *           HCFG_6_MHZ : Low Speed 6 MHz Clock
1559:Drivers/STM32F4xx_HAL_Driver/Src/stm32f4xx_ll_usb.c ****   * @retval HAL status
1560:Drivers/STM32F4xx_HAL_Driver/Src/stm32f4xx_ll_usb.c ****   */
1561:Drivers/STM32F4xx_HAL_Driver/Src/stm32f4xx_ll_usb.c **** HAL_StatusTypeDef USB_InitFSLSPClkSel(const USB_OTG_GlobalTypeDef *USBx, uint8_t freq)
1562:Drivers/STM32F4xx_HAL_Driver/Src/stm32f4xx_ll_usb.c **** {
 3736              		.loc 1 1562 1 is_stmt 1 view -0
 3737              		.cfi_startproc
 3738              		@ args = 0, pretend = 0, frame = 0
 3739              		@ frame_needed = 0, uses_anonymous_args = 0
 3740              		@ link register save eliminated.
1563:Drivers/STM32F4xx_HAL_Driver/Src/stm32f4xx_ll_usb.c ****   uint32_t USBx_BASE = (uint32_t)USBx;
 3741              		.loc 1 1563 3 view .LVU1214
1564:Drivers/STM32F4xx_HAL_Driver/Src/stm32f4xx_ll_usb.c **** 
1565:Drivers/STM32F4xx_HAL_Driver/Src/stm32f4xx_ll_usb.c ****   USBx_HOST->HCFG &= ~(USB_OTG_HCFG_FSLSPCS);
 3742              		.loc 1 1565 3 view .LVU1215
 3743              		.loc 1 1565 19 is_stmt 0 view .LVU1216
 3744 0000 00F5806C 		add	ip, r0, #1024
 3745 0004 D0F80034 		ldr	r3, [r0, #1024]
 3746 0008 23F00303 		bic	r3, r3, #3
 3747 000c C0F80034 		str	r3, [r0, #1024]
1566:Drivers/STM32F4xx_HAL_Driver/Src/stm32f4xx_ll_usb.c ****   USBx_HOST->HCFG |= (uint32_t)freq & USB_OTG_HCFG_FSLSPCS;
 3748              		.loc 1 1566 3 is_stmt 1 view .LVU1217
 3749              		.loc 1 1566 19 is_stmt 0 view .LVU1218
 3750 0010 D0F80034 		ldr	r3, [r0, #1024]
 3751              		.loc 1 1566 37 view .LVU1219
 3752 0014 01F00302 		and	r2, r1, #3
 3753              		.loc 1 1566 19 view .LVU1220
 3754 0018 1343     		orrs	r3, r3, r2
 3755 001a C0F80034 		str	r3, [r0, #1024]
1567:Drivers/STM32F4xx_HAL_Driver/Src/stm32f4xx_ll_usb.c **** 
1568:Drivers/STM32F4xx_HAL_Driver/Src/stm32f4xx_ll_usb.c ****   if (freq == HCFG_48_MHZ)
 3756              		.loc 1 1568 3 is_stmt 1 view .LVU1221
 3757              		.loc 1 1568 6 is_stmt 0 view .LVU1222
 3758 001e 0129     		cmp	r1, #1
 3759 0020 07D0     		beq	.L242
1569:Drivers/STM32F4xx_HAL_Driver/Src/stm32f4xx_ll_usb.c ****   {
1570:Drivers/STM32F4xx_HAL_Driver/Src/stm32f4xx_ll_usb.c ****     USBx_HOST->HFIR = HFIR_48_MHZ;
1571:Drivers/STM32F4xx_HAL_Driver/Src/stm32f4xx_ll_usb.c ****   }
1572:Drivers/STM32F4xx_HAL_Driver/Src/stm32f4xx_ll_usb.c ****   else if (freq == HCFG_6_MHZ)
 3760              		.loc 1 1572 8 is_stmt 1 view .LVU1223
 3761              		.loc 1 1572 11 is_stmt 0 view .LVU1224
 3762 0022 0229     		cmp	r1, #2
 3763 0024 0BD1     		bne	.L241
ARM GAS  C:\Users\ashto\AppData\Local\Temp\ccdF3pho.s 			page 113


1573:Drivers/STM32F4xx_HAL_Driver/Src/stm32f4xx_ll_usb.c ****   {
1574:Drivers/STM32F4xx_HAL_Driver/Src/stm32f4xx_ll_usb.c ****     USBx_HOST->HFIR = HFIR_6_MHZ;
 3764              		.loc 1 1574 5 is_stmt 1 view .LVU1225
 3765              		.loc 1 1574 21 is_stmt 0 view .LVU1226
 3766 0026 41F27073 		movw	r3, #6000
 3767 002a CCF80430 		str	r3, [ip, #4]
1575:Drivers/STM32F4xx_HAL_Driver/Src/stm32f4xx_ll_usb.c ****   }
1576:Drivers/STM32F4xx_HAL_Driver/Src/stm32f4xx_ll_usb.c ****   else
1577:Drivers/STM32F4xx_HAL_Driver/Src/stm32f4xx_ll_usb.c ****   {
1578:Drivers/STM32F4xx_HAL_Driver/Src/stm32f4xx_ll_usb.c ****     return HAL_ERROR;
1579:Drivers/STM32F4xx_HAL_Driver/Src/stm32f4xx_ll_usb.c ****   }
1580:Drivers/STM32F4xx_HAL_Driver/Src/stm32f4xx_ll_usb.c **** 
1581:Drivers/STM32F4xx_HAL_Driver/Src/stm32f4xx_ll_usb.c ****   return HAL_OK;
 3768              		.loc 1 1581 10 view .LVU1227
 3769 002e 0020     		movs	r0, #0
 3770              	.LVL306:
 3771              		.loc 1 1581 10 view .LVU1228
 3772 0030 7047     		bx	lr
 3773              	.LVL307:
 3774              	.L242:
1570:Drivers/STM32F4xx_HAL_Driver/Src/stm32f4xx_ll_usb.c ****   }
 3775              		.loc 1 1570 5 is_stmt 1 view .LVU1229
1570:Drivers/STM32F4xx_HAL_Driver/Src/stm32f4xx_ll_usb.c ****   }
 3776              		.loc 1 1570 21 is_stmt 0 view .LVU1230
 3777 0032 4BF68033 		movw	r3, #48000
 3778 0036 CCF80430 		str	r3, [ip, #4]
 3779              		.loc 1 1581 10 view .LVU1231
 3780 003a 0020     		movs	r0, #0
 3781              	.LVL308:
 3782              		.loc 1 1581 10 view .LVU1232
 3783 003c 7047     		bx	lr
 3784              	.LVL309:
 3785              	.L241:
1578:Drivers/STM32F4xx_HAL_Driver/Src/stm32f4xx_ll_usb.c ****   }
 3786              		.loc 1 1578 12 view .LVU1233
 3787 003e 0120     		movs	r0, #1
 3788              	.LVL310:
1582:Drivers/STM32F4xx_HAL_Driver/Src/stm32f4xx_ll_usb.c **** }
 3789              		.loc 1 1582 1 view .LVU1234
 3790 0040 7047     		bx	lr
 3791              		.cfi_endproc
 3792              	.LFE170:
 3794              		.section	.text.USB_ResetPort,"ax",%progbits
 3795              		.align	1
 3796              		.global	USB_ResetPort
 3797              		.syntax unified
 3798              		.thumb
 3799              		.thumb_func
 3801              	USB_ResetPort:
 3802              	.LVL311:
 3803              	.LFB171:
1583:Drivers/STM32F4xx_HAL_Driver/Src/stm32f4xx_ll_usb.c **** 
1584:Drivers/STM32F4xx_HAL_Driver/Src/stm32f4xx_ll_usb.c **** /**
1585:Drivers/STM32F4xx_HAL_Driver/Src/stm32f4xx_ll_usb.c ****   * @brief  USB_OTG_ResetPort : Reset Host Port
1586:Drivers/STM32F4xx_HAL_Driver/Src/stm32f4xx_ll_usb.c ****   * @param  USBx  Selected device
1587:Drivers/STM32F4xx_HAL_Driver/Src/stm32f4xx_ll_usb.c ****   * @retval HAL status
1588:Drivers/STM32F4xx_HAL_Driver/Src/stm32f4xx_ll_usb.c ****   * @note (1)The application must wait at least 10 ms
ARM GAS  C:\Users\ashto\AppData\Local\Temp\ccdF3pho.s 			page 114


1589:Drivers/STM32F4xx_HAL_Driver/Src/stm32f4xx_ll_usb.c ****   *   before clearing the reset bit.
1590:Drivers/STM32F4xx_HAL_Driver/Src/stm32f4xx_ll_usb.c ****   */
1591:Drivers/STM32F4xx_HAL_Driver/Src/stm32f4xx_ll_usb.c **** HAL_StatusTypeDef USB_ResetPort(const USB_OTG_GlobalTypeDef *USBx)
1592:Drivers/STM32F4xx_HAL_Driver/Src/stm32f4xx_ll_usb.c **** {
 3804              		.loc 1 1592 1 is_stmt 1 view -0
 3805              		.cfi_startproc
 3806              		@ args = 0, pretend = 0, frame = 8
 3807              		@ frame_needed = 0, uses_anonymous_args = 0
 3808              		.loc 1 1592 1 is_stmt 0 view .LVU1236
 3809 0000 30B5     		push	{r4, r5, lr}
 3810              	.LCFI49:
 3811              		.cfi_def_cfa_offset 12
 3812              		.cfi_offset 4, -12
 3813              		.cfi_offset 5, -8
 3814              		.cfi_offset 14, -4
 3815 0002 83B0     		sub	sp, sp, #12
 3816              	.LCFI50:
 3817              		.cfi_def_cfa_offset 24
 3818 0004 0446     		mov	r4, r0
1593:Drivers/STM32F4xx_HAL_Driver/Src/stm32f4xx_ll_usb.c ****   uint32_t USBx_BASE = (uint32_t)USBx;
 3819              		.loc 1 1593 3 is_stmt 1 view .LVU1237
 3820              	.LVL312:
1594:Drivers/STM32F4xx_HAL_Driver/Src/stm32f4xx_ll_usb.c **** 
1595:Drivers/STM32F4xx_HAL_Driver/Src/stm32f4xx_ll_usb.c ****   __IO uint32_t hprt0 = 0U;
 3821              		.loc 1 1595 3 view .LVU1238
 3822              		.loc 1 1595 17 is_stmt 0 view .LVU1239
 3823 0006 0025     		movs	r5, #0
 3824 0008 0195     		str	r5, [sp, #4]
1596:Drivers/STM32F4xx_HAL_Driver/Src/stm32f4xx_ll_usb.c **** 
1597:Drivers/STM32F4xx_HAL_Driver/Src/stm32f4xx_ll_usb.c ****   hprt0 = USBx_HPRT0;
 3825              		.loc 1 1597 3 is_stmt 1 view .LVU1240
 3826              		.loc 1 1597 11 is_stmt 0 view .LVU1241
 3827 000a D0F84034 		ldr	r3, [r0, #1088]
 3828              		.loc 1 1597 9 view .LVU1242
 3829 000e 0193     		str	r3, [sp, #4]
1598:Drivers/STM32F4xx_HAL_Driver/Src/stm32f4xx_ll_usb.c **** 
1599:Drivers/STM32F4xx_HAL_Driver/Src/stm32f4xx_ll_usb.c ****   hprt0 &= ~(USB_OTG_HPRT_PENA | USB_OTG_HPRT_PCDET |
 3830              		.loc 1 1599 3 is_stmt 1 view .LVU1243
 3831              		.loc 1 1599 9 is_stmt 0 view .LVU1244
 3832 0010 019B     		ldr	r3, [sp, #4]
 3833 0012 23F02E03 		bic	r3, r3, #46
 3834 0016 0193     		str	r3, [sp, #4]
1600:Drivers/STM32F4xx_HAL_Driver/Src/stm32f4xx_ll_usb.c ****              USB_OTG_HPRT_PENCHNG | USB_OTG_HPRT_POCCHNG);
1601:Drivers/STM32F4xx_HAL_Driver/Src/stm32f4xx_ll_usb.c **** 
1602:Drivers/STM32F4xx_HAL_Driver/Src/stm32f4xx_ll_usb.c ****   USBx_HPRT0 = (USB_OTG_HPRT_PRST | hprt0);
 3835              		.loc 1 1602 3 is_stmt 1 view .LVU1245
 3836              		.loc 1 1602 35 is_stmt 0 view .LVU1246
 3837 0018 019B     		ldr	r3, [sp, #4]
 3838 001a 43F48073 		orr	r3, r3, #256
 3839              		.loc 1 1602 14 view .LVU1247
 3840 001e C0F84034 		str	r3, [r0, #1088]
1603:Drivers/STM32F4xx_HAL_Driver/Src/stm32f4xx_ll_usb.c ****   HAL_Delay(100U);                                 /* See Note #1 */
 3841              		.loc 1 1603 3 is_stmt 1 view .LVU1248
 3842 0022 6420     		movs	r0, #100
 3843              	.LVL313:
 3844              		.loc 1 1603 3 is_stmt 0 view .LVU1249
 3845 0024 FFF7FEFF 		bl	HAL_Delay
ARM GAS  C:\Users\ashto\AppData\Local\Temp\ccdF3pho.s 			page 115


 3846              	.LVL314:
1604:Drivers/STM32F4xx_HAL_Driver/Src/stm32f4xx_ll_usb.c ****   USBx_HPRT0 = ((~USB_OTG_HPRT_PRST) & hprt0);
 3847              		.loc 1 1604 3 is_stmt 1 view .LVU1250
 3848              		.loc 1 1604 38 is_stmt 0 view .LVU1251
 3849 0028 019B     		ldr	r3, [sp, #4]
 3850 002a 23F48073 		bic	r3, r3, #256
 3851              		.loc 1 1604 14 view .LVU1252
 3852 002e C4F84034 		str	r3, [r4, #1088]
1605:Drivers/STM32F4xx_HAL_Driver/Src/stm32f4xx_ll_usb.c ****   HAL_Delay(10U);
 3853              		.loc 1 1605 3 is_stmt 1 view .LVU1253
 3854 0032 0A20     		movs	r0, #10
 3855 0034 FFF7FEFF 		bl	HAL_Delay
 3856              	.LVL315:
1606:Drivers/STM32F4xx_HAL_Driver/Src/stm32f4xx_ll_usb.c **** 
1607:Drivers/STM32F4xx_HAL_Driver/Src/stm32f4xx_ll_usb.c ****   return HAL_OK;
 3857              		.loc 1 1607 3 view .LVU1254
1608:Drivers/STM32F4xx_HAL_Driver/Src/stm32f4xx_ll_usb.c **** }
 3858              		.loc 1 1608 1 is_stmt 0 view .LVU1255
 3859 0038 2846     		mov	r0, r5
 3860 003a 03B0     		add	sp, sp, #12
 3861              	.LCFI51:
 3862              		.cfi_def_cfa_offset 12
 3863              		@ sp needed
 3864 003c 30BD     		pop	{r4, r5, pc}
 3865              		.loc 1 1608 1 view .LVU1256
 3866              		.cfi_endproc
 3867              	.LFE171:
 3869              		.section	.text.USB_DriveVbus,"ax",%progbits
 3870              		.align	1
 3871              		.global	USB_DriveVbus
 3872              		.syntax unified
 3873              		.thumb
 3874              		.thumb_func
 3876              	USB_DriveVbus:
 3877              	.LVL316:
 3878              	.LFB172:
1609:Drivers/STM32F4xx_HAL_Driver/Src/stm32f4xx_ll_usb.c **** 
1610:Drivers/STM32F4xx_HAL_Driver/Src/stm32f4xx_ll_usb.c **** /**
1611:Drivers/STM32F4xx_HAL_Driver/Src/stm32f4xx_ll_usb.c ****   * @brief  USB_DriveVbus : activate or de-activate vbus
1612:Drivers/STM32F4xx_HAL_Driver/Src/stm32f4xx_ll_usb.c ****   * @param  state  VBUS state
1613:Drivers/STM32F4xx_HAL_Driver/Src/stm32f4xx_ll_usb.c ****   *          This parameter can be one of these values:
1614:Drivers/STM32F4xx_HAL_Driver/Src/stm32f4xx_ll_usb.c ****   *           0 : Deactivate VBUS
1615:Drivers/STM32F4xx_HAL_Driver/Src/stm32f4xx_ll_usb.c ****   *           1 : Activate VBUS
1616:Drivers/STM32F4xx_HAL_Driver/Src/stm32f4xx_ll_usb.c ****   * @retval HAL status
1617:Drivers/STM32F4xx_HAL_Driver/Src/stm32f4xx_ll_usb.c ****   */
1618:Drivers/STM32F4xx_HAL_Driver/Src/stm32f4xx_ll_usb.c **** HAL_StatusTypeDef USB_DriveVbus(const USB_OTG_GlobalTypeDef *USBx, uint8_t state)
1619:Drivers/STM32F4xx_HAL_Driver/Src/stm32f4xx_ll_usb.c **** {
 3879              		.loc 1 1619 1 is_stmt 1 view -0
 3880              		.cfi_startproc
 3881              		@ args = 0, pretend = 0, frame = 8
 3882              		@ frame_needed = 0, uses_anonymous_args = 0
 3883              		@ link register save eliminated.
 3884              		.loc 1 1619 1 is_stmt 0 view .LVU1258
 3885 0000 82B0     		sub	sp, sp, #8
 3886              	.LCFI52:
 3887              		.cfi_def_cfa_offset 8
1620:Drivers/STM32F4xx_HAL_Driver/Src/stm32f4xx_ll_usb.c ****   uint32_t USBx_BASE = (uint32_t)USBx;
ARM GAS  C:\Users\ashto\AppData\Local\Temp\ccdF3pho.s 			page 116


 3888              		.loc 1 1620 3 is_stmt 1 view .LVU1259
 3889              	.LVL317:
1621:Drivers/STM32F4xx_HAL_Driver/Src/stm32f4xx_ll_usb.c ****   __IO uint32_t hprt0 = 0U;
 3890              		.loc 1 1621 3 view .LVU1260
 3891              		.loc 1 1621 17 is_stmt 0 view .LVU1261
 3892 0002 0023     		movs	r3, #0
 3893 0004 0193     		str	r3, [sp, #4]
1622:Drivers/STM32F4xx_HAL_Driver/Src/stm32f4xx_ll_usb.c **** 
1623:Drivers/STM32F4xx_HAL_Driver/Src/stm32f4xx_ll_usb.c ****   hprt0 = USBx_HPRT0;
 3894              		.loc 1 1623 3 is_stmt 1 view .LVU1262
 3895              		.loc 1 1623 11 is_stmt 0 view .LVU1263
 3896 0006 D0F84034 		ldr	r3, [r0, #1088]
 3897              		.loc 1 1623 9 view .LVU1264
 3898 000a 0193     		str	r3, [sp, #4]
1624:Drivers/STM32F4xx_HAL_Driver/Src/stm32f4xx_ll_usb.c **** 
1625:Drivers/STM32F4xx_HAL_Driver/Src/stm32f4xx_ll_usb.c ****   hprt0 &= ~(USB_OTG_HPRT_PENA | USB_OTG_HPRT_PCDET |
 3899              		.loc 1 1625 3 is_stmt 1 view .LVU1265
 3900              		.loc 1 1625 9 is_stmt 0 view .LVU1266
 3901 000c 019B     		ldr	r3, [sp, #4]
 3902 000e 23F02E03 		bic	r3, r3, #46
 3903 0012 0193     		str	r3, [sp, #4]
1626:Drivers/STM32F4xx_HAL_Driver/Src/stm32f4xx_ll_usb.c ****              USB_OTG_HPRT_PENCHNG | USB_OTG_HPRT_POCCHNG);
1627:Drivers/STM32F4xx_HAL_Driver/Src/stm32f4xx_ll_usb.c **** 
1628:Drivers/STM32F4xx_HAL_Driver/Src/stm32f4xx_ll_usb.c ****   if (((hprt0 & USB_OTG_HPRT_PPWR) == 0U) && (state == 1U))
 3904              		.loc 1 1628 3 is_stmt 1 view .LVU1267
 3905              		.loc 1 1628 15 is_stmt 0 view .LVU1268
 3906 0014 019B     		ldr	r3, [sp, #4]
 3907              		.loc 1 1628 6 view .LVU1269
 3908 0016 13F4805F 		tst	r3, #4096
 3909 001a 01D1     		bne	.L246
 3910              		.loc 1 1628 43 discriminator 1 view .LVU1270
 3911 001c 0129     		cmp	r1, #1
 3912 001e 0CD0     		beq	.L249
 3913              	.L246:
1629:Drivers/STM32F4xx_HAL_Driver/Src/stm32f4xx_ll_usb.c ****   {
1630:Drivers/STM32F4xx_HAL_Driver/Src/stm32f4xx_ll_usb.c ****     USBx_HPRT0 = (USB_OTG_HPRT_PPWR | hprt0);
1631:Drivers/STM32F4xx_HAL_Driver/Src/stm32f4xx_ll_usb.c ****   }
1632:Drivers/STM32F4xx_HAL_Driver/Src/stm32f4xx_ll_usb.c ****   if (((hprt0 & USB_OTG_HPRT_PPWR) == USB_OTG_HPRT_PPWR) && (state == 0U))
 3914              		.loc 1 1632 3 is_stmt 1 view .LVU1271
 3915              		.loc 1 1632 15 is_stmt 0 view .LVU1272
 3916 0020 019B     		ldr	r3, [sp, #4]
 3917              		.loc 1 1632 6 view .LVU1273
 3918 0022 13F4805F 		tst	r3, #4096
 3919 0026 05D0     		beq	.L247
 3920              		.loc 1 1632 58 discriminator 1 view .LVU1274
 3921 0028 21B9     		cbnz	r1, .L247
1633:Drivers/STM32F4xx_HAL_Driver/Src/stm32f4xx_ll_usb.c ****   {
1634:Drivers/STM32F4xx_HAL_Driver/Src/stm32f4xx_ll_usb.c ****     USBx_HPRT0 = ((~USB_OTG_HPRT_PPWR) & hprt0);
 3922              		.loc 1 1634 5 is_stmt 1 view .LVU1275
 3923              		.loc 1 1634 40 is_stmt 0 view .LVU1276
 3924 002a 019B     		ldr	r3, [sp, #4]
 3925 002c 23F48053 		bic	r3, r3, #4096
 3926              		.loc 1 1634 16 view .LVU1277
 3927 0030 C0F84034 		str	r3, [r0, #1088]
 3928              	.L247:
1635:Drivers/STM32F4xx_HAL_Driver/Src/stm32f4xx_ll_usb.c ****   }
1636:Drivers/STM32F4xx_HAL_Driver/Src/stm32f4xx_ll_usb.c ****   return HAL_OK;
ARM GAS  C:\Users\ashto\AppData\Local\Temp\ccdF3pho.s 			page 117


 3929              		.loc 1 1636 3 is_stmt 1 view .LVU1278
1637:Drivers/STM32F4xx_HAL_Driver/Src/stm32f4xx_ll_usb.c **** }
 3930              		.loc 1 1637 1 is_stmt 0 view .LVU1279
 3931 0034 0020     		movs	r0, #0
 3932              	.LVL318:
 3933              		.loc 1 1637 1 view .LVU1280
 3934 0036 02B0     		add	sp, sp, #8
 3935              	.LCFI53:
 3936              		.cfi_remember_state
 3937              		.cfi_def_cfa_offset 0
 3938              		@ sp needed
 3939 0038 7047     		bx	lr
 3940              	.LVL319:
 3941              	.L249:
 3942              	.LCFI54:
 3943              		.cfi_restore_state
1630:Drivers/STM32F4xx_HAL_Driver/Src/stm32f4xx_ll_usb.c ****   }
 3944              		.loc 1 1630 5 is_stmt 1 view .LVU1281
1630:Drivers/STM32F4xx_HAL_Driver/Src/stm32f4xx_ll_usb.c ****   }
 3945              		.loc 1 1630 37 is_stmt 0 view .LVU1282
 3946 003a 019B     		ldr	r3, [sp, #4]
 3947 003c 43F48053 		orr	r3, r3, #4096
1630:Drivers/STM32F4xx_HAL_Driver/Src/stm32f4xx_ll_usb.c ****   }
 3948              		.loc 1 1630 16 view .LVU1283
 3949 0040 C0F84034 		str	r3, [r0, #1088]
 3950 0044 ECE7     		b	.L246
 3951              		.cfi_endproc
 3952              	.LFE172:
 3954              		.section	.text.USB_GetHostSpeed,"ax",%progbits
 3955              		.align	1
 3956              		.global	USB_GetHostSpeed
 3957              		.syntax unified
 3958              		.thumb
 3959              		.thumb_func
 3961              	USB_GetHostSpeed:
 3962              	.LVL320:
 3963              	.LFB173:
1638:Drivers/STM32F4xx_HAL_Driver/Src/stm32f4xx_ll_usb.c **** 
1639:Drivers/STM32F4xx_HAL_Driver/Src/stm32f4xx_ll_usb.c **** /**
1640:Drivers/STM32F4xx_HAL_Driver/Src/stm32f4xx_ll_usb.c ****   * @brief  Return Host Core speed
1641:Drivers/STM32F4xx_HAL_Driver/Src/stm32f4xx_ll_usb.c ****   * @param  USBx  Selected device
1642:Drivers/STM32F4xx_HAL_Driver/Src/stm32f4xx_ll_usb.c ****   * @retval speed : Host speed
1643:Drivers/STM32F4xx_HAL_Driver/Src/stm32f4xx_ll_usb.c ****   *          This parameter can be one of these values:
1644:Drivers/STM32F4xx_HAL_Driver/Src/stm32f4xx_ll_usb.c ****   *            @arg HCD_SPEED_HIGH: High speed mode
1645:Drivers/STM32F4xx_HAL_Driver/Src/stm32f4xx_ll_usb.c ****   *            @arg HCD_SPEED_FULL: Full speed mode
1646:Drivers/STM32F4xx_HAL_Driver/Src/stm32f4xx_ll_usb.c ****   *            @arg HCD_SPEED_LOW: Low speed mode
1647:Drivers/STM32F4xx_HAL_Driver/Src/stm32f4xx_ll_usb.c ****   */
1648:Drivers/STM32F4xx_HAL_Driver/Src/stm32f4xx_ll_usb.c **** uint32_t USB_GetHostSpeed(USB_OTG_GlobalTypeDef const *USBx)
1649:Drivers/STM32F4xx_HAL_Driver/Src/stm32f4xx_ll_usb.c **** {
 3964              		.loc 1 1649 1 is_stmt 1 view -0
 3965              		.cfi_startproc
 3966              		@ args = 0, pretend = 0, frame = 8
 3967              		@ frame_needed = 0, uses_anonymous_args = 0
 3968              		@ link register save eliminated.
 3969              		.loc 1 1649 1 is_stmt 0 view .LVU1285
 3970 0000 82B0     		sub	sp, sp, #8
 3971              	.LCFI55:
ARM GAS  C:\Users\ashto\AppData\Local\Temp\ccdF3pho.s 			page 118


 3972              		.cfi_def_cfa_offset 8
1650:Drivers/STM32F4xx_HAL_Driver/Src/stm32f4xx_ll_usb.c ****   uint32_t USBx_BASE = (uint32_t)USBx;
 3973              		.loc 1 1650 3 is_stmt 1 view .LVU1286
 3974              	.LVL321:
1651:Drivers/STM32F4xx_HAL_Driver/Src/stm32f4xx_ll_usb.c ****   __IO uint32_t hprt0 = 0U;
 3975              		.loc 1 1651 3 view .LVU1287
 3976              		.loc 1 1651 17 is_stmt 0 view .LVU1288
 3977 0002 0023     		movs	r3, #0
 3978 0004 0193     		str	r3, [sp, #4]
1652:Drivers/STM32F4xx_HAL_Driver/Src/stm32f4xx_ll_usb.c **** 
1653:Drivers/STM32F4xx_HAL_Driver/Src/stm32f4xx_ll_usb.c ****   hprt0 = USBx_HPRT0;
 3979              		.loc 1 1653 3 is_stmt 1 view .LVU1289
 3980              		.loc 1 1653 11 is_stmt 0 view .LVU1290
 3981 0006 D0F84034 		ldr	r3, [r0, #1088]
 3982              		.loc 1 1653 9 view .LVU1291
 3983 000a 0193     		str	r3, [sp, #4]
1654:Drivers/STM32F4xx_HAL_Driver/Src/stm32f4xx_ll_usb.c ****   return ((hprt0 & USB_OTG_HPRT_PSPD) >> 17);
 3984              		.loc 1 1654 3 is_stmt 1 view .LVU1292
 3985              		.loc 1 1654 39 is_stmt 0 view .LVU1293
 3986 000c 0198     		ldr	r0, [sp, #4]
 3987              	.LVL322:
1655:Drivers/STM32F4xx_HAL_Driver/Src/stm32f4xx_ll_usb.c **** }
 3988              		.loc 1 1655 1 view .LVU1294
 3989 000e C0F34140 		ubfx	r0, r0, #17, #2
 3990 0012 02B0     		add	sp, sp, #8
 3991              	.LCFI56:
 3992              		.cfi_def_cfa_offset 0
 3993              		@ sp needed
 3994 0014 7047     		bx	lr
 3995              		.cfi_endproc
 3996              	.LFE173:
 3998              		.section	.text.USB_GetCurrentFrame,"ax",%progbits
 3999              		.align	1
 4000              		.global	USB_GetCurrentFrame
 4001              		.syntax unified
 4002              		.thumb
 4003              		.thumb_func
 4005              	USB_GetCurrentFrame:
 4006              	.LVL323:
 4007              	.LFB174:
1656:Drivers/STM32F4xx_HAL_Driver/Src/stm32f4xx_ll_usb.c **** 
1657:Drivers/STM32F4xx_HAL_Driver/Src/stm32f4xx_ll_usb.c **** /**
1658:Drivers/STM32F4xx_HAL_Driver/Src/stm32f4xx_ll_usb.c ****   * @brief  Return Host Current Frame number
1659:Drivers/STM32F4xx_HAL_Driver/Src/stm32f4xx_ll_usb.c ****   * @param  USBx  Selected device
1660:Drivers/STM32F4xx_HAL_Driver/Src/stm32f4xx_ll_usb.c ****   * @retval current frame number
1661:Drivers/STM32F4xx_HAL_Driver/Src/stm32f4xx_ll_usb.c ****   */
1662:Drivers/STM32F4xx_HAL_Driver/Src/stm32f4xx_ll_usb.c **** uint32_t USB_GetCurrentFrame(USB_OTG_GlobalTypeDef const *USBx)
1663:Drivers/STM32F4xx_HAL_Driver/Src/stm32f4xx_ll_usb.c **** {
 4008              		.loc 1 1663 1 is_stmt 1 view -0
 4009              		.cfi_startproc
 4010              		@ args = 0, pretend = 0, frame = 0
 4011              		@ frame_needed = 0, uses_anonymous_args = 0
 4012              		@ link register save eliminated.
1664:Drivers/STM32F4xx_HAL_Driver/Src/stm32f4xx_ll_usb.c ****   uint32_t USBx_BASE = (uint32_t)USBx;
 4013              		.loc 1 1664 3 view .LVU1296
1665:Drivers/STM32F4xx_HAL_Driver/Src/stm32f4xx_ll_usb.c **** 
1666:Drivers/STM32F4xx_HAL_Driver/Src/stm32f4xx_ll_usb.c ****   return (USBx_HOST->HFNUM & USB_OTG_HFNUM_FRNUM);
ARM GAS  C:\Users\ashto\AppData\Local\Temp\ccdF3pho.s 			page 119


 4014              		.loc 1 1666 3 view .LVU1297
 4015              		.loc 1 1666 11 is_stmt 0 view .LVU1298
 4016 0000 00F58060 		add	r0, r0, #1024
 4017              	.LVL324:
 4018              		.loc 1 1666 20 view .LVU1299
 4019 0004 8068     		ldr	r0, [r0, #8]
 4020              	.LVL325:
1667:Drivers/STM32F4xx_HAL_Driver/Src/stm32f4xx_ll_usb.c **** }
 4021              		.loc 1 1667 1 view .LVU1300
 4022 0006 80B2     		uxth	r0, r0
 4023 0008 7047     		bx	lr
 4024              		.cfi_endproc
 4025              	.LFE174:
 4027              		.section	.text.USB_HC_Init,"ax",%progbits
 4028              		.align	1
 4029              		.global	USB_HC_Init
 4030              		.syntax unified
 4031              		.thumb
 4032              		.thumb_func
 4034              	USB_HC_Init:
 4035              	.LVL326:
 4036              	.LFB175:
1668:Drivers/STM32F4xx_HAL_Driver/Src/stm32f4xx_ll_usb.c **** 
1669:Drivers/STM32F4xx_HAL_Driver/Src/stm32f4xx_ll_usb.c **** /**
1670:Drivers/STM32F4xx_HAL_Driver/Src/stm32f4xx_ll_usb.c ****   * @brief  Initialize a host channel
1671:Drivers/STM32F4xx_HAL_Driver/Src/stm32f4xx_ll_usb.c ****   * @param  USBx  Selected device
1672:Drivers/STM32F4xx_HAL_Driver/Src/stm32f4xx_ll_usb.c ****   * @param  ch_num  Channel number
1673:Drivers/STM32F4xx_HAL_Driver/Src/stm32f4xx_ll_usb.c ****   *         This parameter can be a value from 1 to 15
1674:Drivers/STM32F4xx_HAL_Driver/Src/stm32f4xx_ll_usb.c ****   * @param  epnum  Endpoint number
1675:Drivers/STM32F4xx_HAL_Driver/Src/stm32f4xx_ll_usb.c ****   *          This parameter can be a value from 1 to 15
1676:Drivers/STM32F4xx_HAL_Driver/Src/stm32f4xx_ll_usb.c ****   * @param  dev_address  Current device address
1677:Drivers/STM32F4xx_HAL_Driver/Src/stm32f4xx_ll_usb.c ****   *          This parameter can be a value from 0 to 255
1678:Drivers/STM32F4xx_HAL_Driver/Src/stm32f4xx_ll_usb.c ****   * @param  speed  Current device speed
1679:Drivers/STM32F4xx_HAL_Driver/Src/stm32f4xx_ll_usb.c ****   *          This parameter can be one of these values:
1680:Drivers/STM32F4xx_HAL_Driver/Src/stm32f4xx_ll_usb.c ****   *            @arg USB_OTG_SPEED_HIGH: High speed mode
1681:Drivers/STM32F4xx_HAL_Driver/Src/stm32f4xx_ll_usb.c ****   *            @arg USB_OTG_SPEED_FULL: Full speed mode
1682:Drivers/STM32F4xx_HAL_Driver/Src/stm32f4xx_ll_usb.c ****   *            @arg USB_OTG_SPEED_LOW: Low speed mode
1683:Drivers/STM32F4xx_HAL_Driver/Src/stm32f4xx_ll_usb.c ****   * @param  ep_type  Endpoint Type
1684:Drivers/STM32F4xx_HAL_Driver/Src/stm32f4xx_ll_usb.c ****   *          This parameter can be one of these values:
1685:Drivers/STM32F4xx_HAL_Driver/Src/stm32f4xx_ll_usb.c ****   *            @arg EP_TYPE_CTRL: Control type
1686:Drivers/STM32F4xx_HAL_Driver/Src/stm32f4xx_ll_usb.c ****   *            @arg EP_TYPE_ISOC: Isochronous type
1687:Drivers/STM32F4xx_HAL_Driver/Src/stm32f4xx_ll_usb.c ****   *            @arg EP_TYPE_BULK: Bulk type
1688:Drivers/STM32F4xx_HAL_Driver/Src/stm32f4xx_ll_usb.c ****   *            @arg EP_TYPE_INTR: Interrupt type
1689:Drivers/STM32F4xx_HAL_Driver/Src/stm32f4xx_ll_usb.c ****   * @param  mps  Max Packet Size
1690:Drivers/STM32F4xx_HAL_Driver/Src/stm32f4xx_ll_usb.c ****   *          This parameter can be a value from 0 to 32K
1691:Drivers/STM32F4xx_HAL_Driver/Src/stm32f4xx_ll_usb.c ****   * @retval HAL state
1692:Drivers/STM32F4xx_HAL_Driver/Src/stm32f4xx_ll_usb.c ****   */
1693:Drivers/STM32F4xx_HAL_Driver/Src/stm32f4xx_ll_usb.c **** HAL_StatusTypeDef USB_HC_Init(USB_OTG_GlobalTypeDef *USBx, uint8_t ch_num,
1694:Drivers/STM32F4xx_HAL_Driver/Src/stm32f4xx_ll_usb.c ****                               uint8_t epnum, uint8_t dev_address, uint8_t speed,
1695:Drivers/STM32F4xx_HAL_Driver/Src/stm32f4xx_ll_usb.c ****                               uint8_t ep_type, uint16_t mps)
1696:Drivers/STM32F4xx_HAL_Driver/Src/stm32f4xx_ll_usb.c **** {
 4037              		.loc 1 1696 1 is_stmt 1 view -0
 4038              		.cfi_startproc
 4039              		@ args = 12, pretend = 0, frame = 0
 4040              		@ frame_needed = 0, uses_anonymous_args = 0
 4041              		.loc 1 1696 1 is_stmt 0 view .LVU1302
 4042 0000 2DE9F843 		push	{r3, r4, r5, r6, r7, r8, r9, lr}
ARM GAS  C:\Users\ashto\AppData\Local\Temp\ccdF3pho.s 			page 120


 4043              	.LCFI57:
 4044              		.cfi_def_cfa_offset 32
 4045              		.cfi_offset 3, -32
 4046              		.cfi_offset 4, -28
 4047              		.cfi_offset 5, -24
 4048              		.cfi_offset 6, -20
 4049              		.cfi_offset 7, -16
 4050              		.cfi_offset 8, -12
 4051              		.cfi_offset 9, -8
 4052              		.cfi_offset 14, -4
 4053 0004 9146     		mov	r9, r2
 4054 0006 1C46     		mov	r4, r3
 4055 0008 9DF82450 		ldrb	r5, [sp, #36]	@ zero_extendqisi2
1697:Drivers/STM32F4xx_HAL_Driver/Src/stm32f4xx_ll_usb.c ****   HAL_StatusTypeDef ret = HAL_OK;
 4056              		.loc 1 1697 3 is_stmt 1 view .LVU1303
 4057              	.LVL327:
1698:Drivers/STM32F4xx_HAL_Driver/Src/stm32f4xx_ll_usb.c ****   uint32_t USBx_BASE = (uint32_t)USBx;
 4058              		.loc 1 1698 3 view .LVU1304
1699:Drivers/STM32F4xx_HAL_Driver/Src/stm32f4xx_ll_usb.c ****   uint32_t HCcharEpDir;
 4059              		.loc 1 1699 3 view .LVU1305
1700:Drivers/STM32F4xx_HAL_Driver/Src/stm32f4xx_ll_usb.c ****   uint32_t HCcharLowSpeed;
 4060              		.loc 1 1700 3 view .LVU1306
1701:Drivers/STM32F4xx_HAL_Driver/Src/stm32f4xx_ll_usb.c ****   uint32_t HostCoreSpeed;
 4061              		.loc 1 1701 3 view .LVU1307
1702:Drivers/STM32F4xx_HAL_Driver/Src/stm32f4xx_ll_usb.c **** 
1703:Drivers/STM32F4xx_HAL_Driver/Src/stm32f4xx_ll_usb.c ****   /* Clear old interrupt conditions for this host channel. */
1704:Drivers/STM32F4xx_HAL_Driver/Src/stm32f4xx_ll_usb.c ****   USBx_HC((uint32_t)ch_num)->HCINT = CLEAR_INTERRUPT_MASK;
 4062              		.loc 1 1704 3 view .LVU1308
 4063 000c 00EB4116 		add	r6, r0, r1, lsl #5
 4064 0010 06F5A063 		add	r3, r6, #1280
 4065              	.LVL328:
 4066              		.loc 1 1704 36 is_stmt 0 view .LVU1309
 4067 0014 4FF0FF32 		mov	r2, #-1
 4068              	.LVL329:
 4069              		.loc 1 1704 36 view .LVU1310
 4070 0018 9A60     		str	r2, [r3, #8]
1705:Drivers/STM32F4xx_HAL_Driver/Src/stm32f4xx_ll_usb.c **** 
1706:Drivers/STM32F4xx_HAL_Driver/Src/stm32f4xx_ll_usb.c ****   /* Enable channel interrupts required for this transfer. */
1707:Drivers/STM32F4xx_HAL_Driver/Src/stm32f4xx_ll_usb.c ****   switch (ep_type)
 4071              		.loc 1 1707 3 is_stmt 1 view .LVU1311
 4072 001a 032D     		cmp	r5, #3
 4073 001c 7BD8     		bhi	.L264
 4074 001e DFE805F0 		tbb	[pc, r5]
 4075              	.L256:
 4076 0022 02       		.byte	(.L257-.L256)/2
 4077 0023 6C       		.byte	(.L258-.L256)/2
 4078 0024 02       		.byte	(.L257-.L256)/2
 4079 0025 19       		.byte	(.L255-.L256)/2
 4080              		.p2align 1
 4081              	.L257:
1708:Drivers/STM32F4xx_HAL_Driver/Src/stm32f4xx_ll_usb.c ****   {
1709:Drivers/STM32F4xx_HAL_Driver/Src/stm32f4xx_ll_usb.c ****     case EP_TYPE_CTRL:
1710:Drivers/STM32F4xx_HAL_Driver/Src/stm32f4xx_ll_usb.c ****     case EP_TYPE_BULK:
1711:Drivers/STM32F4xx_HAL_Driver/Src/stm32f4xx_ll_usb.c ****       USBx_HC((uint32_t)ch_num)->HCINTMSK = USB_OTG_HCINTMSK_XFRCM  |
 4082              		.loc 1 1711 7 view .LVU1312
 4083              		.loc 1 1711 43 is_stmt 0 view .LVU1313
 4084 0026 40F29D42 		movw	r2, #1181
ARM GAS  C:\Users\ashto\AppData\Local\Temp\ccdF3pho.s 			page 121


 4085 002a DA60     		str	r2, [r3, #12]
1712:Drivers/STM32F4xx_HAL_Driver/Src/stm32f4xx_ll_usb.c ****                                             USB_OTG_HCINTMSK_STALLM |
1713:Drivers/STM32F4xx_HAL_Driver/Src/stm32f4xx_ll_usb.c ****                                             USB_OTG_HCINTMSK_TXERRM |
1714:Drivers/STM32F4xx_HAL_Driver/Src/stm32f4xx_ll_usb.c ****                                             USB_OTG_HCINTMSK_DTERRM |
1715:Drivers/STM32F4xx_HAL_Driver/Src/stm32f4xx_ll_usb.c ****                                             USB_OTG_HCINTMSK_AHBERR |
1716:Drivers/STM32F4xx_HAL_Driver/Src/stm32f4xx_ll_usb.c ****                                             USB_OTG_HCINTMSK_NAKM;
1717:Drivers/STM32F4xx_HAL_Driver/Src/stm32f4xx_ll_usb.c **** 
1718:Drivers/STM32F4xx_HAL_Driver/Src/stm32f4xx_ll_usb.c ****       if ((epnum & 0x80U) == 0x80U)
 4086              		.loc 1 1718 7 is_stmt 1 view .LVU1314
 4087              		.loc 1 1718 10 is_stmt 0 view .LVU1315
 4088 002c 19F0800F 		tst	r9, #128
 4089 0030 04D1     		bne	.L272
1719:Drivers/STM32F4xx_HAL_Driver/Src/stm32f4xx_ll_usb.c ****       {
1720:Drivers/STM32F4xx_HAL_Driver/Src/stm32f4xx_ll_usb.c ****         USBx_HC((uint32_t)ch_num)->HCINTMSK |= USB_OTG_HCINTMSK_BBERRM;
1721:Drivers/STM32F4xx_HAL_Driver/Src/stm32f4xx_ll_usb.c ****       }
1722:Drivers/STM32F4xx_HAL_Driver/Src/stm32f4xx_ll_usb.c ****       else
1723:Drivers/STM32F4xx_HAL_Driver/Src/stm32f4xx_ll_usb.c ****       {
1724:Drivers/STM32F4xx_HAL_Driver/Src/stm32f4xx_ll_usb.c **** #if defined (USB_OTG_HS)
1725:Drivers/STM32F4xx_HAL_Driver/Src/stm32f4xx_ll_usb.c ****         if (USBx == USB_OTG_HS)
 4090              		.loc 1 1725 9 is_stmt 1 view .LVU1316
 4091              		.loc 1 1725 12 is_stmt 0 view .LVU1317
 4092 0032 3F4A     		ldr	r2, .L279
 4093 0034 9042     		cmp	r0, r2
 4094 0036 07D0     		beq	.L273
1697:Drivers/STM32F4xx_HAL_Driver/Src/stm32f4xx_ll_usb.c ****   uint32_t USBx_BASE = (uint32_t)USBx;
 4095              		.loc 1 1697 21 view .LVU1318
 4096 0038 0027     		movs	r7, #0
 4097 003a 12E0     		b	.L254
 4098              	.L272:
1720:Drivers/STM32F4xx_HAL_Driver/Src/stm32f4xx_ll_usb.c ****       }
 4099              		.loc 1 1720 9 is_stmt 1 view .LVU1319
1720:Drivers/STM32F4xx_HAL_Driver/Src/stm32f4xx_ll_usb.c ****       }
 4100              		.loc 1 1720 45 is_stmt 0 view .LVU1320
 4101 003c DA68     		ldr	r2, [r3, #12]
 4102 003e 42F48072 		orr	r2, r2, #256
 4103 0042 DA60     		str	r2, [r3, #12]
1697:Drivers/STM32F4xx_HAL_Driver/Src/stm32f4xx_ll_usb.c ****   uint32_t USBx_BASE = (uint32_t)USBx;
 4104              		.loc 1 1697 21 view .LVU1321
 4105 0044 0027     		movs	r7, #0
 4106 0046 0CE0     		b	.L254
 4107              	.L273:
1726:Drivers/STM32F4xx_HAL_Driver/Src/stm32f4xx_ll_usb.c ****         {
1727:Drivers/STM32F4xx_HAL_Driver/Src/stm32f4xx_ll_usb.c ****           USBx_HC((uint32_t)ch_num)->HCINTMSK |= USB_OTG_HCINTMSK_NYET |
 4108              		.loc 1 1727 11 is_stmt 1 view .LVU1322
 4109              		.loc 1 1727 47 is_stmt 0 view .LVU1323
 4110 0048 DA68     		ldr	r2, [r3, #12]
 4111 004a 42F06002 		orr	r2, r2, #96
 4112 004e DA60     		str	r2, [r3, #12]
1697:Drivers/STM32F4xx_HAL_Driver/Src/stm32f4xx_ll_usb.c ****   uint32_t USBx_BASE = (uint32_t)USBx;
 4113              		.loc 1 1697 21 view .LVU1324
 4114 0050 0027     		movs	r7, #0
 4115 0052 06E0     		b	.L254
 4116              	.L255:
1728:Drivers/STM32F4xx_HAL_Driver/Src/stm32f4xx_ll_usb.c ****                                                  USB_OTG_HCINTMSK_ACKM;
1729:Drivers/STM32F4xx_HAL_Driver/Src/stm32f4xx_ll_usb.c ****         }
1730:Drivers/STM32F4xx_HAL_Driver/Src/stm32f4xx_ll_usb.c **** #endif /* defined (USB_OTG_HS) */
1731:Drivers/STM32F4xx_HAL_Driver/Src/stm32f4xx_ll_usb.c ****       }
ARM GAS  C:\Users\ashto\AppData\Local\Temp\ccdF3pho.s 			page 122


1732:Drivers/STM32F4xx_HAL_Driver/Src/stm32f4xx_ll_usb.c ****       break;
1733:Drivers/STM32F4xx_HAL_Driver/Src/stm32f4xx_ll_usb.c **** 
1734:Drivers/STM32F4xx_HAL_Driver/Src/stm32f4xx_ll_usb.c ****     case EP_TYPE_INTR:
1735:Drivers/STM32F4xx_HAL_Driver/Src/stm32f4xx_ll_usb.c ****       USBx_HC((uint32_t)ch_num)->HCINTMSK = USB_OTG_HCINTMSK_XFRCM  |
 4117              		.loc 1 1735 7 is_stmt 1 view .LVU1325
 4118              		.loc 1 1735 43 is_stmt 0 view .LVU1326
 4119 0054 40F29D62 		movw	r2, #1693
 4120 0058 DA60     		str	r2, [r3, #12]
1736:Drivers/STM32F4xx_HAL_Driver/Src/stm32f4xx_ll_usb.c ****                                             USB_OTG_HCINTMSK_STALLM |
1737:Drivers/STM32F4xx_HAL_Driver/Src/stm32f4xx_ll_usb.c ****                                             USB_OTG_HCINTMSK_TXERRM |
1738:Drivers/STM32F4xx_HAL_Driver/Src/stm32f4xx_ll_usb.c ****                                             USB_OTG_HCINTMSK_DTERRM |
1739:Drivers/STM32F4xx_HAL_Driver/Src/stm32f4xx_ll_usb.c ****                                             USB_OTG_HCINTMSK_NAKM   |
1740:Drivers/STM32F4xx_HAL_Driver/Src/stm32f4xx_ll_usb.c ****                                             USB_OTG_HCINTMSK_AHBERR |
1741:Drivers/STM32F4xx_HAL_Driver/Src/stm32f4xx_ll_usb.c ****                                             USB_OTG_HCINTMSK_FRMORM;
1742:Drivers/STM32F4xx_HAL_Driver/Src/stm32f4xx_ll_usb.c **** 
1743:Drivers/STM32F4xx_HAL_Driver/Src/stm32f4xx_ll_usb.c ****       if ((epnum & 0x80U) == 0x80U)
 4121              		.loc 1 1743 7 is_stmt 1 view .LVU1327
 4122              		.loc 1 1743 10 is_stmt 0 view .LVU1328
 4123 005a 19F0800F 		tst	r9, #128
 4124 005e 46D1     		bne	.L274
1697:Drivers/STM32F4xx_HAL_Driver/Src/stm32f4xx_ll_usb.c ****   uint32_t USBx_BASE = (uint32_t)USBx;
 4125              		.loc 1 1697 21 view .LVU1329
 4126 0060 0027     		movs	r7, #0
 4127              	.L254:
 4128              	.LVL330:
1744:Drivers/STM32F4xx_HAL_Driver/Src/stm32f4xx_ll_usb.c ****       {
1745:Drivers/STM32F4xx_HAL_Driver/Src/stm32f4xx_ll_usb.c ****         USBx_HC((uint32_t)ch_num)->HCINTMSK |= USB_OTG_HCINTMSK_BBERRM;
1746:Drivers/STM32F4xx_HAL_Driver/Src/stm32f4xx_ll_usb.c ****       }
1747:Drivers/STM32F4xx_HAL_Driver/Src/stm32f4xx_ll_usb.c **** 
1748:Drivers/STM32F4xx_HAL_Driver/Src/stm32f4xx_ll_usb.c ****       break;
1749:Drivers/STM32F4xx_HAL_Driver/Src/stm32f4xx_ll_usb.c **** 
1750:Drivers/STM32F4xx_HAL_Driver/Src/stm32f4xx_ll_usb.c ****     case EP_TYPE_ISOC:
1751:Drivers/STM32F4xx_HAL_Driver/Src/stm32f4xx_ll_usb.c ****       USBx_HC((uint32_t)ch_num)->HCINTMSK = USB_OTG_HCINTMSK_XFRCM  |
1752:Drivers/STM32F4xx_HAL_Driver/Src/stm32f4xx_ll_usb.c ****                                             USB_OTG_HCINTMSK_ACKM   |
1753:Drivers/STM32F4xx_HAL_Driver/Src/stm32f4xx_ll_usb.c ****                                             USB_OTG_HCINTMSK_AHBERR |
1754:Drivers/STM32F4xx_HAL_Driver/Src/stm32f4xx_ll_usb.c ****                                             USB_OTG_HCINTMSK_FRMORM;
1755:Drivers/STM32F4xx_HAL_Driver/Src/stm32f4xx_ll_usb.c **** 
1756:Drivers/STM32F4xx_HAL_Driver/Src/stm32f4xx_ll_usb.c ****       if ((epnum & 0x80U) == 0x80U)
1757:Drivers/STM32F4xx_HAL_Driver/Src/stm32f4xx_ll_usb.c ****       {
1758:Drivers/STM32F4xx_HAL_Driver/Src/stm32f4xx_ll_usb.c ****         USBx_HC((uint32_t)ch_num)->HCINTMSK |= (USB_OTG_HCINTMSK_TXERRM | USB_OTG_HCINTMSK_BBERRM);
1759:Drivers/STM32F4xx_HAL_Driver/Src/stm32f4xx_ll_usb.c ****       }
1760:Drivers/STM32F4xx_HAL_Driver/Src/stm32f4xx_ll_usb.c ****       break;
1761:Drivers/STM32F4xx_HAL_Driver/Src/stm32f4xx_ll_usb.c **** 
1762:Drivers/STM32F4xx_HAL_Driver/Src/stm32f4xx_ll_usb.c ****     default:
1763:Drivers/STM32F4xx_HAL_Driver/Src/stm32f4xx_ll_usb.c ****       ret = HAL_ERROR;
1764:Drivers/STM32F4xx_HAL_Driver/Src/stm32f4xx_ll_usb.c ****       break;
1765:Drivers/STM32F4xx_HAL_Driver/Src/stm32f4xx_ll_usb.c ****   }
1766:Drivers/STM32F4xx_HAL_Driver/Src/stm32f4xx_ll_usb.c **** 
1767:Drivers/STM32F4xx_HAL_Driver/Src/stm32f4xx_ll_usb.c ****   /* Clear Hub Start Split transaction */
1768:Drivers/STM32F4xx_HAL_Driver/Src/stm32f4xx_ll_usb.c ****   USBx_HC((uint32_t)ch_num)->HCSPLT = 0U;
 4129              		.loc 1 1768 3 is_stmt 1 view .LVU1330
 4130              		.loc 1 1768 37 is_stmt 0 view .LVU1331
 4131 0062 0022     		movs	r2, #0
 4132 0064 5A60     		str	r2, [r3, #4]
1769:Drivers/STM32F4xx_HAL_Driver/Src/stm32f4xx_ll_usb.c **** 
1770:Drivers/STM32F4xx_HAL_Driver/Src/stm32f4xx_ll_usb.c ****   /* Enable host channel Halt interrupt */
1771:Drivers/STM32F4xx_HAL_Driver/Src/stm32f4xx_ll_usb.c ****   USBx_HC((uint32_t)ch_num)->HCINTMSK |= USB_OTG_HCINTMSK_CHHM;
ARM GAS  C:\Users\ashto\AppData\Local\Temp\ccdF3pho.s 			page 123


 4133              		.loc 1 1771 3 is_stmt 1 view .LVU1332
 4134              		.loc 1 1771 39 is_stmt 0 view .LVU1333
 4135 0066 DA68     		ldr	r2, [r3, #12]
 4136 0068 42F00202 		orr	r2, r2, #2
 4137 006c DA60     		str	r2, [r3, #12]
1772:Drivers/STM32F4xx_HAL_Driver/Src/stm32f4xx_ll_usb.c **** 
1773:Drivers/STM32F4xx_HAL_Driver/Src/stm32f4xx_ll_usb.c ****   /* Enable the top level host channel interrupt. */
1774:Drivers/STM32F4xx_HAL_Driver/Src/stm32f4xx_ll_usb.c ****   USBx_HOST->HAINTMSK |= 1UL << (ch_num & 0xFU);
 4138              		.loc 1 1774 3 is_stmt 1 view .LVU1334
 4139              		.loc 1 1774 23 is_stmt 0 view .LVU1335
 4140 006e D0F81834 		ldr	r3, [r0, #1048]
 4141              		.loc 1 1774 41 view .LVU1336
 4142 0072 01F00F01 		and	r1, r1, #15
 4143              	.LVL331:
 4144              		.loc 1 1774 30 view .LVU1337
 4145 0076 0122     		movs	r2, #1
 4146 0078 02FA01F1 		lsl	r1, r2, r1
 4147              		.loc 1 1774 23 view .LVU1338
 4148 007c 1943     		orrs	r1, r1, r3
 4149 007e C0F81814 		str	r1, [r0, #1048]
1775:Drivers/STM32F4xx_HAL_Driver/Src/stm32f4xx_ll_usb.c **** 
1776:Drivers/STM32F4xx_HAL_Driver/Src/stm32f4xx_ll_usb.c ****   /* Make sure host channel interrupts are enabled. */
1777:Drivers/STM32F4xx_HAL_Driver/Src/stm32f4xx_ll_usb.c ****   USBx->GINTMSK |= USB_OTG_GINTMSK_HCIM;
 4150              		.loc 1 1777 3 is_stmt 1 view .LVU1339
 4151              		.loc 1 1777 17 is_stmt 0 view .LVU1340
 4152 0082 8369     		ldr	r3, [r0, #24]
 4153 0084 43F00073 		orr	r3, r3, #33554432
 4154 0088 8361     		str	r3, [r0, #24]
1778:Drivers/STM32F4xx_HAL_Driver/Src/stm32f4xx_ll_usb.c **** 
1779:Drivers/STM32F4xx_HAL_Driver/Src/stm32f4xx_ll_usb.c ****   /* Program the HCCHAR register */
1780:Drivers/STM32F4xx_HAL_Driver/Src/stm32f4xx_ll_usb.c ****   if ((epnum & 0x80U) == 0x80U)
 4155              		.loc 1 1780 3 is_stmt 1 view .LVU1341
 4156              		.loc 1 1780 6 is_stmt 0 view .LVU1342
 4157 008a 19F0800F 		tst	r9, #128
 4158 008e 44D1     		bne	.L275
1781:Drivers/STM32F4xx_HAL_Driver/Src/stm32f4xx_ll_usb.c ****   {
1782:Drivers/STM32F4xx_HAL_Driver/Src/stm32f4xx_ll_usb.c ****     HCcharEpDir = (0x1U << 15) & USB_OTG_HCCHAR_EPDIR;
1783:Drivers/STM32F4xx_HAL_Driver/Src/stm32f4xx_ll_usb.c ****   }
1784:Drivers/STM32F4xx_HAL_Driver/Src/stm32f4xx_ll_usb.c ****   else
1785:Drivers/STM32F4xx_HAL_Driver/Src/stm32f4xx_ll_usb.c ****   {
1786:Drivers/STM32F4xx_HAL_Driver/Src/stm32f4xx_ll_usb.c ****     HCcharEpDir = 0U;
 4159              		.loc 1 1786 17 view .LVU1343
 4160 0090 4FF00008 		mov	r8, #0
 4161              	.L260:
 4162              	.LVL332:
1787:Drivers/STM32F4xx_HAL_Driver/Src/stm32f4xx_ll_usb.c ****   }
1788:Drivers/STM32F4xx_HAL_Driver/Src/stm32f4xx_ll_usb.c **** 
1789:Drivers/STM32F4xx_HAL_Driver/Src/stm32f4xx_ll_usb.c ****   HostCoreSpeed = USB_GetHostSpeed(USBx);
 4163              		.loc 1 1789 3 is_stmt 1 view .LVU1344
 4164              		.loc 1 1789 19 is_stmt 0 view .LVU1345
 4165 0094 FFF7FEFF 		bl	USB_GetHostSpeed
 4166              	.LVL333:
1790:Drivers/STM32F4xx_HAL_Driver/Src/stm32f4xx_ll_usb.c **** 
1791:Drivers/STM32F4xx_HAL_Driver/Src/stm32f4xx_ll_usb.c ****   /* LS device plugged to HUB */
1792:Drivers/STM32F4xx_HAL_Driver/Src/stm32f4xx_ll_usb.c ****   if ((speed == HPRT0_PRTSPD_LOW_SPEED) && (HostCoreSpeed != HPRT0_PRTSPD_LOW_SPEED))
 4167              		.loc 1 1792 3 is_stmt 1 view .LVU1346
 4168              		.loc 1 1792 6 is_stmt 0 view .LVU1347
ARM GAS  C:\Users\ashto\AppData\Local\Temp\ccdF3pho.s 			page 124


 4169 0098 9DF82030 		ldrb	r3, [sp, #32]	@ zero_extendqisi2
 4170 009c 022B     		cmp	r3, #2
 4171 009e 3FD0     		beq	.L276
1793:Drivers/STM32F4xx_HAL_Driver/Src/stm32f4xx_ll_usb.c ****   {
1794:Drivers/STM32F4xx_HAL_Driver/Src/stm32f4xx_ll_usb.c ****     HCcharLowSpeed = (0x1U << 17) & USB_OTG_HCCHAR_LSDEV;
1795:Drivers/STM32F4xx_HAL_Driver/Src/stm32f4xx_ll_usb.c ****   }
1796:Drivers/STM32F4xx_HAL_Driver/Src/stm32f4xx_ll_usb.c ****   else
1797:Drivers/STM32F4xx_HAL_Driver/Src/stm32f4xx_ll_usb.c ****   {
1798:Drivers/STM32F4xx_HAL_Driver/Src/stm32f4xx_ll_usb.c ****     HCcharLowSpeed = 0U;
 4172              		.loc 1 1798 20 view .LVU1348
 4173 00a0 0021     		movs	r1, #0
 4174              	.L261:
 4175              	.LVL334:
1799:Drivers/STM32F4xx_HAL_Driver/Src/stm32f4xx_ll_usb.c ****   }
1800:Drivers/STM32F4xx_HAL_Driver/Src/stm32f4xx_ll_usb.c **** 
1801:Drivers/STM32F4xx_HAL_Driver/Src/stm32f4xx_ll_usb.c ****   USBx_HC((uint32_t)ch_num)->HCCHAR = (((uint32_t)dev_address << 22) & USB_OTG_HCCHAR_DAD) |
 4176              		.loc 1 1801 3 is_stmt 1 view .LVU1349
 4177              		.loc 1 1801 63 is_stmt 0 view .LVU1350
 4178 00a2 A305     		lsls	r3, r4, #22
 4179              		.loc 1 1801 70 view .LVU1351
 4180 00a4 03F0FE53 		and	r3, r3, #532676608
1802:Drivers/STM32F4xx_HAL_Driver/Src/stm32f4xx_ll_usb.c ****                                       ((((uint32_t)epnum & 0x7FU) << 11) & USB_OTG_HCCHAR_EPNUM) |
 4181              		.loc 1 1802 67 view .LVU1352
 4182 00a8 4FEAC929 		lsl	r9, r9, #11
 4183              		.loc 1 1802 74 view .LVU1353
 4184 00ac 09F4F049 		and	r9, r9, #30720
1801:Drivers/STM32F4xx_HAL_Driver/Src/stm32f4xx_ll_usb.c ****                                       ((((uint32_t)epnum & 0x7FU) << 11) & USB_OTG_HCCHAR_EPNUM) |
 4185              		.loc 1 1801 92 view .LVU1354
 4186 00b0 43EA0903 		orr	r3, r3, r9
1803:Drivers/STM32F4xx_HAL_Driver/Src/stm32f4xx_ll_usb.c ****                                       (((uint32_t)ep_type << 18) & USB_OTG_HCCHAR_EPTYP) |
 4187              		.loc 1 1803 59 view .LVU1355
 4188 00b4 AC04     		lsls	r4, r5, #18
 4189              		.loc 1 1803 66 view .LVU1356
 4190 00b6 04F44024 		and	r4, r4, #786432
1802:Drivers/STM32F4xx_HAL_Driver/Src/stm32f4xx_ll_usb.c ****                                       ((((uint32_t)epnum & 0x7FU) << 11) & USB_OTG_HCCHAR_EPNUM) |
 4191              		.loc 1 1802 98 view .LVU1357
 4192 00ba 2343     		orrs	r3, r3, r4
1804:Drivers/STM32F4xx_HAL_Driver/Src/stm32f4xx_ll_usb.c ****                                       ((uint32_t)mps & USB_OTG_HCCHAR_MPSIZ) |
 4193              		.loc 1 1804 54 view .LVU1358
 4194 00bc BDF82820 		ldrh	r2, [sp, #40]
 4195 00c0 C2F30A02 		ubfx	r2, r2, #0, #11
1803:Drivers/STM32F4xx_HAL_Driver/Src/stm32f4xx_ll_usb.c ****                                       (((uint32_t)ep_type << 18) & USB_OTG_HCCHAR_EPTYP) |
 4196              		.loc 1 1803 90 view .LVU1359
 4197 00c4 1343     		orrs	r3, r3, r2
1805:Drivers/STM32F4xx_HAL_Driver/Src/stm32f4xx_ll_usb.c ****                                       USB_OTG_HCCHAR_MC_0 | HCcharEpDir | HCcharLowSpeed;
 4198              		.loc 1 1805 59 view .LVU1360
 4199 00c6 43EA0803 		orr	r3, r3, r8
 4200              		.loc 1 1805 73 view .LVU1361
 4201 00ca 0B43     		orrs	r3, r3, r1
 4202 00cc 43F48013 		orr	r3, r3, #1048576
1801:Drivers/STM32F4xx_HAL_Driver/Src/stm32f4xx_ll_usb.c ****                                       ((((uint32_t)epnum & 0x7FU) << 11) & USB_OTG_HCCHAR_EPNUM) |
 4203              		.loc 1 1801 37 view .LVU1362
 4204 00d0 C6F80035 		str	r3, [r6, #1280]
1806:Drivers/STM32F4xx_HAL_Driver/Src/stm32f4xx_ll_usb.c **** 
1807:Drivers/STM32F4xx_HAL_Driver/Src/stm32f4xx_ll_usb.c ****   if ((ep_type == EP_TYPE_INTR) || (ep_type == EP_TYPE_ISOC))
 4205              		.loc 1 1807 3 is_stmt 1 view .LVU1363
 4206              		.loc 1 1807 6 is_stmt 0 view .LVU1364
ARM GAS  C:\Users\ashto\AppData\Local\Temp\ccdF3pho.s 			page 125


 4207 00d4 032D     		cmp	r5, #3
 4208 00d6 01D0     		beq	.L262
 4209              		.loc 1 1807 33 discriminator 1 view .LVU1365
 4210 00d8 012D     		cmp	r5, #1
 4211 00da 05D1     		bne	.L263
 4212              	.L262:
1808:Drivers/STM32F4xx_HAL_Driver/Src/stm32f4xx_ll_usb.c ****   {
1809:Drivers/STM32F4xx_HAL_Driver/Src/stm32f4xx_ll_usb.c ****     USBx_HC((uint32_t)ch_num)->HCCHAR |= USB_OTG_HCCHAR_ODDFRM;
 4213              		.loc 1 1809 5 is_stmt 1 view .LVU1366
 4214              		.loc 1 1809 39 is_stmt 0 view .LVU1367
 4215 00dc D6F80035 		ldr	r3, [r6, #1280]
 4216 00e0 43F00053 		orr	r3, r3, #536870912
 4217 00e4 C6F80035 		str	r3, [r6, #1280]
 4218              	.L263:
1810:Drivers/STM32F4xx_HAL_Driver/Src/stm32f4xx_ll_usb.c ****   }
1811:Drivers/STM32F4xx_HAL_Driver/Src/stm32f4xx_ll_usb.c **** 
1812:Drivers/STM32F4xx_HAL_Driver/Src/stm32f4xx_ll_usb.c ****   return ret;
 4219              		.loc 1 1812 3 is_stmt 1 view .LVU1368
1813:Drivers/STM32F4xx_HAL_Driver/Src/stm32f4xx_ll_usb.c **** }
 4220              		.loc 1 1813 1 is_stmt 0 view .LVU1369
 4221 00e8 3846     		mov	r0, r7
 4222              	.LVL335:
 4223              		.loc 1 1813 1 view .LVU1370
 4224 00ea BDE8F883 		pop	{r3, r4, r5, r6, r7, r8, r9, pc}
 4225              	.LVL336:
 4226              	.L274:
1745:Drivers/STM32F4xx_HAL_Driver/Src/stm32f4xx_ll_usb.c ****       }
 4227              		.loc 1 1745 9 is_stmt 1 view .LVU1371
1745:Drivers/STM32F4xx_HAL_Driver/Src/stm32f4xx_ll_usb.c ****       }
 4228              		.loc 1 1745 45 is_stmt 0 view .LVU1372
 4229 00ee DA68     		ldr	r2, [r3, #12]
 4230 00f0 42F48072 		orr	r2, r2, #256
 4231 00f4 DA60     		str	r2, [r3, #12]
1697:Drivers/STM32F4xx_HAL_Driver/Src/stm32f4xx_ll_usb.c ****   uint32_t USBx_BASE = (uint32_t)USBx;
 4232              		.loc 1 1697 21 view .LVU1373
 4233 00f6 0027     		movs	r7, #0
 4234 00f8 B3E7     		b	.L254
 4235              	.L258:
1751:Drivers/STM32F4xx_HAL_Driver/Src/stm32f4xx_ll_usb.c ****                                             USB_OTG_HCINTMSK_ACKM   |
 4236              		.loc 1 1751 7 is_stmt 1 view .LVU1374
1751:Drivers/STM32F4xx_HAL_Driver/Src/stm32f4xx_ll_usb.c ****                                             USB_OTG_HCINTMSK_ACKM   |
 4237              		.loc 1 1751 43 is_stmt 0 view .LVU1375
 4238 00fa 40F22522 		movw	r2, #549
 4239 00fe DA60     		str	r2, [r3, #12]
1756:Drivers/STM32F4xx_HAL_Driver/Src/stm32f4xx_ll_usb.c ****       {
 4240              		.loc 1 1756 7 is_stmt 1 view .LVU1376
1756:Drivers/STM32F4xx_HAL_Driver/Src/stm32f4xx_ll_usb.c ****       {
 4241              		.loc 1 1756 10 is_stmt 0 view .LVU1377
 4242 0100 19F0800F 		tst	r9, #128
 4243 0104 01D1     		bne	.L277
1697:Drivers/STM32F4xx_HAL_Driver/Src/stm32f4xx_ll_usb.c ****   uint32_t USBx_BASE = (uint32_t)USBx;
 4244              		.loc 1 1697 21 view .LVU1378
 4245 0106 0027     		movs	r7, #0
 4246 0108 ABE7     		b	.L254
 4247              	.L277:
1758:Drivers/STM32F4xx_HAL_Driver/Src/stm32f4xx_ll_usb.c ****       }
 4248              		.loc 1 1758 9 is_stmt 1 view .LVU1379
ARM GAS  C:\Users\ashto\AppData\Local\Temp\ccdF3pho.s 			page 126


1758:Drivers/STM32F4xx_HAL_Driver/Src/stm32f4xx_ll_usb.c ****       }
 4249              		.loc 1 1758 45 is_stmt 0 view .LVU1380
 4250 010a DA68     		ldr	r2, [r3, #12]
 4251 010c 42F4C072 		orr	r2, r2, #384
 4252 0110 DA60     		str	r2, [r3, #12]
1697:Drivers/STM32F4xx_HAL_Driver/Src/stm32f4xx_ll_usb.c ****   uint32_t USBx_BASE = (uint32_t)USBx;
 4253              		.loc 1 1697 21 view .LVU1381
 4254 0112 0027     		movs	r7, #0
 4255 0114 A5E7     		b	.L254
 4256              	.L264:
1707:Drivers/STM32F4xx_HAL_Driver/Src/stm32f4xx_ll_usb.c ****   {
 4257              		.loc 1 1707 3 view .LVU1382
 4258 0116 0127     		movs	r7, #1
 4259 0118 A3E7     		b	.L254
 4260              	.LVL337:
 4261              	.L275:
1782:Drivers/STM32F4xx_HAL_Driver/Src/stm32f4xx_ll_usb.c ****   }
 4262              		.loc 1 1782 17 view .LVU1383
 4263 011a 4FF40048 		mov	r8, #32768
 4264 011e B9E7     		b	.L260
 4265              	.LVL338:
 4266              	.L276:
1792:Drivers/STM32F4xx_HAL_Driver/Src/stm32f4xx_ll_usb.c ****   {
 4267              		.loc 1 1792 41 discriminator 1 view .LVU1384
 4268 0120 0228     		cmp	r0, #2
 4269 0122 02D0     		beq	.L278
1794:Drivers/STM32F4xx_HAL_Driver/Src/stm32f4xx_ll_usb.c ****   }
 4270              		.loc 1 1794 20 view .LVU1385
 4271 0124 4FF40031 		mov	r1, #131072
 4272 0128 BBE7     		b	.L261
 4273              	.L278:
1798:Drivers/STM32F4xx_HAL_Driver/Src/stm32f4xx_ll_usb.c ****   }
 4274              		.loc 1 1798 20 view .LVU1386
 4275 012a 0021     		movs	r1, #0
 4276 012c B9E7     		b	.L261
 4277              	.L280:
 4278 012e 00BF     		.align	2
 4279              	.L279:
 4280 0130 00000440 		.word	1074003968
 4281              		.cfi_endproc
 4282              	.LFE175:
 4284              		.section	.text.USB_HC_ReadInterrupt,"ax",%progbits
 4285              		.align	1
 4286              		.global	USB_HC_ReadInterrupt
 4287              		.syntax unified
 4288              		.thumb
 4289              		.thumb_func
 4291              	USB_HC_ReadInterrupt:
 4292              	.LVL339:
 4293              	.LFB177:
1814:Drivers/STM32F4xx_HAL_Driver/Src/stm32f4xx_ll_usb.c **** 
1815:Drivers/STM32F4xx_HAL_Driver/Src/stm32f4xx_ll_usb.c **** /**
1816:Drivers/STM32F4xx_HAL_Driver/Src/stm32f4xx_ll_usb.c ****   * @brief  Start a transfer over a host channel
1817:Drivers/STM32F4xx_HAL_Driver/Src/stm32f4xx_ll_usb.c ****   * @param  USBx  Selected device
1818:Drivers/STM32F4xx_HAL_Driver/Src/stm32f4xx_ll_usb.c ****   * @param  hc  pointer to host channel structure
1819:Drivers/STM32F4xx_HAL_Driver/Src/stm32f4xx_ll_usb.c ****   * @param  dma USB dma enabled or disabled
1820:Drivers/STM32F4xx_HAL_Driver/Src/stm32f4xx_ll_usb.c ****   *          This parameter can be one of these values:
ARM GAS  C:\Users\ashto\AppData\Local\Temp\ccdF3pho.s 			page 127


1821:Drivers/STM32F4xx_HAL_Driver/Src/stm32f4xx_ll_usb.c ****   *           0 : DMA feature not used
1822:Drivers/STM32F4xx_HAL_Driver/Src/stm32f4xx_ll_usb.c ****   *           1 : DMA feature used
1823:Drivers/STM32F4xx_HAL_Driver/Src/stm32f4xx_ll_usb.c ****   * @retval HAL state
1824:Drivers/STM32F4xx_HAL_Driver/Src/stm32f4xx_ll_usb.c ****   */
1825:Drivers/STM32F4xx_HAL_Driver/Src/stm32f4xx_ll_usb.c **** HAL_StatusTypeDef USB_HC_StartXfer(USB_OTG_GlobalTypeDef *USBx, USB_OTG_HCTypeDef *hc, uint8_t dma)
1826:Drivers/STM32F4xx_HAL_Driver/Src/stm32f4xx_ll_usb.c **** {
1827:Drivers/STM32F4xx_HAL_Driver/Src/stm32f4xx_ll_usb.c ****   uint32_t USBx_BASE = (uint32_t)USBx;
1828:Drivers/STM32F4xx_HAL_Driver/Src/stm32f4xx_ll_usb.c ****   uint32_t ch_num = (uint32_t)hc->ch_num;
1829:Drivers/STM32F4xx_HAL_Driver/Src/stm32f4xx_ll_usb.c ****   __IO uint32_t tmpreg;
1830:Drivers/STM32F4xx_HAL_Driver/Src/stm32f4xx_ll_usb.c ****   uint8_t  is_oddframe;
1831:Drivers/STM32F4xx_HAL_Driver/Src/stm32f4xx_ll_usb.c ****   uint16_t len_words;
1832:Drivers/STM32F4xx_HAL_Driver/Src/stm32f4xx_ll_usb.c ****   uint16_t num_packets;
1833:Drivers/STM32F4xx_HAL_Driver/Src/stm32f4xx_ll_usb.c ****   uint16_t max_hc_pkt_count = HC_MAX_PKT_CNT;
1834:Drivers/STM32F4xx_HAL_Driver/Src/stm32f4xx_ll_usb.c **** 
1835:Drivers/STM32F4xx_HAL_Driver/Src/stm32f4xx_ll_usb.c **** #if defined (USB_OTG_HS)
1836:Drivers/STM32F4xx_HAL_Driver/Src/stm32f4xx_ll_usb.c ****   if (USBx == USB_OTG_HS)
1837:Drivers/STM32F4xx_HAL_Driver/Src/stm32f4xx_ll_usb.c ****   {
1838:Drivers/STM32F4xx_HAL_Driver/Src/stm32f4xx_ll_usb.c ****     /* in DMA mode host Core automatically issues ping in case of NYET/NAK */
1839:Drivers/STM32F4xx_HAL_Driver/Src/stm32f4xx_ll_usb.c ****     if (dma == 1U)
1840:Drivers/STM32F4xx_HAL_Driver/Src/stm32f4xx_ll_usb.c ****     {
1841:Drivers/STM32F4xx_HAL_Driver/Src/stm32f4xx_ll_usb.c ****       if (((hc->ep_type == EP_TYPE_CTRL) || (hc->ep_type == EP_TYPE_BULK)) && (hc->do_ssplit == 0U)
1842:Drivers/STM32F4xx_HAL_Driver/Src/stm32f4xx_ll_usb.c ****       {
1843:Drivers/STM32F4xx_HAL_Driver/Src/stm32f4xx_ll_usb.c **** 
1844:Drivers/STM32F4xx_HAL_Driver/Src/stm32f4xx_ll_usb.c ****         USBx_HC((uint32_t)ch_num)->HCINTMSK &= ~(USB_OTG_HCINTMSK_NYET |
1845:Drivers/STM32F4xx_HAL_Driver/Src/stm32f4xx_ll_usb.c ****                                                  USB_OTG_HCINTMSK_ACKM |
1846:Drivers/STM32F4xx_HAL_Driver/Src/stm32f4xx_ll_usb.c ****                                                  USB_OTG_HCINTMSK_NAKM);
1847:Drivers/STM32F4xx_HAL_Driver/Src/stm32f4xx_ll_usb.c ****       }
1848:Drivers/STM32F4xx_HAL_Driver/Src/stm32f4xx_ll_usb.c ****     }
1849:Drivers/STM32F4xx_HAL_Driver/Src/stm32f4xx_ll_usb.c ****     else
1850:Drivers/STM32F4xx_HAL_Driver/Src/stm32f4xx_ll_usb.c ****     {
1851:Drivers/STM32F4xx_HAL_Driver/Src/stm32f4xx_ll_usb.c ****       if ((hc->speed == USBH_HS_SPEED) && (hc->do_ping == 1U))
1852:Drivers/STM32F4xx_HAL_Driver/Src/stm32f4xx_ll_usb.c ****       {
1853:Drivers/STM32F4xx_HAL_Driver/Src/stm32f4xx_ll_usb.c ****         (void)USB_DoPing(USBx, hc->ch_num);
1854:Drivers/STM32F4xx_HAL_Driver/Src/stm32f4xx_ll_usb.c ****         return HAL_OK;
1855:Drivers/STM32F4xx_HAL_Driver/Src/stm32f4xx_ll_usb.c ****       }
1856:Drivers/STM32F4xx_HAL_Driver/Src/stm32f4xx_ll_usb.c ****     }
1857:Drivers/STM32F4xx_HAL_Driver/Src/stm32f4xx_ll_usb.c ****   }
1858:Drivers/STM32F4xx_HAL_Driver/Src/stm32f4xx_ll_usb.c **** #endif /* defined (USB_OTG_HS) */
1859:Drivers/STM32F4xx_HAL_Driver/Src/stm32f4xx_ll_usb.c **** 
1860:Drivers/STM32F4xx_HAL_Driver/Src/stm32f4xx_ll_usb.c ****   if (hc->do_ssplit == 1U)
1861:Drivers/STM32F4xx_HAL_Driver/Src/stm32f4xx_ll_usb.c ****   {
1862:Drivers/STM32F4xx_HAL_Driver/Src/stm32f4xx_ll_usb.c ****     /* Set number of packet to 1 for Split transaction */
1863:Drivers/STM32F4xx_HAL_Driver/Src/stm32f4xx_ll_usb.c ****     num_packets = 1U;
1864:Drivers/STM32F4xx_HAL_Driver/Src/stm32f4xx_ll_usb.c **** 
1865:Drivers/STM32F4xx_HAL_Driver/Src/stm32f4xx_ll_usb.c ****     if (hc->ep_is_in != 0U)
1866:Drivers/STM32F4xx_HAL_Driver/Src/stm32f4xx_ll_usb.c ****     {
1867:Drivers/STM32F4xx_HAL_Driver/Src/stm32f4xx_ll_usb.c ****       hc->XferSize = (uint32_t)num_packets * hc->max_packet;
1868:Drivers/STM32F4xx_HAL_Driver/Src/stm32f4xx_ll_usb.c ****     }
1869:Drivers/STM32F4xx_HAL_Driver/Src/stm32f4xx_ll_usb.c ****     else
1870:Drivers/STM32F4xx_HAL_Driver/Src/stm32f4xx_ll_usb.c ****     {
1871:Drivers/STM32F4xx_HAL_Driver/Src/stm32f4xx_ll_usb.c ****       if (hc->ep_type == EP_TYPE_ISOC)
1872:Drivers/STM32F4xx_HAL_Driver/Src/stm32f4xx_ll_usb.c ****       {
1873:Drivers/STM32F4xx_HAL_Driver/Src/stm32f4xx_ll_usb.c ****         if (hc->xfer_len > ISO_SPLT_MPS)
1874:Drivers/STM32F4xx_HAL_Driver/Src/stm32f4xx_ll_usb.c ****         {
1875:Drivers/STM32F4xx_HAL_Driver/Src/stm32f4xx_ll_usb.c ****           /* Isochrone Max Packet Size for Split mode */
1876:Drivers/STM32F4xx_HAL_Driver/Src/stm32f4xx_ll_usb.c ****           hc->XferSize = hc->max_packet;
1877:Drivers/STM32F4xx_HAL_Driver/Src/stm32f4xx_ll_usb.c ****           hc->xfer_len = hc->XferSize;
ARM GAS  C:\Users\ashto\AppData\Local\Temp\ccdF3pho.s 			page 128


1878:Drivers/STM32F4xx_HAL_Driver/Src/stm32f4xx_ll_usb.c **** 
1879:Drivers/STM32F4xx_HAL_Driver/Src/stm32f4xx_ll_usb.c ****           if ((hc->iso_splt_xactPos == HCSPLT_BEGIN) || (hc->iso_splt_xactPos == HCSPLT_MIDDLE))
1880:Drivers/STM32F4xx_HAL_Driver/Src/stm32f4xx_ll_usb.c ****           {
1881:Drivers/STM32F4xx_HAL_Driver/Src/stm32f4xx_ll_usb.c ****             hc->iso_splt_xactPos = HCSPLT_MIDDLE;
1882:Drivers/STM32F4xx_HAL_Driver/Src/stm32f4xx_ll_usb.c ****           }
1883:Drivers/STM32F4xx_HAL_Driver/Src/stm32f4xx_ll_usb.c ****           else
1884:Drivers/STM32F4xx_HAL_Driver/Src/stm32f4xx_ll_usb.c ****           {
1885:Drivers/STM32F4xx_HAL_Driver/Src/stm32f4xx_ll_usb.c ****             hc->iso_splt_xactPos = HCSPLT_BEGIN;
1886:Drivers/STM32F4xx_HAL_Driver/Src/stm32f4xx_ll_usb.c ****           }
1887:Drivers/STM32F4xx_HAL_Driver/Src/stm32f4xx_ll_usb.c ****         }
1888:Drivers/STM32F4xx_HAL_Driver/Src/stm32f4xx_ll_usb.c ****         else
1889:Drivers/STM32F4xx_HAL_Driver/Src/stm32f4xx_ll_usb.c ****         {
1890:Drivers/STM32F4xx_HAL_Driver/Src/stm32f4xx_ll_usb.c ****           hc->XferSize = hc->xfer_len;
1891:Drivers/STM32F4xx_HAL_Driver/Src/stm32f4xx_ll_usb.c **** 
1892:Drivers/STM32F4xx_HAL_Driver/Src/stm32f4xx_ll_usb.c ****           if ((hc->iso_splt_xactPos != HCSPLT_BEGIN) && (hc->iso_splt_xactPos != HCSPLT_MIDDLE))
1893:Drivers/STM32F4xx_HAL_Driver/Src/stm32f4xx_ll_usb.c ****           {
1894:Drivers/STM32F4xx_HAL_Driver/Src/stm32f4xx_ll_usb.c ****             hc->iso_splt_xactPos = HCSPLT_FULL;
1895:Drivers/STM32F4xx_HAL_Driver/Src/stm32f4xx_ll_usb.c ****           }
1896:Drivers/STM32F4xx_HAL_Driver/Src/stm32f4xx_ll_usb.c ****           else
1897:Drivers/STM32F4xx_HAL_Driver/Src/stm32f4xx_ll_usb.c ****           {
1898:Drivers/STM32F4xx_HAL_Driver/Src/stm32f4xx_ll_usb.c ****             hc->iso_splt_xactPos = HCSPLT_END;
1899:Drivers/STM32F4xx_HAL_Driver/Src/stm32f4xx_ll_usb.c ****           }
1900:Drivers/STM32F4xx_HAL_Driver/Src/stm32f4xx_ll_usb.c ****         }
1901:Drivers/STM32F4xx_HAL_Driver/Src/stm32f4xx_ll_usb.c ****       }
1902:Drivers/STM32F4xx_HAL_Driver/Src/stm32f4xx_ll_usb.c ****       else
1903:Drivers/STM32F4xx_HAL_Driver/Src/stm32f4xx_ll_usb.c ****       {
1904:Drivers/STM32F4xx_HAL_Driver/Src/stm32f4xx_ll_usb.c ****         if ((dma == 1U) && (hc->xfer_len > hc->max_packet))
1905:Drivers/STM32F4xx_HAL_Driver/Src/stm32f4xx_ll_usb.c ****         {
1906:Drivers/STM32F4xx_HAL_Driver/Src/stm32f4xx_ll_usb.c ****           hc->XferSize = (uint32_t)num_packets * hc->max_packet;
1907:Drivers/STM32F4xx_HAL_Driver/Src/stm32f4xx_ll_usb.c ****         }
1908:Drivers/STM32F4xx_HAL_Driver/Src/stm32f4xx_ll_usb.c ****         else
1909:Drivers/STM32F4xx_HAL_Driver/Src/stm32f4xx_ll_usb.c ****         {
1910:Drivers/STM32F4xx_HAL_Driver/Src/stm32f4xx_ll_usb.c ****           hc->XferSize = hc->xfer_len;
1911:Drivers/STM32F4xx_HAL_Driver/Src/stm32f4xx_ll_usb.c ****         }
1912:Drivers/STM32F4xx_HAL_Driver/Src/stm32f4xx_ll_usb.c ****       }
1913:Drivers/STM32F4xx_HAL_Driver/Src/stm32f4xx_ll_usb.c ****     }
1914:Drivers/STM32F4xx_HAL_Driver/Src/stm32f4xx_ll_usb.c ****   }
1915:Drivers/STM32F4xx_HAL_Driver/Src/stm32f4xx_ll_usb.c ****   else
1916:Drivers/STM32F4xx_HAL_Driver/Src/stm32f4xx_ll_usb.c ****   {
1917:Drivers/STM32F4xx_HAL_Driver/Src/stm32f4xx_ll_usb.c ****     /* Compute the expected number of packets associated to the transfer */
1918:Drivers/STM32F4xx_HAL_Driver/Src/stm32f4xx_ll_usb.c ****     if (hc->xfer_len > 0U)
1919:Drivers/STM32F4xx_HAL_Driver/Src/stm32f4xx_ll_usb.c ****     {
1920:Drivers/STM32F4xx_HAL_Driver/Src/stm32f4xx_ll_usb.c ****       num_packets = (uint16_t)((hc->xfer_len + hc->max_packet - 1U) / hc->max_packet);
1921:Drivers/STM32F4xx_HAL_Driver/Src/stm32f4xx_ll_usb.c **** 
1922:Drivers/STM32F4xx_HAL_Driver/Src/stm32f4xx_ll_usb.c ****       if (num_packets > max_hc_pkt_count)
1923:Drivers/STM32F4xx_HAL_Driver/Src/stm32f4xx_ll_usb.c ****       {
1924:Drivers/STM32F4xx_HAL_Driver/Src/stm32f4xx_ll_usb.c ****         num_packets = max_hc_pkt_count;
1925:Drivers/STM32F4xx_HAL_Driver/Src/stm32f4xx_ll_usb.c ****         hc->XferSize = (uint32_t)num_packets * hc->max_packet;
1926:Drivers/STM32F4xx_HAL_Driver/Src/stm32f4xx_ll_usb.c ****       }
1927:Drivers/STM32F4xx_HAL_Driver/Src/stm32f4xx_ll_usb.c ****     }
1928:Drivers/STM32F4xx_HAL_Driver/Src/stm32f4xx_ll_usb.c ****     else
1929:Drivers/STM32F4xx_HAL_Driver/Src/stm32f4xx_ll_usb.c ****     {
1930:Drivers/STM32F4xx_HAL_Driver/Src/stm32f4xx_ll_usb.c ****       num_packets = 1U;
1931:Drivers/STM32F4xx_HAL_Driver/Src/stm32f4xx_ll_usb.c ****     }
1932:Drivers/STM32F4xx_HAL_Driver/Src/stm32f4xx_ll_usb.c **** 
1933:Drivers/STM32F4xx_HAL_Driver/Src/stm32f4xx_ll_usb.c ****     /*
1934:Drivers/STM32F4xx_HAL_Driver/Src/stm32f4xx_ll_usb.c ****     * For IN channel HCTSIZ.XferSize is expected to be an integer multiple of
ARM GAS  C:\Users\ashto\AppData\Local\Temp\ccdF3pho.s 			page 129


1935:Drivers/STM32F4xx_HAL_Driver/Src/stm32f4xx_ll_usb.c ****     * max_packet size.
1936:Drivers/STM32F4xx_HAL_Driver/Src/stm32f4xx_ll_usb.c ****     */
1937:Drivers/STM32F4xx_HAL_Driver/Src/stm32f4xx_ll_usb.c ****     if (hc->ep_is_in != 0U)
1938:Drivers/STM32F4xx_HAL_Driver/Src/stm32f4xx_ll_usb.c ****     {
1939:Drivers/STM32F4xx_HAL_Driver/Src/stm32f4xx_ll_usb.c ****       hc->XferSize = (uint32_t)num_packets * hc->max_packet;
1940:Drivers/STM32F4xx_HAL_Driver/Src/stm32f4xx_ll_usb.c ****     }
1941:Drivers/STM32F4xx_HAL_Driver/Src/stm32f4xx_ll_usb.c ****     else
1942:Drivers/STM32F4xx_HAL_Driver/Src/stm32f4xx_ll_usb.c ****     {
1943:Drivers/STM32F4xx_HAL_Driver/Src/stm32f4xx_ll_usb.c ****       hc->XferSize = hc->xfer_len;
1944:Drivers/STM32F4xx_HAL_Driver/Src/stm32f4xx_ll_usb.c ****     }
1945:Drivers/STM32F4xx_HAL_Driver/Src/stm32f4xx_ll_usb.c ****   }
1946:Drivers/STM32F4xx_HAL_Driver/Src/stm32f4xx_ll_usb.c **** 
1947:Drivers/STM32F4xx_HAL_Driver/Src/stm32f4xx_ll_usb.c ****   /* Initialize the HCTSIZn register */
1948:Drivers/STM32F4xx_HAL_Driver/Src/stm32f4xx_ll_usb.c ****   USBx_HC(ch_num)->HCTSIZ = (hc->XferSize & USB_OTG_HCTSIZ_XFRSIZ) |
1949:Drivers/STM32F4xx_HAL_Driver/Src/stm32f4xx_ll_usb.c ****                             (((uint32_t)num_packets << 19) & USB_OTG_HCTSIZ_PKTCNT) |
1950:Drivers/STM32F4xx_HAL_Driver/Src/stm32f4xx_ll_usb.c ****                             (((uint32_t)hc->data_pid << 29) & USB_OTG_HCTSIZ_DPID);
1951:Drivers/STM32F4xx_HAL_Driver/Src/stm32f4xx_ll_usb.c **** 
1952:Drivers/STM32F4xx_HAL_Driver/Src/stm32f4xx_ll_usb.c ****   if (dma != 0U)
1953:Drivers/STM32F4xx_HAL_Driver/Src/stm32f4xx_ll_usb.c ****   {
1954:Drivers/STM32F4xx_HAL_Driver/Src/stm32f4xx_ll_usb.c ****     /* xfer_buff MUST be 32-bits aligned */
1955:Drivers/STM32F4xx_HAL_Driver/Src/stm32f4xx_ll_usb.c ****     USBx_HC(ch_num)->HCDMA = (uint32_t)hc->xfer_buff;
1956:Drivers/STM32F4xx_HAL_Driver/Src/stm32f4xx_ll_usb.c ****   }
1957:Drivers/STM32F4xx_HAL_Driver/Src/stm32f4xx_ll_usb.c **** 
1958:Drivers/STM32F4xx_HAL_Driver/Src/stm32f4xx_ll_usb.c ****   is_oddframe = (((uint32_t)USBx_HOST->HFNUM & 0x01U) != 0U) ? 0U : 1U;
1959:Drivers/STM32F4xx_HAL_Driver/Src/stm32f4xx_ll_usb.c ****   USBx_HC(ch_num)->HCCHAR &= ~USB_OTG_HCCHAR_ODDFRM;
1960:Drivers/STM32F4xx_HAL_Driver/Src/stm32f4xx_ll_usb.c ****   USBx_HC(ch_num)->HCCHAR |= (uint32_t)is_oddframe << 29;
1961:Drivers/STM32F4xx_HAL_Driver/Src/stm32f4xx_ll_usb.c **** 
1962:Drivers/STM32F4xx_HAL_Driver/Src/stm32f4xx_ll_usb.c ****   if (hc->do_ssplit == 1U)
1963:Drivers/STM32F4xx_HAL_Driver/Src/stm32f4xx_ll_usb.c ****   {
1964:Drivers/STM32F4xx_HAL_Driver/Src/stm32f4xx_ll_usb.c ****     /* Set Hub start Split transaction */
1965:Drivers/STM32F4xx_HAL_Driver/Src/stm32f4xx_ll_usb.c ****     USBx_HC((uint32_t)ch_num)->HCSPLT = ((uint32_t)hc->hub_addr << USB_OTG_HCSPLT_HUBADDR_Pos) |
1966:Drivers/STM32F4xx_HAL_Driver/Src/stm32f4xx_ll_usb.c ****                                         (uint32_t)hc->hub_port_nbr | USB_OTG_HCSPLT_SPLITEN;
1967:Drivers/STM32F4xx_HAL_Driver/Src/stm32f4xx_ll_usb.c **** 
1968:Drivers/STM32F4xx_HAL_Driver/Src/stm32f4xx_ll_usb.c ****     /* unmask ack & nyet for IN/OUT transactions */
1969:Drivers/STM32F4xx_HAL_Driver/Src/stm32f4xx_ll_usb.c ****     USBx_HC((uint32_t)ch_num)->HCINTMSK |= (USB_OTG_HCINTMSK_ACKM |
1970:Drivers/STM32F4xx_HAL_Driver/Src/stm32f4xx_ll_usb.c ****                                             USB_OTG_HCINTMSK_NYET);
1971:Drivers/STM32F4xx_HAL_Driver/Src/stm32f4xx_ll_usb.c **** 
1972:Drivers/STM32F4xx_HAL_Driver/Src/stm32f4xx_ll_usb.c ****     if ((hc->do_csplit == 1U) && (hc->ep_is_in == 0U))
1973:Drivers/STM32F4xx_HAL_Driver/Src/stm32f4xx_ll_usb.c ****     {
1974:Drivers/STM32F4xx_HAL_Driver/Src/stm32f4xx_ll_usb.c ****       USBx_HC((uint32_t)ch_num)->HCSPLT |= USB_OTG_HCSPLT_COMPLSPLT;
1975:Drivers/STM32F4xx_HAL_Driver/Src/stm32f4xx_ll_usb.c ****       USBx_HC((uint32_t)ch_num)->HCINTMSK |= USB_OTG_HCINTMSK_NYET;
1976:Drivers/STM32F4xx_HAL_Driver/Src/stm32f4xx_ll_usb.c ****     }
1977:Drivers/STM32F4xx_HAL_Driver/Src/stm32f4xx_ll_usb.c **** 
1978:Drivers/STM32F4xx_HAL_Driver/Src/stm32f4xx_ll_usb.c ****     if (((hc->ep_type == EP_TYPE_ISOC) || (hc->ep_type == EP_TYPE_INTR)) &&
1979:Drivers/STM32F4xx_HAL_Driver/Src/stm32f4xx_ll_usb.c ****         (hc->do_csplit == 1U) && (hc->ep_is_in == 1U))
1980:Drivers/STM32F4xx_HAL_Driver/Src/stm32f4xx_ll_usb.c ****     {
1981:Drivers/STM32F4xx_HAL_Driver/Src/stm32f4xx_ll_usb.c ****       USBx_HC((uint32_t)ch_num)->HCSPLT |= USB_OTG_HCSPLT_COMPLSPLT;
1982:Drivers/STM32F4xx_HAL_Driver/Src/stm32f4xx_ll_usb.c ****     }
1983:Drivers/STM32F4xx_HAL_Driver/Src/stm32f4xx_ll_usb.c **** 
1984:Drivers/STM32F4xx_HAL_Driver/Src/stm32f4xx_ll_usb.c ****     /* Position management for iso out transaction on split mode */
1985:Drivers/STM32F4xx_HAL_Driver/Src/stm32f4xx_ll_usb.c ****     if ((hc->ep_type == EP_TYPE_ISOC) && (hc->ep_is_in == 0U))
1986:Drivers/STM32F4xx_HAL_Driver/Src/stm32f4xx_ll_usb.c ****     {
1987:Drivers/STM32F4xx_HAL_Driver/Src/stm32f4xx_ll_usb.c ****       /* Set data payload position */
1988:Drivers/STM32F4xx_HAL_Driver/Src/stm32f4xx_ll_usb.c ****       switch (hc->iso_splt_xactPos)
1989:Drivers/STM32F4xx_HAL_Driver/Src/stm32f4xx_ll_usb.c ****       {
1990:Drivers/STM32F4xx_HAL_Driver/Src/stm32f4xx_ll_usb.c ****         case HCSPLT_BEGIN:
1991:Drivers/STM32F4xx_HAL_Driver/Src/stm32f4xx_ll_usb.c ****           /* First data payload for OUT Transaction */
ARM GAS  C:\Users\ashto\AppData\Local\Temp\ccdF3pho.s 			page 130


1992:Drivers/STM32F4xx_HAL_Driver/Src/stm32f4xx_ll_usb.c ****           USBx_HC((uint32_t)ch_num)->HCSPLT |= USB_OTG_HCSPLT_XACTPOS_1;
1993:Drivers/STM32F4xx_HAL_Driver/Src/stm32f4xx_ll_usb.c ****           break;
1994:Drivers/STM32F4xx_HAL_Driver/Src/stm32f4xx_ll_usb.c **** 
1995:Drivers/STM32F4xx_HAL_Driver/Src/stm32f4xx_ll_usb.c ****         case HCSPLT_MIDDLE:
1996:Drivers/STM32F4xx_HAL_Driver/Src/stm32f4xx_ll_usb.c ****           /* Middle data payload for OUT Transaction */
1997:Drivers/STM32F4xx_HAL_Driver/Src/stm32f4xx_ll_usb.c ****           USBx_HC((uint32_t)ch_num)->HCSPLT |= USB_OTG_HCSPLT_XACTPOS_Pos;
1998:Drivers/STM32F4xx_HAL_Driver/Src/stm32f4xx_ll_usb.c ****           break;
1999:Drivers/STM32F4xx_HAL_Driver/Src/stm32f4xx_ll_usb.c **** 
2000:Drivers/STM32F4xx_HAL_Driver/Src/stm32f4xx_ll_usb.c ****         case HCSPLT_END:
2001:Drivers/STM32F4xx_HAL_Driver/Src/stm32f4xx_ll_usb.c ****           /* End data payload for OUT Transaction */
2002:Drivers/STM32F4xx_HAL_Driver/Src/stm32f4xx_ll_usb.c ****           USBx_HC((uint32_t)ch_num)->HCSPLT |= USB_OTG_HCSPLT_XACTPOS_0;
2003:Drivers/STM32F4xx_HAL_Driver/Src/stm32f4xx_ll_usb.c ****           break;
2004:Drivers/STM32F4xx_HAL_Driver/Src/stm32f4xx_ll_usb.c **** 
2005:Drivers/STM32F4xx_HAL_Driver/Src/stm32f4xx_ll_usb.c ****         case HCSPLT_FULL:
2006:Drivers/STM32F4xx_HAL_Driver/Src/stm32f4xx_ll_usb.c ****           /* Entire data payload for OUT Transaction */
2007:Drivers/STM32F4xx_HAL_Driver/Src/stm32f4xx_ll_usb.c ****           USBx_HC((uint32_t)ch_num)->HCSPLT |= USB_OTG_HCSPLT_XACTPOS;
2008:Drivers/STM32F4xx_HAL_Driver/Src/stm32f4xx_ll_usb.c ****           break;
2009:Drivers/STM32F4xx_HAL_Driver/Src/stm32f4xx_ll_usb.c **** 
2010:Drivers/STM32F4xx_HAL_Driver/Src/stm32f4xx_ll_usb.c ****         default:
2011:Drivers/STM32F4xx_HAL_Driver/Src/stm32f4xx_ll_usb.c ****           break;
2012:Drivers/STM32F4xx_HAL_Driver/Src/stm32f4xx_ll_usb.c ****       }
2013:Drivers/STM32F4xx_HAL_Driver/Src/stm32f4xx_ll_usb.c ****     }
2014:Drivers/STM32F4xx_HAL_Driver/Src/stm32f4xx_ll_usb.c ****   }
2015:Drivers/STM32F4xx_HAL_Driver/Src/stm32f4xx_ll_usb.c ****   else
2016:Drivers/STM32F4xx_HAL_Driver/Src/stm32f4xx_ll_usb.c ****   {
2017:Drivers/STM32F4xx_HAL_Driver/Src/stm32f4xx_ll_usb.c ****     /* Clear Hub Start Split transaction */
2018:Drivers/STM32F4xx_HAL_Driver/Src/stm32f4xx_ll_usb.c ****     USBx_HC((uint32_t)ch_num)->HCSPLT = 0U;
2019:Drivers/STM32F4xx_HAL_Driver/Src/stm32f4xx_ll_usb.c ****   }
2020:Drivers/STM32F4xx_HAL_Driver/Src/stm32f4xx_ll_usb.c **** 
2021:Drivers/STM32F4xx_HAL_Driver/Src/stm32f4xx_ll_usb.c ****   /* Set host channel enable */
2022:Drivers/STM32F4xx_HAL_Driver/Src/stm32f4xx_ll_usb.c ****   tmpreg = USBx_HC(ch_num)->HCCHAR;
2023:Drivers/STM32F4xx_HAL_Driver/Src/stm32f4xx_ll_usb.c ****   tmpreg &= ~USB_OTG_HCCHAR_CHDIS;
2024:Drivers/STM32F4xx_HAL_Driver/Src/stm32f4xx_ll_usb.c **** 
2025:Drivers/STM32F4xx_HAL_Driver/Src/stm32f4xx_ll_usb.c ****   /* make sure to set the correct ep direction */
2026:Drivers/STM32F4xx_HAL_Driver/Src/stm32f4xx_ll_usb.c ****   if (hc->ep_is_in != 0U)
2027:Drivers/STM32F4xx_HAL_Driver/Src/stm32f4xx_ll_usb.c ****   {
2028:Drivers/STM32F4xx_HAL_Driver/Src/stm32f4xx_ll_usb.c ****     tmpreg |= USB_OTG_HCCHAR_EPDIR;
2029:Drivers/STM32F4xx_HAL_Driver/Src/stm32f4xx_ll_usb.c ****   }
2030:Drivers/STM32F4xx_HAL_Driver/Src/stm32f4xx_ll_usb.c ****   else
2031:Drivers/STM32F4xx_HAL_Driver/Src/stm32f4xx_ll_usb.c ****   {
2032:Drivers/STM32F4xx_HAL_Driver/Src/stm32f4xx_ll_usb.c ****     tmpreg &= ~USB_OTG_HCCHAR_EPDIR;
2033:Drivers/STM32F4xx_HAL_Driver/Src/stm32f4xx_ll_usb.c ****   }
2034:Drivers/STM32F4xx_HAL_Driver/Src/stm32f4xx_ll_usb.c ****   tmpreg |= USB_OTG_HCCHAR_CHENA;
2035:Drivers/STM32F4xx_HAL_Driver/Src/stm32f4xx_ll_usb.c ****   USBx_HC(ch_num)->HCCHAR = tmpreg;
2036:Drivers/STM32F4xx_HAL_Driver/Src/stm32f4xx_ll_usb.c **** 
2037:Drivers/STM32F4xx_HAL_Driver/Src/stm32f4xx_ll_usb.c ****   if (dma != 0U) /* dma mode */
2038:Drivers/STM32F4xx_HAL_Driver/Src/stm32f4xx_ll_usb.c ****   {
2039:Drivers/STM32F4xx_HAL_Driver/Src/stm32f4xx_ll_usb.c ****     return HAL_OK;
2040:Drivers/STM32F4xx_HAL_Driver/Src/stm32f4xx_ll_usb.c ****   }
2041:Drivers/STM32F4xx_HAL_Driver/Src/stm32f4xx_ll_usb.c **** 
2042:Drivers/STM32F4xx_HAL_Driver/Src/stm32f4xx_ll_usb.c ****   if ((hc->ep_is_in == 0U) && (hc->xfer_len > 0U) && (hc->do_csplit == 0U))
2043:Drivers/STM32F4xx_HAL_Driver/Src/stm32f4xx_ll_usb.c ****   {
2044:Drivers/STM32F4xx_HAL_Driver/Src/stm32f4xx_ll_usb.c ****     switch (hc->ep_type)
2045:Drivers/STM32F4xx_HAL_Driver/Src/stm32f4xx_ll_usb.c ****     {
2046:Drivers/STM32F4xx_HAL_Driver/Src/stm32f4xx_ll_usb.c ****       /* Non periodic transfer */
2047:Drivers/STM32F4xx_HAL_Driver/Src/stm32f4xx_ll_usb.c ****       case EP_TYPE_CTRL:
2048:Drivers/STM32F4xx_HAL_Driver/Src/stm32f4xx_ll_usb.c ****       case EP_TYPE_BULK:
ARM GAS  C:\Users\ashto\AppData\Local\Temp\ccdF3pho.s 			page 131


2049:Drivers/STM32F4xx_HAL_Driver/Src/stm32f4xx_ll_usb.c **** 
2050:Drivers/STM32F4xx_HAL_Driver/Src/stm32f4xx_ll_usb.c ****         len_words = (uint16_t)((hc->xfer_len + 3U) / 4U);
2051:Drivers/STM32F4xx_HAL_Driver/Src/stm32f4xx_ll_usb.c **** 
2052:Drivers/STM32F4xx_HAL_Driver/Src/stm32f4xx_ll_usb.c ****         /* check if there is enough space in FIFO space */
2053:Drivers/STM32F4xx_HAL_Driver/Src/stm32f4xx_ll_usb.c ****         if (len_words > (USBx->HNPTXSTS & 0xFFFFU))
2054:Drivers/STM32F4xx_HAL_Driver/Src/stm32f4xx_ll_usb.c ****         {
2055:Drivers/STM32F4xx_HAL_Driver/Src/stm32f4xx_ll_usb.c ****           /* need to process data in nptxfempty interrupt */
2056:Drivers/STM32F4xx_HAL_Driver/Src/stm32f4xx_ll_usb.c ****           USBx->GINTMSK |= USB_OTG_GINTMSK_NPTXFEM;
2057:Drivers/STM32F4xx_HAL_Driver/Src/stm32f4xx_ll_usb.c ****         }
2058:Drivers/STM32F4xx_HAL_Driver/Src/stm32f4xx_ll_usb.c ****         break;
2059:Drivers/STM32F4xx_HAL_Driver/Src/stm32f4xx_ll_usb.c **** 
2060:Drivers/STM32F4xx_HAL_Driver/Src/stm32f4xx_ll_usb.c ****       /* Periodic transfer */
2061:Drivers/STM32F4xx_HAL_Driver/Src/stm32f4xx_ll_usb.c ****       case EP_TYPE_INTR:
2062:Drivers/STM32F4xx_HAL_Driver/Src/stm32f4xx_ll_usb.c ****       case EP_TYPE_ISOC:
2063:Drivers/STM32F4xx_HAL_Driver/Src/stm32f4xx_ll_usb.c ****         len_words = (uint16_t)((hc->xfer_len + 3U) / 4U);
2064:Drivers/STM32F4xx_HAL_Driver/Src/stm32f4xx_ll_usb.c ****         /* check if there is enough space in FIFO space */
2065:Drivers/STM32F4xx_HAL_Driver/Src/stm32f4xx_ll_usb.c ****         if (len_words > (USBx_HOST->HPTXSTS & 0xFFFFU)) /* split the transfer */
2066:Drivers/STM32F4xx_HAL_Driver/Src/stm32f4xx_ll_usb.c ****         {
2067:Drivers/STM32F4xx_HAL_Driver/Src/stm32f4xx_ll_usb.c ****           /* need to process data in ptxfempty interrupt */
2068:Drivers/STM32F4xx_HAL_Driver/Src/stm32f4xx_ll_usb.c ****           USBx->GINTMSK |= USB_OTG_GINTMSK_PTXFEM;
2069:Drivers/STM32F4xx_HAL_Driver/Src/stm32f4xx_ll_usb.c ****         }
2070:Drivers/STM32F4xx_HAL_Driver/Src/stm32f4xx_ll_usb.c ****         break;
2071:Drivers/STM32F4xx_HAL_Driver/Src/stm32f4xx_ll_usb.c **** 
2072:Drivers/STM32F4xx_HAL_Driver/Src/stm32f4xx_ll_usb.c ****       default:
2073:Drivers/STM32F4xx_HAL_Driver/Src/stm32f4xx_ll_usb.c ****         break;
2074:Drivers/STM32F4xx_HAL_Driver/Src/stm32f4xx_ll_usb.c ****     }
2075:Drivers/STM32F4xx_HAL_Driver/Src/stm32f4xx_ll_usb.c **** 
2076:Drivers/STM32F4xx_HAL_Driver/Src/stm32f4xx_ll_usb.c ****     /* Write packet into the Tx FIFO. */
2077:Drivers/STM32F4xx_HAL_Driver/Src/stm32f4xx_ll_usb.c ****     (void)USB_WritePacket(USBx, hc->xfer_buff, hc->ch_num, (uint16_t)hc->xfer_len, 0);
2078:Drivers/STM32F4xx_HAL_Driver/Src/stm32f4xx_ll_usb.c ****   }
2079:Drivers/STM32F4xx_HAL_Driver/Src/stm32f4xx_ll_usb.c **** 
2080:Drivers/STM32F4xx_HAL_Driver/Src/stm32f4xx_ll_usb.c ****   return HAL_OK;
2081:Drivers/STM32F4xx_HAL_Driver/Src/stm32f4xx_ll_usb.c **** }
2082:Drivers/STM32F4xx_HAL_Driver/Src/stm32f4xx_ll_usb.c **** 
2083:Drivers/STM32F4xx_HAL_Driver/Src/stm32f4xx_ll_usb.c **** /**
2084:Drivers/STM32F4xx_HAL_Driver/Src/stm32f4xx_ll_usb.c ****   * @brief Read all host channel interrupts status
2085:Drivers/STM32F4xx_HAL_Driver/Src/stm32f4xx_ll_usb.c ****   * @param  USBx  Selected device
2086:Drivers/STM32F4xx_HAL_Driver/Src/stm32f4xx_ll_usb.c ****   * @retval HAL state
2087:Drivers/STM32F4xx_HAL_Driver/Src/stm32f4xx_ll_usb.c ****   */
2088:Drivers/STM32F4xx_HAL_Driver/Src/stm32f4xx_ll_usb.c **** uint32_t USB_HC_ReadInterrupt(const USB_OTG_GlobalTypeDef *USBx)
2089:Drivers/STM32F4xx_HAL_Driver/Src/stm32f4xx_ll_usb.c **** {
 4294              		.loc 1 2089 1 is_stmt 1 view -0
 4295              		.cfi_startproc
 4296              		@ args = 0, pretend = 0, frame = 0
 4297              		@ frame_needed = 0, uses_anonymous_args = 0
 4298              		@ link register save eliminated.
2090:Drivers/STM32F4xx_HAL_Driver/Src/stm32f4xx_ll_usb.c ****   uint32_t USBx_BASE = (uint32_t)USBx;
 4299              		.loc 1 2090 3 view .LVU1388
2091:Drivers/STM32F4xx_HAL_Driver/Src/stm32f4xx_ll_usb.c **** 
2092:Drivers/STM32F4xx_HAL_Driver/Src/stm32f4xx_ll_usb.c ****   return ((USBx_HOST->HAINT) & 0xFFFFU);
 4300              		.loc 1 2092 3 view .LVU1389
 4301              		.loc 1 2092 12 is_stmt 0 view .LVU1390
 4302 0000 00F58060 		add	r0, r0, #1024
 4303              	.LVL340:
 4304              		.loc 1 2092 21 view .LVU1391
 4305 0004 4069     		ldr	r0, [r0, #20]
 4306              	.LVL341:
ARM GAS  C:\Users\ashto\AppData\Local\Temp\ccdF3pho.s 			page 132


2093:Drivers/STM32F4xx_HAL_Driver/Src/stm32f4xx_ll_usb.c **** }
 4307              		.loc 1 2093 1 view .LVU1392
 4308 0006 80B2     		uxth	r0, r0
 4309 0008 7047     		bx	lr
 4310              		.cfi_endproc
 4311              	.LFE177:
 4313              		.section	.text.USB_HC_Halt,"ax",%progbits
 4314              		.align	1
 4315              		.global	USB_HC_Halt
 4316              		.syntax unified
 4317              		.thumb
 4318              		.thumb_func
 4320              	USB_HC_Halt:
 4321              	.LVL342:
 4322              	.LFB178:
2094:Drivers/STM32F4xx_HAL_Driver/Src/stm32f4xx_ll_usb.c **** 
2095:Drivers/STM32F4xx_HAL_Driver/Src/stm32f4xx_ll_usb.c **** /**
2096:Drivers/STM32F4xx_HAL_Driver/Src/stm32f4xx_ll_usb.c ****   * @brief  Halt a host channel
2097:Drivers/STM32F4xx_HAL_Driver/Src/stm32f4xx_ll_usb.c ****   * @param  USBx  Selected device
2098:Drivers/STM32F4xx_HAL_Driver/Src/stm32f4xx_ll_usb.c ****   * @param  hc_num  Host Channel number
2099:Drivers/STM32F4xx_HAL_Driver/Src/stm32f4xx_ll_usb.c ****   *         This parameter can be a value from 1 to 15
2100:Drivers/STM32F4xx_HAL_Driver/Src/stm32f4xx_ll_usb.c ****   * @retval HAL state
2101:Drivers/STM32F4xx_HAL_Driver/Src/stm32f4xx_ll_usb.c ****   */
2102:Drivers/STM32F4xx_HAL_Driver/Src/stm32f4xx_ll_usb.c **** HAL_StatusTypeDef USB_HC_Halt(const USB_OTG_GlobalTypeDef *USBx, uint8_t hc_num)
2103:Drivers/STM32F4xx_HAL_Driver/Src/stm32f4xx_ll_usb.c **** {
 4323              		.loc 1 2103 1 is_stmt 1 view -0
 4324              		.cfi_startproc
 4325              		@ args = 0, pretend = 0, frame = 8
 4326              		@ frame_needed = 0, uses_anonymous_args = 0
 4327              		@ link register save eliminated.
 4328              		.loc 1 2103 1 is_stmt 0 view .LVU1394
 4329 0000 70B4     		push	{r4, r5, r6}
 4330              	.LCFI58:
 4331              		.cfi_def_cfa_offset 12
 4332              		.cfi_offset 4, -12
 4333              		.cfi_offset 5, -8
 4334              		.cfi_offset 6, -4
 4335 0002 83B0     		sub	sp, sp, #12
 4336              	.LCFI59:
 4337              		.cfi_def_cfa_offset 24
2104:Drivers/STM32F4xx_HAL_Driver/Src/stm32f4xx_ll_usb.c ****   uint32_t USBx_BASE = (uint32_t)USBx;
 4338              		.loc 1 2104 3 is_stmt 1 view .LVU1395
 4339              	.LVL343:
2105:Drivers/STM32F4xx_HAL_Driver/Src/stm32f4xx_ll_usb.c ****   uint32_t hcnum = (uint32_t)hc_num;
 4340              		.loc 1 2105 3 view .LVU1396
2106:Drivers/STM32F4xx_HAL_Driver/Src/stm32f4xx_ll_usb.c ****   __IO uint32_t count = 0U;
 4341              		.loc 1 2106 3 view .LVU1397
 4342              		.loc 1 2106 17 is_stmt 0 view .LVU1398
 4343 0004 0023     		movs	r3, #0
 4344 0006 0193     		str	r3, [sp, #4]
2107:Drivers/STM32F4xx_HAL_Driver/Src/stm32f4xx_ll_usb.c ****   uint32_t HcEpType = (USBx_HC(hcnum)->HCCHAR & USB_OTG_HCCHAR_EPTYP) >> 18;
 4345              		.loc 1 2107 3 is_stmt 1 view .LVU1399
 4346              		.loc 1 2107 24 is_stmt 0 view .LVU1400
 4347 0008 00EB4111 		add	r1, r0, r1, lsl #5
 4348              	.LVL344:
 4349              		.loc 1 2107 24 view .LVU1401
 4350 000c 01F5A062 		add	r2, r1, #1280
ARM GAS  C:\Users\ashto\AppData\Local\Temp\ccdF3pho.s 			page 133


 4351              		.loc 1 2107 38 view .LVU1402
 4352 0010 D1F80035 		ldr	r3, [r1, #1280]
 4353              		.loc 1 2107 12 view .LVU1403
 4354 0014 C3F38143 		ubfx	r3, r3, #18, #2
 4355              	.LVL345:
2108:Drivers/STM32F4xx_HAL_Driver/Src/stm32f4xx_ll_usb.c ****   uint32_t ChannelEna = (USBx_HC(hcnum)->HCCHAR & USB_OTG_HCCHAR_CHENA) >> 31;
 4356              		.loc 1 2108 3 is_stmt 1 view .LVU1404
 4357              		.loc 1 2108 40 is_stmt 0 view .LVU1405
 4358 0018 D1F80055 		ldr	r5, [r1, #1280]
 4359              	.LVL346:
2109:Drivers/STM32F4xx_HAL_Driver/Src/stm32f4xx_ll_usb.c ****   uint32_t SplitEna = (USBx_HC(hcnum)->HCSPLT & USB_OTG_HCSPLT_SPLITEN) >> 31;
 4360              		.loc 1 2109 3 is_stmt 1 view .LVU1406
 4361              		.loc 1 2109 38 is_stmt 0 view .LVU1407
 4362 001c 5468     		ldr	r4, [r2, #4]
 4363              	.LVL347:
2110:Drivers/STM32F4xx_HAL_Driver/Src/stm32f4xx_ll_usb.c **** 
2111:Drivers/STM32F4xx_HAL_Driver/Src/stm32f4xx_ll_usb.c ****   /* In buffer DMA, Channel disable must not be programmed for non-split periodic channels.
2112:Drivers/STM32F4xx_HAL_Driver/Src/stm32f4xx_ll_usb.c ****      At the end of the next uframe/frame (in the worst case), the core generates a channel halted
2113:Drivers/STM32F4xx_HAL_Driver/Src/stm32f4xx_ll_usb.c ****      and disables the channel automatically. */
2114:Drivers/STM32F4xx_HAL_Driver/Src/stm32f4xx_ll_usb.c **** 
2115:Drivers/STM32F4xx_HAL_Driver/Src/stm32f4xx_ll_usb.c ****   if ((((USBx->GAHBCFG & USB_OTG_GAHBCFG_DMAEN) == USB_OTG_GAHBCFG_DMAEN) && (SplitEna == 0U)) &&
 4364              		.loc 1 2115 3 is_stmt 1 view .LVU1408
 4365              		.loc 1 2115 14 is_stmt 0 view .LVU1409
 4366 001e 8668     		ldr	r6, [r0, #8]
 4367              		.loc 1 2115 6 view .LVU1410
 4368 0020 16F0200F 		tst	r6, #32
 4369 0024 08D0     		beq	.L283
 4370 0026 ED0F     		lsrs	r5, r5, #31
 4371              	.LVL348:
 4372              		.loc 1 2115 6 view .LVU1411
 4373 0028 E40F     		lsrs	r4, r4, #31
 4374              	.LVL349:
 4375              		.loc 1 2115 75 discriminator 1 view .LVU1412
 4376 002a 2CB9     		cbnz	r4, .L283
 4377              		.loc 1 2115 96 discriminator 2 view .LVU1413
 4378 002c 002D     		cmp	r5, #0
 4379 002e 5AD0     		beq	.L284
2116:Drivers/STM32F4xx_HAL_Driver/Src/stm32f4xx_ll_usb.c ****       ((ChannelEna == 0U) || (((HcEpType == HCCHAR_ISOC) || (HcEpType == HCCHAR_INTR)))))
 4380              		.loc 1 2116 27 view .LVU1414
 4381 0030 012B     		cmp	r3, #1
 4382 0032 58D0     		beq	.L284
 4383              		.loc 1 2116 58 discriminator 1 view .LVU1415
 4384 0034 032B     		cmp	r3, #3
 4385 0036 56D0     		beq	.L284
 4386              	.LVL350:
 4387              	.L283:
2117:Drivers/STM32F4xx_HAL_Driver/Src/stm32f4xx_ll_usb.c ****   {
2118:Drivers/STM32F4xx_HAL_Driver/Src/stm32f4xx_ll_usb.c ****     return HAL_OK;
2119:Drivers/STM32F4xx_HAL_Driver/Src/stm32f4xx_ll_usb.c ****   }
2120:Drivers/STM32F4xx_HAL_Driver/Src/stm32f4xx_ll_usb.c **** 
2121:Drivers/STM32F4xx_HAL_Driver/Src/stm32f4xx_ll_usb.c ****   /* Check for space in the request queue to issue the halt. */
2122:Drivers/STM32F4xx_HAL_Driver/Src/stm32f4xx_ll_usb.c ****   if ((HcEpType == HCCHAR_CTRL) || (HcEpType == HCCHAR_BULK))
 4388              		.loc 1 2122 3 is_stmt 1 view .LVU1416
 4389              		.loc 1 2122 6 is_stmt 0 view .LVU1417
 4390 0038 1BB3     		cbz	r3, .L285
 4391              		.loc 1 2122 33 discriminator 1 view .LVU1418
 4392 003a 022B     		cmp	r3, #2
ARM GAS  C:\Users\ashto\AppData\Local\Temp\ccdF3pho.s 			page 134


 4393 003c 21D0     		beq	.L285
2123:Drivers/STM32F4xx_HAL_Driver/Src/stm32f4xx_ll_usb.c ****   {
2124:Drivers/STM32F4xx_HAL_Driver/Src/stm32f4xx_ll_usb.c ****     USBx_HC(hcnum)->HCCHAR |= USB_OTG_HCCHAR_CHDIS;
2125:Drivers/STM32F4xx_HAL_Driver/Src/stm32f4xx_ll_usb.c **** 
2126:Drivers/STM32F4xx_HAL_Driver/Src/stm32f4xx_ll_usb.c ****     if ((USBx->GAHBCFG & USB_OTG_GAHBCFG_DMAEN) == 0U)
2127:Drivers/STM32F4xx_HAL_Driver/Src/stm32f4xx_ll_usb.c ****     {
2128:Drivers/STM32F4xx_HAL_Driver/Src/stm32f4xx_ll_usb.c ****       if ((USBx->HNPTXSTS & (0xFFU << 16)) == 0U)
2129:Drivers/STM32F4xx_HAL_Driver/Src/stm32f4xx_ll_usb.c ****       {
2130:Drivers/STM32F4xx_HAL_Driver/Src/stm32f4xx_ll_usb.c ****         USBx_HC(hcnum)->HCCHAR &= ~USB_OTG_HCCHAR_CHENA;
2131:Drivers/STM32F4xx_HAL_Driver/Src/stm32f4xx_ll_usb.c ****         USBx_HC(hcnum)->HCCHAR |= USB_OTG_HCCHAR_CHENA;
2132:Drivers/STM32F4xx_HAL_Driver/Src/stm32f4xx_ll_usb.c ****         do
2133:Drivers/STM32F4xx_HAL_Driver/Src/stm32f4xx_ll_usb.c ****         {
2134:Drivers/STM32F4xx_HAL_Driver/Src/stm32f4xx_ll_usb.c ****           count++;
2135:Drivers/STM32F4xx_HAL_Driver/Src/stm32f4xx_ll_usb.c **** 
2136:Drivers/STM32F4xx_HAL_Driver/Src/stm32f4xx_ll_usb.c ****           if (count > 1000U)
2137:Drivers/STM32F4xx_HAL_Driver/Src/stm32f4xx_ll_usb.c ****           {
2138:Drivers/STM32F4xx_HAL_Driver/Src/stm32f4xx_ll_usb.c ****             break;
2139:Drivers/STM32F4xx_HAL_Driver/Src/stm32f4xx_ll_usb.c ****           }
2140:Drivers/STM32F4xx_HAL_Driver/Src/stm32f4xx_ll_usb.c ****         } while ((USBx_HC(hcnum)->HCCHAR & USB_OTG_HCCHAR_CHENA) == USB_OTG_HCCHAR_CHENA);
2141:Drivers/STM32F4xx_HAL_Driver/Src/stm32f4xx_ll_usb.c ****       }
2142:Drivers/STM32F4xx_HAL_Driver/Src/stm32f4xx_ll_usb.c ****       else
2143:Drivers/STM32F4xx_HAL_Driver/Src/stm32f4xx_ll_usb.c ****       {
2144:Drivers/STM32F4xx_HAL_Driver/Src/stm32f4xx_ll_usb.c ****         USBx_HC(hcnum)->HCCHAR |= USB_OTG_HCCHAR_CHENA;
2145:Drivers/STM32F4xx_HAL_Driver/Src/stm32f4xx_ll_usb.c ****       }
2146:Drivers/STM32F4xx_HAL_Driver/Src/stm32f4xx_ll_usb.c ****     }
2147:Drivers/STM32F4xx_HAL_Driver/Src/stm32f4xx_ll_usb.c ****     else
2148:Drivers/STM32F4xx_HAL_Driver/Src/stm32f4xx_ll_usb.c ****     {
2149:Drivers/STM32F4xx_HAL_Driver/Src/stm32f4xx_ll_usb.c ****       USBx_HC(hcnum)->HCCHAR |= USB_OTG_HCCHAR_CHENA;
2150:Drivers/STM32F4xx_HAL_Driver/Src/stm32f4xx_ll_usb.c ****     }
2151:Drivers/STM32F4xx_HAL_Driver/Src/stm32f4xx_ll_usb.c ****   }
2152:Drivers/STM32F4xx_HAL_Driver/Src/stm32f4xx_ll_usb.c ****   else
2153:Drivers/STM32F4xx_HAL_Driver/Src/stm32f4xx_ll_usb.c ****   {
2154:Drivers/STM32F4xx_HAL_Driver/Src/stm32f4xx_ll_usb.c ****     USBx_HC(hcnum)->HCCHAR |= USB_OTG_HCCHAR_CHDIS;
 4394              		.loc 1 2154 5 is_stmt 1 view .LVU1419
 4395              		.loc 1 2154 28 is_stmt 0 view .LVU1420
 4396 003e D1F80035 		ldr	r3, [r1, #1280]
 4397              	.LVL351:
 4398              		.loc 1 2154 28 view .LVU1421
 4399 0042 43F08043 		orr	r3, r3, #1073741824
 4400 0046 C1F80035 		str	r3, [r1, #1280]
2155:Drivers/STM32F4xx_HAL_Driver/Src/stm32f4xx_ll_usb.c **** 
2156:Drivers/STM32F4xx_HAL_Driver/Src/stm32f4xx_ll_usb.c ****     if ((USBx_HOST->HPTXSTS & (0xFFU << 16)) == 0U)
 4401              		.loc 1 2156 5 is_stmt 1 view .LVU1422
 4402              		.loc 1 2156 19 is_stmt 0 view .LVU1423
 4403 004a D0F81034 		ldr	r3, [r0, #1040]
 4404              		.loc 1 2156 8 view .LVU1424
 4405 004e 13F47F0F 		tst	r3, #16711680
 4406 0052 4CD1     		bne	.L290
2157:Drivers/STM32F4xx_HAL_Driver/Src/stm32f4xx_ll_usb.c ****     {
2158:Drivers/STM32F4xx_HAL_Driver/Src/stm32f4xx_ll_usb.c ****       USBx_HC(hcnum)->HCCHAR &= ~USB_OTG_HCCHAR_CHENA;
 4407              		.loc 1 2158 7 is_stmt 1 view .LVU1425
 4408              		.loc 1 2158 30 is_stmt 0 view .LVU1426
 4409 0054 D1F80035 		ldr	r3, [r1, #1280]
 4410 0058 23F00043 		bic	r3, r3, #-2147483648
 4411 005c C1F80035 		str	r3, [r1, #1280]
2159:Drivers/STM32F4xx_HAL_Driver/Src/stm32f4xx_ll_usb.c ****       USBx_HC(hcnum)->HCCHAR |= USB_OTG_HCCHAR_CHENA;
 4412              		.loc 1 2159 7 is_stmt 1 view .LVU1427
ARM GAS  C:\Users\ashto\AppData\Local\Temp\ccdF3pho.s 			page 135


 4413              		.loc 1 2159 30 is_stmt 0 view .LVU1428
 4414 0060 D1F80035 		ldr	r3, [r1, #1280]
 4415 0064 43F00043 		orr	r3, r3, #-2147483648
 4416 0068 C1F80035 		str	r3, [r1, #1280]
 4417              	.L291:
2160:Drivers/STM32F4xx_HAL_Driver/Src/stm32f4xx_ll_usb.c ****       do
 4418              		.loc 1 2160 7 is_stmt 1 view .LVU1429
2161:Drivers/STM32F4xx_HAL_Driver/Src/stm32f4xx_ll_usb.c ****       {
2162:Drivers/STM32F4xx_HAL_Driver/Src/stm32f4xx_ll_usb.c ****         count++;
 4419              		.loc 1 2162 9 view .LVU1430
 4420              		.loc 1 2162 14 is_stmt 0 view .LVU1431
 4421 006c 019B     		ldr	r3, [sp, #4]
 4422 006e 0133     		adds	r3, r3, #1
 4423 0070 0193     		str	r3, [sp, #4]
2163:Drivers/STM32F4xx_HAL_Driver/Src/stm32f4xx_ll_usb.c **** 
2164:Drivers/STM32F4xx_HAL_Driver/Src/stm32f4xx_ll_usb.c ****         if (count > 1000U)
 4424              		.loc 1 2164 9 is_stmt 1 view .LVU1432
 4425              		.loc 1 2164 19 is_stmt 0 view .LVU1433
 4426 0072 019B     		ldr	r3, [sp, #4]
 4427              		.loc 1 2164 12 view .LVU1434
 4428 0074 B3F57A7F 		cmp	r3, #1000
 4429 0078 35D8     		bhi	.L284
2165:Drivers/STM32F4xx_HAL_Driver/Src/stm32f4xx_ll_usb.c ****         {
2166:Drivers/STM32F4xx_HAL_Driver/Src/stm32f4xx_ll_usb.c ****           break;
2167:Drivers/STM32F4xx_HAL_Driver/Src/stm32f4xx_ll_usb.c ****         }
2168:Drivers/STM32F4xx_HAL_Driver/Src/stm32f4xx_ll_usb.c ****       } while ((USBx_HC(hcnum)->HCCHAR & USB_OTG_HCCHAR_CHENA) == USB_OTG_HCCHAR_CHENA);
 4430              		.loc 1 2168 15 is_stmt 1 view .LVU1435
 4431              		.loc 1 2168 31 is_stmt 0 view .LVU1436
 4432 007a 1368     		ldr	r3, [r2]
 4433              		.loc 1 2168 7 view .LVU1437
 4434 007c 002B     		cmp	r3, #0
 4435 007e F5DB     		blt	.L291
 4436 0080 31E0     		b	.L284
 4437              	.LVL352:
 4438              	.L285:
2124:Drivers/STM32F4xx_HAL_Driver/Src/stm32f4xx_ll_usb.c **** 
 4439              		.loc 1 2124 5 is_stmt 1 view .LVU1438
2124:Drivers/STM32F4xx_HAL_Driver/Src/stm32f4xx_ll_usb.c **** 
 4440              		.loc 1 2124 28 is_stmt 0 view .LVU1439
 4441 0082 D1F80035 		ldr	r3, [r1, #1280]
 4442              	.LVL353:
2124:Drivers/STM32F4xx_HAL_Driver/Src/stm32f4xx_ll_usb.c **** 
 4443              		.loc 1 2124 28 view .LVU1440
 4444 0086 43F08043 		orr	r3, r3, #1073741824
 4445 008a C1F80035 		str	r3, [r1, #1280]
2126:Drivers/STM32F4xx_HAL_Driver/Src/stm32f4xx_ll_usb.c ****     {
 4446              		.loc 1 2126 5 is_stmt 1 view .LVU1441
2126:Drivers/STM32F4xx_HAL_Driver/Src/stm32f4xx_ll_usb.c ****     {
 4447              		.loc 1 2126 14 is_stmt 0 view .LVU1442
 4448 008e 8368     		ldr	r3, [r0, #8]
2126:Drivers/STM32F4xx_HAL_Driver/Src/stm32f4xx_ll_usb.c ****     {
 4449              		.loc 1 2126 8 view .LVU1443
 4450 0090 13F0200F 		tst	r3, #32
 4451 0094 21D1     		bne	.L287
2128:Drivers/STM32F4xx_HAL_Driver/Src/stm32f4xx_ll_usb.c ****       {
 4452              		.loc 1 2128 7 is_stmt 1 view .LVU1444
2128:Drivers/STM32F4xx_HAL_Driver/Src/stm32f4xx_ll_usb.c ****       {
ARM GAS  C:\Users\ashto\AppData\Local\Temp\ccdF3pho.s 			page 136


 4453              		.loc 1 2128 16 is_stmt 0 view .LVU1445
 4454 0096 C36A     		ldr	r3, [r0, #44]
2128:Drivers/STM32F4xx_HAL_Driver/Src/stm32f4xx_ll_usb.c ****       {
 4455              		.loc 1 2128 10 view .LVU1446
 4456 0098 13F47F0F 		tst	r3, #16711680
 4457 009c 16D1     		bne	.L288
2130:Drivers/STM32F4xx_HAL_Driver/Src/stm32f4xx_ll_usb.c ****         USBx_HC(hcnum)->HCCHAR |= USB_OTG_HCCHAR_CHENA;
 4458              		.loc 1 2130 9 is_stmt 1 view .LVU1447
2130:Drivers/STM32F4xx_HAL_Driver/Src/stm32f4xx_ll_usb.c ****         USBx_HC(hcnum)->HCCHAR |= USB_OTG_HCCHAR_CHENA;
 4459              		.loc 1 2130 32 is_stmt 0 view .LVU1448
 4460 009e D1F80035 		ldr	r3, [r1, #1280]
 4461 00a2 23F00043 		bic	r3, r3, #-2147483648
 4462 00a6 C1F80035 		str	r3, [r1, #1280]
2131:Drivers/STM32F4xx_HAL_Driver/Src/stm32f4xx_ll_usb.c ****         do
 4463              		.loc 1 2131 9 is_stmt 1 view .LVU1449
2131:Drivers/STM32F4xx_HAL_Driver/Src/stm32f4xx_ll_usb.c ****         do
 4464              		.loc 1 2131 32 is_stmt 0 view .LVU1450
 4465 00aa D1F80035 		ldr	r3, [r1, #1280]
 4466 00ae 43F00043 		orr	r3, r3, #-2147483648
 4467 00b2 C1F80035 		str	r3, [r1, #1280]
 4468              	.L289:
2132:Drivers/STM32F4xx_HAL_Driver/Src/stm32f4xx_ll_usb.c ****         {
 4469              		.loc 1 2132 9 is_stmt 1 view .LVU1451
2134:Drivers/STM32F4xx_HAL_Driver/Src/stm32f4xx_ll_usb.c **** 
 4470              		.loc 1 2134 11 view .LVU1452
2134:Drivers/STM32F4xx_HAL_Driver/Src/stm32f4xx_ll_usb.c **** 
 4471              		.loc 1 2134 16 is_stmt 0 view .LVU1453
 4472 00b6 019B     		ldr	r3, [sp, #4]
 4473 00b8 0133     		adds	r3, r3, #1
 4474 00ba 0193     		str	r3, [sp, #4]
2136:Drivers/STM32F4xx_HAL_Driver/Src/stm32f4xx_ll_usb.c ****           {
 4475              		.loc 1 2136 11 is_stmt 1 view .LVU1454
2136:Drivers/STM32F4xx_HAL_Driver/Src/stm32f4xx_ll_usb.c ****           {
 4476              		.loc 1 2136 21 is_stmt 0 view .LVU1455
 4477 00bc 019B     		ldr	r3, [sp, #4]
2136:Drivers/STM32F4xx_HAL_Driver/Src/stm32f4xx_ll_usb.c ****           {
 4478              		.loc 1 2136 14 view .LVU1456
 4479 00be B3F57A7F 		cmp	r3, #1000
 4480 00c2 10D8     		bhi	.L284
2140:Drivers/STM32F4xx_HAL_Driver/Src/stm32f4xx_ll_usb.c ****       }
 4481              		.loc 1 2140 17 is_stmt 1 view .LVU1457
2140:Drivers/STM32F4xx_HAL_Driver/Src/stm32f4xx_ll_usb.c ****       }
 4482              		.loc 1 2140 33 is_stmt 0 view .LVU1458
 4483 00c4 1368     		ldr	r3, [r2]
2140:Drivers/STM32F4xx_HAL_Driver/Src/stm32f4xx_ll_usb.c ****       }
 4484              		.loc 1 2140 9 view .LVU1459
 4485 00c6 002B     		cmp	r3, #0
 4486 00c8 F5DB     		blt	.L289
 4487 00ca 0CE0     		b	.L284
 4488              	.L288:
2144:Drivers/STM32F4xx_HAL_Driver/Src/stm32f4xx_ll_usb.c ****       }
 4489              		.loc 1 2144 9 is_stmt 1 view .LVU1460
2144:Drivers/STM32F4xx_HAL_Driver/Src/stm32f4xx_ll_usb.c ****       }
 4490              		.loc 1 2144 32 is_stmt 0 view .LVU1461
 4491 00cc D1F80035 		ldr	r3, [r1, #1280]
 4492 00d0 43F00043 		orr	r3, r3, #-2147483648
 4493 00d4 C1F80035 		str	r3, [r1, #1280]
ARM GAS  C:\Users\ashto\AppData\Local\Temp\ccdF3pho.s 			page 137


 4494 00d8 05E0     		b	.L284
 4495              	.L287:
2149:Drivers/STM32F4xx_HAL_Driver/Src/stm32f4xx_ll_usb.c ****     }
 4496              		.loc 1 2149 7 is_stmt 1 view .LVU1462
2149:Drivers/STM32F4xx_HAL_Driver/Src/stm32f4xx_ll_usb.c ****     }
 4497              		.loc 1 2149 30 is_stmt 0 view .LVU1463
 4498 00da D1F80035 		ldr	r3, [r1, #1280]
 4499 00de 43F00043 		orr	r3, r3, #-2147483648
 4500 00e2 C1F80035 		str	r3, [r1, #1280]
 4501              	.L284:
2169:Drivers/STM32F4xx_HAL_Driver/Src/stm32f4xx_ll_usb.c ****     }
2170:Drivers/STM32F4xx_HAL_Driver/Src/stm32f4xx_ll_usb.c ****     else
2171:Drivers/STM32F4xx_HAL_Driver/Src/stm32f4xx_ll_usb.c ****     {
2172:Drivers/STM32F4xx_HAL_Driver/Src/stm32f4xx_ll_usb.c ****       USBx_HC(hcnum)->HCCHAR |= USB_OTG_HCCHAR_CHENA;
2173:Drivers/STM32F4xx_HAL_Driver/Src/stm32f4xx_ll_usb.c ****     }
2174:Drivers/STM32F4xx_HAL_Driver/Src/stm32f4xx_ll_usb.c ****   }
2175:Drivers/STM32F4xx_HAL_Driver/Src/stm32f4xx_ll_usb.c **** 
2176:Drivers/STM32F4xx_HAL_Driver/Src/stm32f4xx_ll_usb.c ****   return HAL_OK;
2177:Drivers/STM32F4xx_HAL_Driver/Src/stm32f4xx_ll_usb.c **** }
 4502              		.loc 1 2177 1 view .LVU1464
 4503 00e6 0020     		movs	r0, #0
 4504              	.LVL354:
 4505              		.loc 1 2177 1 view .LVU1465
 4506 00e8 03B0     		add	sp, sp, #12
 4507              	.LCFI60:
 4508              		.cfi_remember_state
 4509              		.cfi_def_cfa_offset 12
 4510              		@ sp needed
 4511 00ea 70BC     		pop	{r4, r5, r6}
 4512              	.LCFI61:
 4513              		.cfi_restore 6
 4514              		.cfi_restore 5
 4515              		.cfi_restore 4
 4516              		.cfi_def_cfa_offset 0
 4517 00ec 7047     		bx	lr
 4518              	.LVL355:
 4519              	.L290:
 4520              	.LCFI62:
 4521              		.cfi_restore_state
2172:Drivers/STM32F4xx_HAL_Driver/Src/stm32f4xx_ll_usb.c ****     }
 4522              		.loc 1 2172 7 is_stmt 1 view .LVU1466
2172:Drivers/STM32F4xx_HAL_Driver/Src/stm32f4xx_ll_usb.c ****     }
 4523              		.loc 1 2172 30 is_stmt 0 view .LVU1467
 4524 00ee D1F80035 		ldr	r3, [r1, #1280]
 4525 00f2 43F00043 		orr	r3, r3, #-2147483648
 4526 00f6 C1F80035 		str	r3, [r1, #1280]
 4527 00fa F4E7     		b	.L284
 4528              		.cfi_endproc
 4529              	.LFE178:
 4531              		.section	.text.USB_DoPing,"ax",%progbits
 4532              		.align	1
 4533              		.global	USB_DoPing
 4534              		.syntax unified
 4535              		.thumb
 4536              		.thumb_func
 4538              	USB_DoPing:
 4539              	.LVL356:
ARM GAS  C:\Users\ashto\AppData\Local\Temp\ccdF3pho.s 			page 138


 4540              	.LFB179:
2178:Drivers/STM32F4xx_HAL_Driver/Src/stm32f4xx_ll_usb.c **** 
2179:Drivers/STM32F4xx_HAL_Driver/Src/stm32f4xx_ll_usb.c **** /**
2180:Drivers/STM32F4xx_HAL_Driver/Src/stm32f4xx_ll_usb.c ****   * @brief  Initiate Do Ping protocol
2181:Drivers/STM32F4xx_HAL_Driver/Src/stm32f4xx_ll_usb.c ****   * @param  USBx  Selected device
2182:Drivers/STM32F4xx_HAL_Driver/Src/stm32f4xx_ll_usb.c ****   * @param  hc_num  Host Channel number
2183:Drivers/STM32F4xx_HAL_Driver/Src/stm32f4xx_ll_usb.c ****   *         This parameter can be a value from 1 to 15
2184:Drivers/STM32F4xx_HAL_Driver/Src/stm32f4xx_ll_usb.c ****   * @retval HAL state
2185:Drivers/STM32F4xx_HAL_Driver/Src/stm32f4xx_ll_usb.c ****   */
2186:Drivers/STM32F4xx_HAL_Driver/Src/stm32f4xx_ll_usb.c **** HAL_StatusTypeDef USB_DoPing(const USB_OTG_GlobalTypeDef *USBx, uint8_t ch_num)
2187:Drivers/STM32F4xx_HAL_Driver/Src/stm32f4xx_ll_usb.c **** {
 4541              		.loc 1 2187 1 is_stmt 1 view -0
 4542              		.cfi_startproc
 4543              		@ args = 0, pretend = 0, frame = 0
 4544              		@ frame_needed = 0, uses_anonymous_args = 0
 4545              		@ link register save eliminated.
2188:Drivers/STM32F4xx_HAL_Driver/Src/stm32f4xx_ll_usb.c ****   uint32_t USBx_BASE = (uint32_t)USBx;
 4546              		.loc 1 2188 3 view .LVU1469
2189:Drivers/STM32F4xx_HAL_Driver/Src/stm32f4xx_ll_usb.c ****   uint32_t chnum = (uint32_t)ch_num;
 4547              		.loc 1 2189 3 view .LVU1470
2190:Drivers/STM32F4xx_HAL_Driver/Src/stm32f4xx_ll_usb.c ****   uint32_t num_packets = 1U;
 4548              		.loc 1 2190 3 view .LVU1471
2191:Drivers/STM32F4xx_HAL_Driver/Src/stm32f4xx_ll_usb.c ****   uint32_t tmpreg;
 4549              		.loc 1 2191 3 view .LVU1472
2192:Drivers/STM32F4xx_HAL_Driver/Src/stm32f4xx_ll_usb.c **** 
2193:Drivers/STM32F4xx_HAL_Driver/Src/stm32f4xx_ll_usb.c ****   USBx_HC(chnum)->HCTSIZ = ((num_packets << 19) & USB_OTG_HCTSIZ_PKTCNT) |
 4550              		.loc 1 2193 3 view .LVU1473
 4551 0000 00EB4111 		add	r1, r0, r1, lsl #5
 4552              	.LVL357:
 4553              		.loc 1 2193 26 is_stmt 0 view .LVU1474
 4554 0004 064A     		ldr	r2, .L294
 4555 0006 C1F81025 		str	r2, [r1, #1296]
2194:Drivers/STM32F4xx_HAL_Driver/Src/stm32f4xx_ll_usb.c ****                            USB_OTG_HCTSIZ_DOPING;
2195:Drivers/STM32F4xx_HAL_Driver/Src/stm32f4xx_ll_usb.c **** 
2196:Drivers/STM32F4xx_HAL_Driver/Src/stm32f4xx_ll_usb.c ****   /* Set host channel enable */
2197:Drivers/STM32F4xx_HAL_Driver/Src/stm32f4xx_ll_usb.c ****   tmpreg = USBx_HC(chnum)->HCCHAR;
 4556              		.loc 1 2197 3 is_stmt 1 view .LVU1475
 4557              		.loc 1 2197 10 is_stmt 0 view .LVU1476
 4558 000a D1F80035 		ldr	r3, [r1, #1280]
 4559              	.LVL358:
2198:Drivers/STM32F4xx_HAL_Driver/Src/stm32f4xx_ll_usb.c ****   tmpreg &= ~USB_OTG_HCCHAR_CHDIS;
 4560              		.loc 1 2198 3 is_stmt 1 view .LVU1477
 4561              		.loc 1 2198 10 is_stmt 0 view .LVU1478
 4562 000e 23F08043 		bic	r3, r3, #1073741824
 4563              	.LVL359:
2199:Drivers/STM32F4xx_HAL_Driver/Src/stm32f4xx_ll_usb.c ****   tmpreg |= USB_OTG_HCCHAR_CHENA;
 4564              		.loc 1 2199 3 is_stmt 1 view .LVU1479
 4565              		.loc 1 2199 10 is_stmt 0 view .LVU1480
 4566 0012 43F00043 		orr	r3, r3, #-2147483648
 4567              	.LVL360:
2200:Drivers/STM32F4xx_HAL_Driver/Src/stm32f4xx_ll_usb.c ****   USBx_HC(chnum)->HCCHAR = tmpreg;
 4568              		.loc 1 2200 3 is_stmt 1 view .LVU1481
 4569              		.loc 1 2200 26 is_stmt 0 view .LVU1482
 4570 0016 C1F80035 		str	r3, [r1, #1280]
2201:Drivers/STM32F4xx_HAL_Driver/Src/stm32f4xx_ll_usb.c **** 
2202:Drivers/STM32F4xx_HAL_Driver/Src/stm32f4xx_ll_usb.c ****   return HAL_OK;
 4571              		.loc 1 2202 3 is_stmt 1 view .LVU1483
ARM GAS  C:\Users\ashto\AppData\Local\Temp\ccdF3pho.s 			page 139


2203:Drivers/STM32F4xx_HAL_Driver/Src/stm32f4xx_ll_usb.c **** }
 4572              		.loc 1 2203 1 is_stmt 0 view .LVU1484
 4573 001a 0020     		movs	r0, #0
 4574              	.LVL361:
 4575              		.loc 1 2203 1 view .LVU1485
 4576 001c 7047     		bx	lr
 4577              	.L295:
 4578 001e 00BF     		.align	2
 4579              	.L294:
 4580 0020 00000880 		.word	-2146959360
 4581              		.cfi_endproc
 4582              	.LFE179:
 4584              		.section	.text.USB_HC_StartXfer,"ax",%progbits
 4585              		.align	1
 4586              		.global	USB_HC_StartXfer
 4587              		.syntax unified
 4588              		.thumb
 4589              		.thumb_func
 4591              	USB_HC_StartXfer:
 4592              	.LVL362:
 4593              	.LFB176:
1826:Drivers/STM32F4xx_HAL_Driver/Src/stm32f4xx_ll_usb.c ****   uint32_t USBx_BASE = (uint32_t)USBx;
 4594              		.loc 1 1826 1 is_stmt 1 view -0
 4595              		.cfi_startproc
 4596              		@ args = 0, pretend = 0, frame = 8
 4597              		@ frame_needed = 0, uses_anonymous_args = 0
1826:Drivers/STM32F4xx_HAL_Driver/Src/stm32f4xx_ll_usb.c ****   uint32_t USBx_BASE = (uint32_t)USBx;
 4598              		.loc 1 1826 1 is_stmt 0 view .LVU1487
 4599 0000 70B5     		push	{r4, r5, r6, lr}
 4600              	.LCFI63:
 4601              		.cfi_def_cfa_offset 16
 4602              		.cfi_offset 4, -16
 4603              		.cfi_offset 5, -12
 4604              		.cfi_offset 6, -8
 4605              		.cfi_offset 14, -4
 4606 0002 84B0     		sub	sp, sp, #16
 4607              	.LCFI64:
 4608              		.cfi_def_cfa_offset 32
1827:Drivers/STM32F4xx_HAL_Driver/Src/stm32f4xx_ll_usb.c ****   uint32_t ch_num = (uint32_t)hc->ch_num;
 4609              		.loc 1 1827 3 is_stmt 1 view .LVU1488
 4610              	.LVL363:
1828:Drivers/STM32F4xx_HAL_Driver/Src/stm32f4xx_ll_usb.c ****   __IO uint32_t tmpreg;
 4611              		.loc 1 1828 3 view .LVU1489
1828:Drivers/STM32F4xx_HAL_Driver/Src/stm32f4xx_ll_usb.c ****   __IO uint32_t tmpreg;
 4612              		.loc 1 1828 33 is_stmt 0 view .LVU1490
 4613 0004 4B78     		ldrb	r3, [r1, #1]	@ zero_extendqisi2
 4614              	.LVL364:
1829:Drivers/STM32F4xx_HAL_Driver/Src/stm32f4xx_ll_usb.c ****   uint8_t  is_oddframe;
 4615              		.loc 1 1829 3 is_stmt 1 view .LVU1491
1830:Drivers/STM32F4xx_HAL_Driver/Src/stm32f4xx_ll_usb.c ****   uint16_t len_words;
 4616              		.loc 1 1830 3 view .LVU1492
1831:Drivers/STM32F4xx_HAL_Driver/Src/stm32f4xx_ll_usb.c ****   uint16_t num_packets;
 4617              		.loc 1 1831 3 view .LVU1493
1832:Drivers/STM32F4xx_HAL_Driver/Src/stm32f4xx_ll_usb.c ****   uint16_t max_hc_pkt_count = HC_MAX_PKT_CNT;
 4618              		.loc 1 1832 3 view .LVU1494
1833:Drivers/STM32F4xx_HAL_Driver/Src/stm32f4xx_ll_usb.c **** 
 4619              		.loc 1 1833 3 view .LVU1495
ARM GAS  C:\Users\ashto\AppData\Local\Temp\ccdF3pho.s 			page 140


1836:Drivers/STM32F4xx_HAL_Driver/Src/stm32f4xx_ll_usb.c ****   {
 4620              		.loc 1 1836 3 view .LVU1496
1836:Drivers/STM32F4xx_HAL_Driver/Src/stm32f4xx_ll_usb.c ****   {
 4621              		.loc 1 1836 6 is_stmt 0 view .LVU1497
 4622 0006 A14C     		ldr	r4, .L338
 4623 0008 A042     		cmp	r0, r4
 4624 000a 13D0     		beq	.L330
 4625              	.L297:
1860:Drivers/STM32F4xx_HAL_Driver/Src/stm32f4xx_ll_usb.c ****   {
 4626              		.loc 1 1860 3 is_stmt 1 view .LVU1498
1860:Drivers/STM32F4xx_HAL_Driver/Src/stm32f4xx_ll_usb.c ****   {
 4627              		.loc 1 1860 9 is_stmt 0 view .LVU1499
 4628 000c 8C79     		ldrb	r4, [r1, #6]	@ zero_extendqisi2
1860:Drivers/STM32F4xx_HAL_Driver/Src/stm32f4xx_ll_usb.c ****   {
 4629              		.loc 1 1860 6 view .LVU1500
 4630 000e 012C     		cmp	r4, #1
 4631 0010 2AD0     		beq	.L331
1918:Drivers/STM32F4xx_HAL_Driver/Src/stm32f4xx_ll_usb.c ****     {
 4632              		.loc 1 1918 5 is_stmt 1 view .LVU1501
1918:Drivers/STM32F4xx_HAL_Driver/Src/stm32f4xx_ll_usb.c ****     {
 4633              		.loc 1 1918 11 is_stmt 0 view .LVU1502
 4634 0012 0D6A     		ldr	r5, [r1, #32]
1918:Drivers/STM32F4xx_HAL_Driver/Src/stm32f4xx_ll_usb.c ****     {
 4635              		.loc 1 1918 8 view .LVU1503
 4636 0014 002D     		cmp	r5, #0
 4637 0016 5BD0     		beq	.L328
1920:Drivers/STM32F4xx_HAL_Driver/Src/stm32f4xx_ll_usb.c **** 
 4638              		.loc 1 1920 7 is_stmt 1 view .LVU1504
1920:Drivers/STM32F4xx_HAL_Driver/Src/stm32f4xx_ll_usb.c **** 
 4639              		.loc 1 1920 50 is_stmt 0 view .LVU1505
 4640 0018 8E8A     		ldrh	r6, [r1, #20]
1920:Drivers/STM32F4xx_HAL_Driver/Src/stm32f4xx_ll_usb.c **** 
 4641              		.loc 1 1920 46 view .LVU1506
 4642 001a AC19     		adds	r4, r5, r6
1920:Drivers/STM32F4xx_HAL_Driver/Src/stm32f4xx_ll_usb.c **** 
 4643              		.loc 1 1920 63 view .LVU1507
 4644 001c 013C     		subs	r4, r4, #1
1920:Drivers/STM32F4xx_HAL_Driver/Src/stm32f4xx_ll_usb.c **** 
 4645              		.loc 1 1920 69 view .LVU1508
 4646 001e B4FBF6F4 		udiv	r4, r4, r6
1920:Drivers/STM32F4xx_HAL_Driver/Src/stm32f4xx_ll_usb.c **** 
 4647              		.loc 1 1920 19 view .LVU1509
 4648 0022 A4B2     		uxth	r4, r4
 4649              	.LVL365:
1922:Drivers/STM32F4xx_HAL_Driver/Src/stm32f4xx_ll_usb.c ****       {
 4650              		.loc 1 1922 7 is_stmt 1 view .LVU1510
1922:Drivers/STM32F4xx_HAL_Driver/Src/stm32f4xx_ll_usb.c ****       {
 4651              		.loc 1 1922 10 is_stmt 0 view .LVU1511
 4652 0024 B4F5807F 		cmp	r4, #256
 4653 0028 53D9     		bls	.L309
1924:Drivers/STM32F4xx_HAL_Driver/Src/stm32f4xx_ll_usb.c ****         hc->XferSize = (uint32_t)num_packets * hc->max_packet;
 4654              		.loc 1 1924 9 is_stmt 1 view .LVU1512
 4655              	.LVL366:
1925:Drivers/STM32F4xx_HAL_Driver/Src/stm32f4xx_ll_usb.c ****       }
 4656              		.loc 1 1925 9 view .LVU1513
1925:Drivers/STM32F4xx_HAL_Driver/Src/stm32f4xx_ll_usb.c ****       }
 4657              		.loc 1 1925 46 is_stmt 0 view .LVU1514
ARM GAS  C:\Users\ashto\AppData\Local\Temp\ccdF3pho.s 			page 141


 4658 002a 3602     		lsls	r6, r6, #8
1925:Drivers/STM32F4xx_HAL_Driver/Src/stm32f4xx_ll_usb.c ****       }
 4659              		.loc 1 1925 22 view .LVU1515
 4660 002c CE61     		str	r6, [r1, #28]
1924:Drivers/STM32F4xx_HAL_Driver/Src/stm32f4xx_ll_usb.c ****         hc->XferSize = (uint32_t)num_packets * hc->max_packet;
 4661              		.loc 1 1924 21 view .LVU1516
 4662 002e 4FF48074 		mov	r4, #256
 4663 0032 4EE0     		b	.L309
 4664              	.LVL367:
 4665              	.L330:
1839:Drivers/STM32F4xx_HAL_Driver/Src/stm32f4xx_ll_usb.c ****     {
 4666              		.loc 1 1839 5 is_stmt 1 view .LVU1517
1839:Drivers/STM32F4xx_HAL_Driver/Src/stm32f4xx_ll_usb.c ****     {
 4667              		.loc 1 1839 8 is_stmt 0 view .LVU1518
 4668 0034 012A     		cmp	r2, #1
 4669 0036 07D0     		beq	.L332
1851:Drivers/STM32F4xx_HAL_Driver/Src/stm32f4xx_ll_usb.c ****       {
 4670              		.loc 1 1851 7 is_stmt 1 view .LVU1519
1851:Drivers/STM32F4xx_HAL_Driver/Src/stm32f4xx_ll_usb.c ****       {
 4671              		.loc 1 1851 40 is_stmt 0 view .LVU1520
 4672 0038 8C88     		ldrh	r4, [r1, #4]
1851:Drivers/STM32F4xx_HAL_Driver/Src/stm32f4xx_ll_usb.c ****       {
 4673              		.loc 1 1851 10 view .LVU1521
 4674 003a B4F5807F 		cmp	r4, #256
 4675 003e E5D1     		bne	.L297
1853:Drivers/STM32F4xx_HAL_Driver/Src/stm32f4xx_ll_usb.c ****         return HAL_OK;
 4676              		.loc 1 1853 9 is_stmt 1 view .LVU1522
1853:Drivers/STM32F4xx_HAL_Driver/Src/stm32f4xx_ll_usb.c ****         return HAL_OK;
 4677              		.loc 1 1853 15 is_stmt 0 view .LVU1523
 4678 0040 1946     		mov	r1, r3
 4679              	.LVL368:
1853:Drivers/STM32F4xx_HAL_Driver/Src/stm32f4xx_ll_usb.c ****         return HAL_OK;
 4680              		.loc 1 1853 15 view .LVU1524
 4681 0042 FFF7FEFF 		bl	USB_DoPing
 4682              	.LVL369:
1854:Drivers/STM32F4xx_HAL_Driver/Src/stm32f4xx_ll_usb.c ****       }
 4683              		.loc 1 1854 9 is_stmt 1 view .LVU1525
1854:Drivers/STM32F4xx_HAL_Driver/Src/stm32f4xx_ll_usb.c ****       }
 4684              		.loc 1 1854 16 is_stmt 0 view .LVU1526
 4685 0046 1DE1     		b	.L300
 4686              	.LVL370:
 4687              	.L332:
1841:Drivers/STM32F4xx_HAL_Driver/Src/stm32f4xx_ll_usb.c ****       {
 4688              		.loc 1 1841 7 is_stmt 1 view .LVU1527
1841:Drivers/STM32F4xx_HAL_Driver/Src/stm32f4xx_ll_usb.c ****       {
 4689              		.loc 1 1841 15 is_stmt 0 view .LVU1528
 4690 0048 8C7C     		ldrb	r4, [r1, #18]	@ zero_extendqisi2
1841:Drivers/STM32F4xx_HAL_Driver/Src/stm32f4xx_ll_usb.c ****       {
 4691              		.loc 1 1841 10 view .LVU1529
 4692 004a 0CB1     		cbz	r4, .L299
1841:Drivers/STM32F4xx_HAL_Driver/Src/stm32f4xx_ll_usb.c ****       {
 4693              		.loc 1 1841 42 discriminator 2 view .LVU1530
 4694 004c 022C     		cmp	r4, #2
 4695 004e DDD1     		bne	.L297
 4696              	.L299:
1841:Drivers/STM32F4xx_HAL_Driver/Src/stm32f4xx_ll_usb.c ****       {
 4697              		.loc 1 1841 82 discriminator 3 view .LVU1531
ARM GAS  C:\Users\ashto\AppData\Local\Temp\ccdF3pho.s 			page 142


 4698 0050 8C79     		ldrb	r4, [r1, #6]	@ zero_extendqisi2
1841:Drivers/STM32F4xx_HAL_Driver/Src/stm32f4xx_ll_usb.c ****       {
 4699              		.loc 1 1841 76 discriminator 3 view .LVU1532
 4700 0052 002C     		cmp	r4, #0
 4701 0054 DAD1     		bne	.L297
1844:Drivers/STM32F4xx_HAL_Driver/Src/stm32f4xx_ll_usb.c ****                                                  USB_OTG_HCINTMSK_ACKM |
 4702              		.loc 1 1844 9 is_stmt 1 view .LVU1533
1844:Drivers/STM32F4xx_HAL_Driver/Src/stm32f4xx_ll_usb.c ****                                                  USB_OTG_HCINTMSK_ACKM |
 4703              		.loc 1 1844 45 is_stmt 0 view .LVU1534
 4704 0056 00EB4314 		add	r4, r0, r3, lsl #5
 4705 005a D4F80C55 		ldr	r5, [r4, #1292]
 4706 005e 25F07005 		bic	r5, r5, #112
 4707 0062 C4F80C55 		str	r5, [r4, #1292]
 4708 0066 D1E7     		b	.L297
 4709              	.L331:
1863:Drivers/STM32F4xx_HAL_Driver/Src/stm32f4xx_ll_usb.c **** 
 4710              		.loc 1 1863 5 is_stmt 1 view .LVU1535
 4711              	.LVL371:
1865:Drivers/STM32F4xx_HAL_Driver/Src/stm32f4xx_ll_usb.c ****     {
 4712              		.loc 1 1865 5 view .LVU1536
1865:Drivers/STM32F4xx_HAL_Driver/Src/stm32f4xx_ll_usb.c ****     {
 4713              		.loc 1 1865 11 is_stmt 0 view .LVU1537
 4714 0068 CC78     		ldrb	r4, [r1, #3]	@ zero_extendqisi2
1865:Drivers/STM32F4xx_HAL_Driver/Src/stm32f4xx_ll_usb.c ****     {
 4715              		.loc 1 1865 8 view .LVU1538
 4716 006a 1CB1     		cbz	r4, .L302
1867:Drivers/STM32F4xx_HAL_Driver/Src/stm32f4xx_ll_usb.c ****     }
 4717              		.loc 1 1867 7 is_stmt 1 view .LVU1539
1867:Drivers/STM32F4xx_HAL_Driver/Src/stm32f4xx_ll_usb.c ****     }
 4718              		.loc 1 1867 48 is_stmt 0 view .LVU1540
 4719 006c 8C8A     		ldrh	r4, [r1, #20]
1867:Drivers/STM32F4xx_HAL_Driver/Src/stm32f4xx_ll_usb.c ****     }
 4720              		.loc 1 1867 20 view .LVU1541
 4721 006e CC61     		str	r4, [r1, #28]
1863:Drivers/STM32F4xx_HAL_Driver/Src/stm32f4xx_ll_usb.c **** 
 4722              		.loc 1 1863 17 view .LVU1542
 4723 0070 0124     		movs	r4, #1
 4724 0072 35E0     		b	.L303
 4725              	.L302:
1871:Drivers/STM32F4xx_HAL_Driver/Src/stm32f4xx_ll_usb.c ****       {
 4726              		.loc 1 1871 7 is_stmt 1 view .LVU1543
1871:Drivers/STM32F4xx_HAL_Driver/Src/stm32f4xx_ll_usb.c ****       {
 4727              		.loc 1 1871 13 is_stmt 0 view .LVU1544
 4728 0074 8C7C     		ldrb	r4, [r1, #18]	@ zero_extendqisi2
1871:Drivers/STM32F4xx_HAL_Driver/Src/stm32f4xx_ll_usb.c ****       {
 4729              		.loc 1 1871 10 view .LVU1545
 4730 0076 012C     		cmp	r4, #1
 4731 0078 05D0     		beq	.L333
1904:Drivers/STM32F4xx_HAL_Driver/Src/stm32f4xx_ll_usb.c ****         {
 4732              		.loc 1 1904 9 is_stmt 1 view .LVU1546
1904:Drivers/STM32F4xx_HAL_Driver/Src/stm32f4xx_ll_usb.c ****         {
 4733              		.loc 1 1904 12 is_stmt 0 view .LVU1547
 4734 007a 012A     		cmp	r2, #1
 4735 007c 21D0     		beq	.L334
 4736              	.L308:
1910:Drivers/STM32F4xx_HAL_Driver/Src/stm32f4xx_ll_usb.c ****         }
 4737              		.loc 1 1910 11 is_stmt 1 view .LVU1548
ARM GAS  C:\Users\ashto\AppData\Local\Temp\ccdF3pho.s 			page 143


1910:Drivers/STM32F4xx_HAL_Driver/Src/stm32f4xx_ll_usb.c ****         }
 4738              		.loc 1 1910 28 is_stmt 0 view .LVU1549
 4739 007e 0C6A     		ldr	r4, [r1, #32]
1910:Drivers/STM32F4xx_HAL_Driver/Src/stm32f4xx_ll_usb.c ****         }
 4740              		.loc 1 1910 24 view .LVU1550
 4741 0080 CC61     		str	r4, [r1, #28]
1863:Drivers/STM32F4xx_HAL_Driver/Src/stm32f4xx_ll_usb.c **** 
 4742              		.loc 1 1863 17 view .LVU1551
 4743 0082 0124     		movs	r4, #1
 4744 0084 2CE0     		b	.L303
 4745              	.L333:
1873:Drivers/STM32F4xx_HAL_Driver/Src/stm32f4xx_ll_usb.c ****         {
 4746              		.loc 1 1873 9 is_stmt 1 view .LVU1552
1873:Drivers/STM32F4xx_HAL_Driver/Src/stm32f4xx_ll_usb.c ****         {
 4747              		.loc 1 1873 15 is_stmt 0 view .LVU1553
 4748 0086 0C6A     		ldr	r4, [r1, #32]
1873:Drivers/STM32F4xx_HAL_Driver/Src/stm32f4xx_ll_usb.c ****         {
 4749              		.loc 1 1873 12 view .LVU1554
 4750 0088 BC2C     		cmp	r4, #188
 4751 008a 0DD9     		bls	.L305
1876:Drivers/STM32F4xx_HAL_Driver/Src/stm32f4xx_ll_usb.c ****           hc->xfer_len = hc->XferSize;
 4752              		.loc 1 1876 11 is_stmt 1 view .LVU1555
1876:Drivers/STM32F4xx_HAL_Driver/Src/stm32f4xx_ll_usb.c ****           hc->xfer_len = hc->XferSize;
 4753              		.loc 1 1876 28 is_stmt 0 view .LVU1556
 4754 008c 8C8A     		ldrh	r4, [r1, #20]
1876:Drivers/STM32F4xx_HAL_Driver/Src/stm32f4xx_ll_usb.c ****           hc->xfer_len = hc->XferSize;
 4755              		.loc 1 1876 24 view .LVU1557
 4756 008e CC61     		str	r4, [r1, #28]
1877:Drivers/STM32F4xx_HAL_Driver/Src/stm32f4xx_ll_usb.c **** 
 4757              		.loc 1 1877 11 is_stmt 1 view .LVU1558
1877:Drivers/STM32F4xx_HAL_Driver/Src/stm32f4xx_ll_usb.c **** 
 4758              		.loc 1 1877 24 is_stmt 0 view .LVU1559
 4759 0090 0C62     		str	r4, [r1, #32]
1879:Drivers/STM32F4xx_HAL_Driver/Src/stm32f4xx_ll_usb.c ****           {
 4760              		.loc 1 1879 11 is_stmt 1 view .LVU1560
1879:Drivers/STM32F4xx_HAL_Driver/Src/stm32f4xx_ll_usb.c ****           {
 4761              		.loc 1 1879 18 is_stmt 0 view .LVU1561
 4762 0092 CC68     		ldr	r4, [r1, #12]
1879:Drivers/STM32F4xx_HAL_Driver/Src/stm32f4xx_ll_usb.c ****           {
 4763              		.loc 1 1879 54 view .LVU1562
 4764 0094 013C     		subs	r4, r4, #1
1879:Drivers/STM32F4xx_HAL_Driver/Src/stm32f4xx_ll_usb.c ****           {
 4765              		.loc 1 1879 14 view .LVU1563
 4766 0096 012C     		cmp	r4, #1
 4767 0098 02D9     		bls	.L335
1885:Drivers/STM32F4xx_HAL_Driver/Src/stm32f4xx_ll_usb.c ****           }
 4768              		.loc 1 1885 13 is_stmt 1 view .LVU1564
1885:Drivers/STM32F4xx_HAL_Driver/Src/stm32f4xx_ll_usb.c ****           }
 4769              		.loc 1 1885 34 is_stmt 0 view .LVU1565
 4770 009a 0124     		movs	r4, #1
 4771 009c CC60     		str	r4, [r1, #12]
 4772 009e 1FE0     		b	.L303
 4773              	.L335:
1881:Drivers/STM32F4xx_HAL_Driver/Src/stm32f4xx_ll_usb.c ****           }
 4774              		.loc 1 1881 13 is_stmt 1 view .LVU1566
1881:Drivers/STM32F4xx_HAL_Driver/Src/stm32f4xx_ll_usb.c ****           }
 4775              		.loc 1 1881 34 is_stmt 0 view .LVU1567
ARM GAS  C:\Users\ashto\AppData\Local\Temp\ccdF3pho.s 			page 144


 4776 00a0 0224     		movs	r4, #2
 4777 00a2 CC60     		str	r4, [r1, #12]
1863:Drivers/STM32F4xx_HAL_Driver/Src/stm32f4xx_ll_usb.c **** 
 4778              		.loc 1 1863 17 view .LVU1568
 4779 00a4 0124     		movs	r4, #1
 4780 00a6 1BE0     		b	.L303
 4781              	.L305:
1890:Drivers/STM32F4xx_HAL_Driver/Src/stm32f4xx_ll_usb.c **** 
 4782              		.loc 1 1890 11 is_stmt 1 view .LVU1569
1890:Drivers/STM32F4xx_HAL_Driver/Src/stm32f4xx_ll_usb.c **** 
 4783              		.loc 1 1890 24 is_stmt 0 view .LVU1570
 4784 00a8 CC61     		str	r4, [r1, #28]
1892:Drivers/STM32F4xx_HAL_Driver/Src/stm32f4xx_ll_usb.c ****           {
 4785              		.loc 1 1892 11 is_stmt 1 view .LVU1571
1892:Drivers/STM32F4xx_HAL_Driver/Src/stm32f4xx_ll_usb.c ****           {
 4786              		.loc 1 1892 18 is_stmt 0 view .LVU1572
 4787 00aa CC68     		ldr	r4, [r1, #12]
1892:Drivers/STM32F4xx_HAL_Driver/Src/stm32f4xx_ll_usb.c ****           {
 4788              		.loc 1 1892 54 view .LVU1573
 4789 00ac 013C     		subs	r4, r4, #1
1892:Drivers/STM32F4xx_HAL_Driver/Src/stm32f4xx_ll_usb.c ****           {
 4790              		.loc 1 1892 14 view .LVU1574
 4791 00ae 012C     		cmp	r4, #1
 4792 00b0 03D9     		bls	.L307
1894:Drivers/STM32F4xx_HAL_Driver/Src/stm32f4xx_ll_usb.c ****           }
 4793              		.loc 1 1894 13 is_stmt 1 view .LVU1575
1894:Drivers/STM32F4xx_HAL_Driver/Src/stm32f4xx_ll_usb.c ****           }
 4794              		.loc 1 1894 34 is_stmt 0 view .LVU1576
 4795 00b2 0424     		movs	r4, #4
 4796 00b4 CC60     		str	r4, [r1, #12]
1863:Drivers/STM32F4xx_HAL_Driver/Src/stm32f4xx_ll_usb.c **** 
 4797              		.loc 1 1863 17 view .LVU1577
 4798 00b6 0124     		movs	r4, #1
 4799 00b8 12E0     		b	.L303
 4800              	.L307:
1898:Drivers/STM32F4xx_HAL_Driver/Src/stm32f4xx_ll_usb.c ****           }
 4801              		.loc 1 1898 13 is_stmt 1 view .LVU1578
1898:Drivers/STM32F4xx_HAL_Driver/Src/stm32f4xx_ll_usb.c ****           }
 4802              		.loc 1 1898 34 is_stmt 0 view .LVU1579
 4803 00ba 0324     		movs	r4, #3
 4804 00bc CC60     		str	r4, [r1, #12]
1863:Drivers/STM32F4xx_HAL_Driver/Src/stm32f4xx_ll_usb.c **** 
 4805              		.loc 1 1863 17 view .LVU1580
 4806 00be 0124     		movs	r4, #1
 4807 00c0 0EE0     		b	.L303
 4808              	.L334:
1904:Drivers/STM32F4xx_HAL_Driver/Src/stm32f4xx_ll_usb.c ****         {
 4809              		.loc 1 1904 31 discriminator 1 view .LVU1581
 4810 00c2 0D6A     		ldr	r5, [r1, #32]
1904:Drivers/STM32F4xx_HAL_Driver/Src/stm32f4xx_ll_usb.c ****         {
 4811              		.loc 1 1904 46 discriminator 1 view .LVU1582
 4812 00c4 8C8A     		ldrh	r4, [r1, #20]
1904:Drivers/STM32F4xx_HAL_Driver/Src/stm32f4xx_ll_usb.c ****         {
 4813              		.loc 1 1904 25 discriminator 1 view .LVU1583
 4814 00c6 A542     		cmp	r5, r4
 4815 00c8 D9D9     		bls	.L308
1906:Drivers/STM32F4xx_HAL_Driver/Src/stm32f4xx_ll_usb.c ****         }
ARM GAS  C:\Users\ashto\AppData\Local\Temp\ccdF3pho.s 			page 145


 4816              		.loc 1 1906 11 is_stmt 1 view .LVU1584
1906:Drivers/STM32F4xx_HAL_Driver/Src/stm32f4xx_ll_usb.c ****         }
 4817              		.loc 1 1906 24 is_stmt 0 view .LVU1585
 4818 00ca CC61     		str	r4, [r1, #28]
1863:Drivers/STM32F4xx_HAL_Driver/Src/stm32f4xx_ll_usb.c **** 
 4819              		.loc 1 1863 17 view .LVU1586
 4820 00cc 0124     		movs	r4, #1
1906:Drivers/STM32F4xx_HAL_Driver/Src/stm32f4xx_ll_usb.c ****         }
 4821              		.loc 1 1906 24 view .LVU1587
 4822 00ce 07E0     		b	.L303
 4823              	.LVL372:
 4824              	.L328:
1930:Drivers/STM32F4xx_HAL_Driver/Src/stm32f4xx_ll_usb.c ****     }
 4825              		.loc 1 1930 19 view .LVU1588
 4826 00d0 0124     		movs	r4, #1
 4827              	.L309:
 4828              	.LVL373:
1937:Drivers/STM32F4xx_HAL_Driver/Src/stm32f4xx_ll_usb.c ****     {
 4829              		.loc 1 1937 5 is_stmt 1 view .LVU1589
1937:Drivers/STM32F4xx_HAL_Driver/Src/stm32f4xx_ll_usb.c ****     {
 4830              		.loc 1 1937 11 is_stmt 0 view .LVU1590
 4831 00d2 CE78     		ldrb	r6, [r1, #3]	@ zero_extendqisi2
1937:Drivers/STM32F4xx_HAL_Driver/Src/stm32f4xx_ll_usb.c ****     {
 4832              		.loc 1 1937 8 view .LVU1591
 4833 00d4 002E     		cmp	r6, #0
 4834 00d6 5FD0     		beq	.L310
1939:Drivers/STM32F4xx_HAL_Driver/Src/stm32f4xx_ll_usb.c ****     }
 4835              		.loc 1 1939 7 is_stmt 1 view .LVU1592
1939:Drivers/STM32F4xx_HAL_Driver/Src/stm32f4xx_ll_usb.c ****     }
 4836              		.loc 1 1939 48 is_stmt 0 view .LVU1593
 4837 00d8 8D8A     		ldrh	r5, [r1, #20]
1939:Drivers/STM32F4xx_HAL_Driver/Src/stm32f4xx_ll_usb.c ****     }
 4838              		.loc 1 1939 44 view .LVU1594
 4839 00da 04FB05F5 		mul	r5, r4, r5
1939:Drivers/STM32F4xx_HAL_Driver/Src/stm32f4xx_ll_usb.c ****     }
 4840              		.loc 1 1939 20 view .LVU1595
 4841 00de CD61     		str	r5, [r1, #28]
 4842              	.LVL374:
 4843              	.L303:
1948:Drivers/STM32F4xx_HAL_Driver/Src/stm32f4xx_ll_usb.c ****                             (((uint32_t)num_packets << 19) & USB_OTG_HCTSIZ_PKTCNT) |
 4844              		.loc 1 1948 3 is_stmt 1 view .LVU1596
1948:Drivers/STM32F4xx_HAL_Driver/Src/stm32f4xx_ll_usb.c ****                             (((uint32_t)num_packets << 19) & USB_OTG_HCTSIZ_PKTCNT) |
 4845              		.loc 1 1948 43 is_stmt 0 view .LVU1597
 4846 00e0 CD69     		ldr	r5, [r1, #28]
 4847 00e2 C5F3120C 		ubfx	ip, r5, #0, #19
1949:Drivers/STM32F4xx_HAL_Driver/Src/stm32f4xx_ll_usb.c ****                             (((uint32_t)hc->data_pid << 29) & USB_OTG_HCTSIZ_DPID);
 4848              		.loc 1 1949 60 view .LVU1598
 4849 00e6 6A4D     		ldr	r5, .L338+4
 4850 00e8 05EAC444 		and	r4, r5, r4, lsl #19
 4851              	.LVL375:
1948:Drivers/STM32F4xx_HAL_Driver/Src/stm32f4xx_ll_usb.c ****                             (((uint32_t)num_packets << 19) & USB_OTG_HCTSIZ_PKTCNT) |
 4852              		.loc 1 1948 68 view .LVU1599
 4853 00ec 4CEA040C 		orr	ip, ip, r4
1950:Drivers/STM32F4xx_HAL_Driver/Src/stm32f4xx_ll_usb.c **** 
 4854              		.loc 1 1950 43 view .LVU1600
 4855 00f0 8C7D     		ldrb	r4, [r1, #22]	@ zero_extendqisi2
1950:Drivers/STM32F4xx_HAL_Driver/Src/stm32f4xx_ll_usb.c **** 
ARM GAS  C:\Users\ashto\AppData\Local\Temp\ccdF3pho.s 			page 146


 4856              		.loc 1 1950 54 view .LVU1601
 4857 00f2 6407     		lsls	r4, r4, #29
1950:Drivers/STM32F4xx_HAL_Driver/Src/stm32f4xx_ll_usb.c **** 
 4858              		.loc 1 1950 61 view .LVU1602
 4859 00f4 04F0C044 		and	r4, r4, #1610612736
1948:Drivers/STM32F4xx_HAL_Driver/Src/stm32f4xx_ll_usb.c ****                             (((uint32_t)num_packets << 19) & USB_OTG_HCTSIZ_PKTCNT) |
 4860              		.loc 1 1948 3 view .LVU1603
 4861 00f8 00EB4313 		add	r3, r0, r3, lsl #5
 4862              	.LVL376:
1948:Drivers/STM32F4xx_HAL_Driver/Src/stm32f4xx_ll_usb.c ****                             (((uint32_t)num_packets << 19) & USB_OTG_HCTSIZ_PKTCNT) |
 4863              		.loc 1 1948 3 view .LVU1604
 4864 00fc 03F5A06E 		add	lr, r3, #1280
1949:Drivers/STM32F4xx_HAL_Driver/Src/stm32f4xx_ll_usb.c ****                             (((uint32_t)hc->data_pid << 29) & USB_OTG_HCTSIZ_DPID);
 4865              		.loc 1 1949 85 view .LVU1605
 4866 0100 4CEA0404 		orr	r4, ip, r4
1948:Drivers/STM32F4xx_HAL_Driver/Src/stm32f4xx_ll_usb.c ****                             (((uint32_t)num_packets << 19) & USB_OTG_HCTSIZ_PKTCNT) |
 4867              		.loc 1 1948 27 view .LVU1606
 4868 0104 CEF81040 		str	r4, [lr, #16]
1952:Drivers/STM32F4xx_HAL_Driver/Src/stm32f4xx_ll_usb.c ****   {
 4869              		.loc 1 1952 3 is_stmt 1 view .LVU1607
1952:Drivers/STM32F4xx_HAL_Driver/Src/stm32f4xx_ll_usb.c ****   {
 4870              		.loc 1 1952 6 is_stmt 0 view .LVU1608
 4871 0108 12B1     		cbz	r2, .L311
1955:Drivers/STM32F4xx_HAL_Driver/Src/stm32f4xx_ll_usb.c ****   }
 4872              		.loc 1 1955 5 is_stmt 1 view .LVU1609
1955:Drivers/STM32F4xx_HAL_Driver/Src/stm32f4xx_ll_usb.c ****   }
 4873              		.loc 1 1955 42 is_stmt 0 view .LVU1610
 4874 010a 8C69     		ldr	r4, [r1, #24]
1955:Drivers/STM32F4xx_HAL_Driver/Src/stm32f4xx_ll_usb.c ****   }
 4875              		.loc 1 1955 28 view .LVU1611
 4876 010c CEF81440 		str	r4, [lr, #20]
 4877              	.L311:
1958:Drivers/STM32F4xx_HAL_Driver/Src/stm32f4xx_ll_usb.c ****   USBx_HC(ch_num)->HCCHAR &= ~USB_OTG_HCCHAR_ODDFRM;
 4878              		.loc 1 1958 3 is_stmt 1 view .LVU1612
1958:Drivers/STM32F4xx_HAL_Driver/Src/stm32f4xx_ll_usb.c ****   USBx_HC(ch_num)->HCCHAR &= ~USB_OTG_HCCHAR_ODDFRM;
 4879              		.loc 1 1958 29 is_stmt 0 view .LVU1613
 4880 0110 00F5806C 		add	ip, r0, #1024
1958:Drivers/STM32F4xx_HAL_Driver/Src/stm32f4xx_ll_usb.c ****   USBx_HC(ch_num)->HCCHAR &= ~USB_OTG_HCCHAR_ODDFRM;
 4881              		.loc 1 1958 38 view .LVU1614
 4882 0114 DCF80840 		ldr	r4, [ip, #8]
1958:Drivers/STM32F4xx_HAL_Driver/Src/stm32f4xx_ll_usb.c ****   USBx_HC(ch_num)->HCCHAR &= ~USB_OTG_HCCHAR_ODDFRM;
 4883              		.loc 1 1958 67 view .LVU1615
 4884 0118 14F0010F 		tst	r4, #1
 4885 011c 0CBF     		ite	eq
 4886 011e 0126     		moveq	r6, #1
 4887 0120 0026     		movne	r6, #0
 4888              	.LVL377:
1959:Drivers/STM32F4xx_HAL_Driver/Src/stm32f4xx_ll_usb.c ****   USBx_HC(ch_num)->HCCHAR |= (uint32_t)is_oddframe << 29;
 4889              		.loc 1 1959 3 is_stmt 1 view .LVU1616
1959:Drivers/STM32F4xx_HAL_Driver/Src/stm32f4xx_ll_usb.c ****   USBx_HC(ch_num)->HCCHAR |= (uint32_t)is_oddframe << 29;
 4890              		.loc 1 1959 27 is_stmt 0 view .LVU1617
 4891 0122 D3F80055 		ldr	r5, [r3, #1280]
 4892 0126 25F00055 		bic	r5, r5, #536870912
 4893 012a C3F80055 		str	r5, [r3, #1280]
1960:Drivers/STM32F4xx_HAL_Driver/Src/stm32f4xx_ll_usb.c **** 
 4894              		.loc 1 1960 3 is_stmt 1 view .LVU1618
1960:Drivers/STM32F4xx_HAL_Driver/Src/stm32f4xx_ll_usb.c **** 
ARM GAS  C:\Users\ashto\AppData\Local\Temp\ccdF3pho.s 			page 147


 4895              		.loc 1 1960 27 is_stmt 0 view .LVU1619
 4896 012e D3F80045 		ldr	r4, [r3, #1280]
 4897 0132 44EA4674 		orr	r4, r4, r6, lsl #29
 4898 0136 C3F80045 		str	r4, [r3, #1280]
1962:Drivers/STM32F4xx_HAL_Driver/Src/stm32f4xx_ll_usb.c ****   {
 4899              		.loc 1 1962 3 is_stmt 1 view .LVU1620
1962:Drivers/STM32F4xx_HAL_Driver/Src/stm32f4xx_ll_usb.c ****   {
 4900              		.loc 1 1962 9 is_stmt 0 view .LVU1621
 4901 013a 8C79     		ldrb	r4, [r1, #6]	@ zero_extendqisi2
1962:Drivers/STM32F4xx_HAL_Driver/Src/stm32f4xx_ll_usb.c ****   {
 4902              		.loc 1 1962 6 view .LVU1622
 4903 013c 012C     		cmp	r4, #1
 4904 013e 2DD0     		beq	.L336
2018:Drivers/STM32F4xx_HAL_Driver/Src/stm32f4xx_ll_usb.c ****   }
 4905              		.loc 1 2018 5 is_stmt 1 view .LVU1623
2018:Drivers/STM32F4xx_HAL_Driver/Src/stm32f4xx_ll_usb.c ****   }
 4906              		.loc 1 2018 39 is_stmt 0 view .LVU1624
 4907 0140 0024     		movs	r4, #0
 4908 0142 CEF80440 		str	r4, [lr, #4]
 4909              	.L316:
2022:Drivers/STM32F4xx_HAL_Driver/Src/stm32f4xx_ll_usb.c ****   tmpreg &= ~USB_OTG_HCCHAR_CHDIS;
 4910              		.loc 1 2022 3 is_stmt 1 view .LVU1625
2022:Drivers/STM32F4xx_HAL_Driver/Src/stm32f4xx_ll_usb.c ****   tmpreg &= ~USB_OTG_HCCHAR_CHDIS;
 4911              		.loc 1 2022 27 is_stmt 0 view .LVU1626
 4912 0146 D3F80045 		ldr	r4, [r3, #1280]
2022:Drivers/STM32F4xx_HAL_Driver/Src/stm32f4xx_ll_usb.c ****   tmpreg &= ~USB_OTG_HCCHAR_CHDIS;
 4913              		.loc 1 2022 10 view .LVU1627
 4914 014a 0394     		str	r4, [sp, #12]
2023:Drivers/STM32F4xx_HAL_Driver/Src/stm32f4xx_ll_usb.c **** 
 4915              		.loc 1 2023 3 is_stmt 1 view .LVU1628
2023:Drivers/STM32F4xx_HAL_Driver/Src/stm32f4xx_ll_usb.c **** 
 4916              		.loc 1 2023 10 is_stmt 0 view .LVU1629
 4917 014c 039C     		ldr	r4, [sp, #12]
 4918 014e 24F08044 		bic	r4, r4, #1073741824
 4919 0152 0394     		str	r4, [sp, #12]
2026:Drivers/STM32F4xx_HAL_Driver/Src/stm32f4xx_ll_usb.c ****   {
 4920              		.loc 1 2026 3 is_stmt 1 view .LVU1630
2026:Drivers/STM32F4xx_HAL_Driver/Src/stm32f4xx_ll_usb.c ****   {
 4921              		.loc 1 2026 9 is_stmt 0 view .LVU1631
 4922 0154 CC78     		ldrb	r4, [r1, #3]	@ zero_extendqisi2
2026:Drivers/STM32F4xx_HAL_Driver/Src/stm32f4xx_ll_usb.c ****   {
 4923              		.loc 1 2026 6 view .LVU1632
 4924 0156 002C     		cmp	r4, #0
 4925 0158 7DD0     		beq	.L322
2028:Drivers/STM32F4xx_HAL_Driver/Src/stm32f4xx_ll_usb.c ****   }
 4926              		.loc 1 2028 5 is_stmt 1 view .LVU1633
2028:Drivers/STM32F4xx_HAL_Driver/Src/stm32f4xx_ll_usb.c ****   }
 4927              		.loc 1 2028 12 is_stmt 0 view .LVU1634
 4928 015a 039C     		ldr	r4, [sp, #12]
 4929 015c 44F40044 		orr	r4, r4, #32768
 4930 0160 0394     		str	r4, [sp, #12]
 4931              	.L323:
2034:Drivers/STM32F4xx_HAL_Driver/Src/stm32f4xx_ll_usb.c ****   USBx_HC(ch_num)->HCCHAR = tmpreg;
 4932              		.loc 1 2034 3 is_stmt 1 view .LVU1635
2034:Drivers/STM32F4xx_HAL_Driver/Src/stm32f4xx_ll_usb.c ****   USBx_HC(ch_num)->HCCHAR = tmpreg;
 4933              		.loc 1 2034 10 is_stmt 0 view .LVU1636
 4934 0162 039C     		ldr	r4, [sp, #12]
ARM GAS  C:\Users\ashto\AppData\Local\Temp\ccdF3pho.s 			page 148


 4935 0164 44F00044 		orr	r4, r4, #-2147483648
 4936 0168 0394     		str	r4, [sp, #12]
2035:Drivers/STM32F4xx_HAL_Driver/Src/stm32f4xx_ll_usb.c **** 
 4937              		.loc 1 2035 3 is_stmt 1 view .LVU1637
2035:Drivers/STM32F4xx_HAL_Driver/Src/stm32f4xx_ll_usb.c **** 
 4938              		.loc 1 2035 27 is_stmt 0 view .LVU1638
 4939 016a 039C     		ldr	r4, [sp, #12]
 4940 016c C3F80045 		str	r4, [r3, #1280]
2037:Drivers/STM32F4xx_HAL_Driver/Src/stm32f4xx_ll_usb.c ****   {
 4941              		.loc 1 2037 3 is_stmt 1 view .LVU1639
2037:Drivers/STM32F4xx_HAL_Driver/Src/stm32f4xx_ll_usb.c ****   {
 4942              		.loc 1 2037 6 is_stmt 0 view .LVU1640
 4943 0170 002A     		cmp	r2, #0
 4944 0172 40F08780 		bne	.L300
2042:Drivers/STM32F4xx_HAL_Driver/Src/stm32f4xx_ll_usb.c ****   {
 4945              		.loc 1 2042 3 is_stmt 1 view .LVU1641
2042:Drivers/STM32F4xx_HAL_Driver/Src/stm32f4xx_ll_usb.c ****   {
 4946              		.loc 1 2042 10 is_stmt 0 view .LVU1642
 4947 0176 CB78     		ldrb	r3, [r1, #3]	@ zero_extendqisi2
2042:Drivers/STM32F4xx_HAL_Driver/Src/stm32f4xx_ll_usb.c ****   {
 4948              		.loc 1 2042 6 view .LVU1643
 4949 0178 002B     		cmp	r3, #0
 4950 017a 40F08380 		bne	.L300
2042:Drivers/STM32F4xx_HAL_Driver/Src/stm32f4xx_ll_usb.c ****   {
 4951              		.loc 1 2042 34 discriminator 1 view .LVU1644
 4952 017e 0B6A     		ldr	r3, [r1, #32]
2042:Drivers/STM32F4xx_HAL_Driver/Src/stm32f4xx_ll_usb.c ****   {
 4953              		.loc 1 2042 28 discriminator 1 view .LVU1645
 4954 0180 002B     		cmp	r3, #0
 4955 0182 7FD0     		beq	.L300
2042:Drivers/STM32F4xx_HAL_Driver/Src/stm32f4xx_ll_usb.c ****   {
 4956              		.loc 1 2042 57 discriminator 2 view .LVU1646
 4957 0184 CA79     		ldrb	r2, [r1, #7]	@ zero_extendqisi2
 4958              	.LVL378:
2042:Drivers/STM32F4xx_HAL_Driver/Src/stm32f4xx_ll_usb.c ****   {
 4959              		.loc 1 2042 51 discriminator 2 view .LVU1647
 4960 0186 002A     		cmp	r2, #0
 4961 0188 7CD1     		bne	.L300
2044:Drivers/STM32F4xx_HAL_Driver/Src/stm32f4xx_ll_usb.c ****     {
 4962              		.loc 1 2044 5 is_stmt 1 view .LVU1648
2044:Drivers/STM32F4xx_HAL_Driver/Src/stm32f4xx_ll_usb.c ****     {
 4963              		.loc 1 2044 15 is_stmt 0 view .LVU1649
 4964 018a 8A7C     		ldrb	r2, [r1, #18]	@ zero_extendqisi2
2044:Drivers/STM32F4xx_HAL_Driver/Src/stm32f4xx_ll_usb.c ****     {
 4965              		.loc 1 2044 5 view .LVU1650
 4966 018c 032A     		cmp	r2, #3
 4967 018e 72D8     		bhi	.L324
 4968 0190 DFE802F0 		tbb	[pc, r2]
 4969              	.L326:
 4970 0194 66       		.byte	(.L327-.L326)/2
 4971 0195 80       		.byte	(.L325-.L326)/2
 4972 0196 66       		.byte	(.L327-.L326)/2
 4973 0197 80       		.byte	(.L325-.L326)/2
 4974              	.LVL379:
 4975              		.p2align 1
 4976              	.L310:
1943:Drivers/STM32F4xx_HAL_Driver/Src/stm32f4xx_ll_usb.c ****     }
ARM GAS  C:\Users\ashto\AppData\Local\Temp\ccdF3pho.s 			page 149


 4977              		.loc 1 1943 7 is_stmt 1 view .LVU1651
1943:Drivers/STM32F4xx_HAL_Driver/Src/stm32f4xx_ll_usb.c ****     }
 4978              		.loc 1 1943 20 is_stmt 0 view .LVU1652
 4979 0198 CD61     		str	r5, [r1, #28]
 4980 019a A1E7     		b	.L303
 4981              	.LVL380:
 4982              	.L336:
1965:Drivers/STM32F4xx_HAL_Driver/Src/stm32f4xx_ll_usb.c ****                                         (uint32_t)hc->hub_port_nbr | USB_OTG_HCSPLT_SPLITEN;
 4983              		.loc 1 1965 5 is_stmt 1 view .LVU1653
1965:Drivers/STM32F4xx_HAL_Driver/Src/stm32f4xx_ll_usb.c ****                                         (uint32_t)hc->hub_port_nbr | USB_OTG_HCSPLT_SPLITEN;
 4984              		.loc 1 1965 54 is_stmt 0 view .LVU1654
 4985 019c 4D7C     		ldrb	r5, [r1, #17]	@ zero_extendqisi2
1966:Drivers/STM32F4xx_HAL_Driver/Src/stm32f4xx_ll_usb.c **** 
 4986              		.loc 1 1966 53 view .LVU1655
 4987 019e 0C7C     		ldrb	r4, [r1, #16]	@ zero_extendqisi2
1965:Drivers/STM32F4xx_HAL_Driver/Src/stm32f4xx_ll_usb.c ****                                         (uint32_t)hc->hub_port_nbr | USB_OTG_HCSPLT_SPLITEN;
 4988              		.loc 1 1965 96 view .LVU1656
 4989 01a0 44EAC514 		orr	r4, r4, r5, lsl #7
1966:Drivers/STM32F4xx_HAL_Driver/Src/stm32f4xx_ll_usb.c **** 
 4990              		.loc 1 1966 68 view .LVU1657
 4991 01a4 44F00044 		orr	r4, r4, #-2147483648
1965:Drivers/STM32F4xx_HAL_Driver/Src/stm32f4xx_ll_usb.c ****                                         (uint32_t)hc->hub_port_nbr | USB_OTG_HCSPLT_SPLITEN;
 4992              		.loc 1 1965 39 view .LVU1658
 4993 01a8 CEF80440 		str	r4, [lr, #4]
1969:Drivers/STM32F4xx_HAL_Driver/Src/stm32f4xx_ll_usb.c ****                                             USB_OTG_HCINTMSK_NYET);
 4994              		.loc 1 1969 5 is_stmt 1 view .LVU1659
1969:Drivers/STM32F4xx_HAL_Driver/Src/stm32f4xx_ll_usb.c ****                                             USB_OTG_HCINTMSK_NYET);
 4995              		.loc 1 1969 41 is_stmt 0 view .LVU1660
 4996 01ac DEF80C40 		ldr	r4, [lr, #12]
 4997 01b0 44F06004 		orr	r4, r4, #96
 4998 01b4 CEF80C40 		str	r4, [lr, #12]
1972:Drivers/STM32F4xx_HAL_Driver/Src/stm32f4xx_ll_usb.c ****     {
 4999              		.loc 1 1972 5 is_stmt 1 view .LVU1661
1972:Drivers/STM32F4xx_HAL_Driver/Src/stm32f4xx_ll_usb.c ****     {
 5000              		.loc 1 1972 12 is_stmt 0 view .LVU1662
 5001 01b8 CC79     		ldrb	r4, [r1, #7]	@ zero_extendqisi2
1972:Drivers/STM32F4xx_HAL_Driver/Src/stm32f4xx_ll_usb.c ****     {
 5002              		.loc 1 1972 8 view .LVU1663
 5003 01ba 012C     		cmp	r4, #1
 5004 01bc 12D0     		beq	.L337
 5005              	.L313:
1978:Drivers/STM32F4xx_HAL_Driver/Src/stm32f4xx_ll_usb.c ****         (hc->do_csplit == 1U) && (hc->ep_is_in == 1U))
 5006              		.loc 1 1978 5 is_stmt 1 view .LVU1664
1978:Drivers/STM32F4xx_HAL_Driver/Src/stm32f4xx_ll_usb.c ****         (hc->do_csplit == 1U) && (hc->ep_is_in == 1U))
 5007              		.loc 1 1978 13 is_stmt 0 view .LVU1665
 5008 01be 8C7C     		ldrb	r4, [r1, #18]	@ zero_extendqisi2
1978:Drivers/STM32F4xx_HAL_Driver/Src/stm32f4xx_ll_usb.c ****         (hc->do_csplit == 1U) && (hc->ep_is_in == 1U))
 5009              		.loc 1 1978 8 view .LVU1666
 5010 01c0 012C     		cmp	r4, #1
 5011 01c2 1FD0     		beq	.L314
1978:Drivers/STM32F4xx_HAL_Driver/Src/stm32f4xx_ll_usb.c ****         (hc->do_csplit == 1U) && (hc->ep_is_in == 1U))
 5012              		.loc 1 1978 40 discriminator 2 view .LVU1667
 5013 01c4 032C     		cmp	r4, #3
 5014 01c6 1DD0     		beq	.L314
 5015              	.L315:
1985:Drivers/STM32F4xx_HAL_Driver/Src/stm32f4xx_ll_usb.c ****     {
 5016              		.loc 1 1985 5 is_stmt 1 view .LVU1668
ARM GAS  C:\Users\ashto\AppData\Local\Temp\ccdF3pho.s 			page 150


1985:Drivers/STM32F4xx_HAL_Driver/Src/stm32f4xx_ll_usb.c ****     {
 5017              		.loc 1 1985 12 is_stmt 0 view .LVU1669
 5018 01c8 8C7C     		ldrb	r4, [r1, #18]	@ zero_extendqisi2
1985:Drivers/STM32F4xx_HAL_Driver/Src/stm32f4xx_ll_usb.c ****     {
 5019              		.loc 1 1985 8 view .LVU1670
 5020 01ca 012C     		cmp	r4, #1
 5021 01cc BBD1     		bne	.L316
1985:Drivers/STM32F4xx_HAL_Driver/Src/stm32f4xx_ll_usb.c ****     {
 5022              		.loc 1 1985 45 discriminator 1 view .LVU1671
 5023 01ce CC78     		ldrb	r4, [r1, #3]	@ zero_extendqisi2
1985:Drivers/STM32F4xx_HAL_Driver/Src/stm32f4xx_ll_usb.c ****     {
 5024              		.loc 1 1985 39 discriminator 1 view .LVU1672
 5025 01d0 002C     		cmp	r4, #0
 5026 01d2 B8D1     		bne	.L316
1988:Drivers/STM32F4xx_HAL_Driver/Src/stm32f4xx_ll_usb.c ****       {
 5027              		.loc 1 1988 7 is_stmt 1 view .LVU1673
1988:Drivers/STM32F4xx_HAL_Driver/Src/stm32f4xx_ll_usb.c ****       {
 5028              		.loc 1 1988 17 is_stmt 0 view .LVU1674
 5029 01d4 CC68     		ldr	r4, [r1, #12]
1988:Drivers/STM32F4xx_HAL_Driver/Src/stm32f4xx_ll_usb.c ****       {
 5030              		.loc 1 1988 7 view .LVU1675
 5031 01d6 013C     		subs	r4, r4, #1
 5032 01d8 032C     		cmp	r4, #3
 5033 01da B4D8     		bhi	.L316
 5034 01dc DFE804F0 		tbb	[pc, r4]
 5035              	.L318:
 5036 01e0 1F       		.byte	(.L321-.L318)/2
 5037 01e1 26       		.byte	(.L320-.L318)/2
 5038 01e2 2D       		.byte	(.L319-.L318)/2
 5039 01e3 34       		.byte	(.L317-.L318)/2
 5040              		.p2align 1
 5041              	.L337:
1972:Drivers/STM32F4xx_HAL_Driver/Src/stm32f4xx_ll_usb.c ****     {
 5042              		.loc 1 1972 37 discriminator 1 view .LVU1676
 5043 01e4 CC78     		ldrb	r4, [r1, #3]	@ zero_extendqisi2
1972:Drivers/STM32F4xx_HAL_Driver/Src/stm32f4xx_ll_usb.c ****     {
 5044              		.loc 1 1972 31 discriminator 1 view .LVU1677
 5045 01e6 002C     		cmp	r4, #0
 5046 01e8 E9D1     		bne	.L313
1974:Drivers/STM32F4xx_HAL_Driver/Src/stm32f4xx_ll_usb.c ****       USBx_HC((uint32_t)ch_num)->HCINTMSK |= USB_OTG_HCINTMSK_NYET;
 5047              		.loc 1 1974 7 is_stmt 1 view .LVU1678
1974:Drivers/STM32F4xx_HAL_Driver/Src/stm32f4xx_ll_usb.c ****       USBx_HC((uint32_t)ch_num)->HCINTMSK |= USB_OTG_HCINTMSK_NYET;
 5048              		.loc 1 1974 41 is_stmt 0 view .LVU1679
 5049 01ea DEF80440 		ldr	r4, [lr, #4]
 5050 01ee 44F48034 		orr	r4, r4, #65536
 5051 01f2 CEF80440 		str	r4, [lr, #4]
1975:Drivers/STM32F4xx_HAL_Driver/Src/stm32f4xx_ll_usb.c ****     }
 5052              		.loc 1 1975 7 is_stmt 1 view .LVU1680
1975:Drivers/STM32F4xx_HAL_Driver/Src/stm32f4xx_ll_usb.c ****     }
 5053              		.loc 1 1975 43 is_stmt 0 view .LVU1681
 5054 01f6 DEF80C40 		ldr	r4, [lr, #12]
 5055 01fa 44F04004 		orr	r4, r4, #64
 5056 01fe CEF80C40 		str	r4, [lr, #12]
 5057 0202 DCE7     		b	.L313
 5058              	.L314:
1979:Drivers/STM32F4xx_HAL_Driver/Src/stm32f4xx_ll_usb.c ****     {
 5059              		.loc 1 1979 12 discriminator 3 view .LVU1682
ARM GAS  C:\Users\ashto\AppData\Local\Temp\ccdF3pho.s 			page 151


 5060 0204 CC79     		ldrb	r4, [r1, #7]	@ zero_extendqisi2
1978:Drivers/STM32F4xx_HAL_Driver/Src/stm32f4xx_ll_usb.c ****         (hc->do_csplit == 1U) && (hc->ep_is_in == 1U))
 5061              		.loc 1 1978 74 discriminator 3 view .LVU1683
 5062 0206 012C     		cmp	r4, #1
 5063 0208 DED1     		bne	.L315
1979:Drivers/STM32F4xx_HAL_Driver/Src/stm32f4xx_ll_usb.c ****     {
 5064              		.loc 1 1979 37 view .LVU1684
 5065 020a CC78     		ldrb	r4, [r1, #3]	@ zero_extendqisi2
1979:Drivers/STM32F4xx_HAL_Driver/Src/stm32f4xx_ll_usb.c ****     {
 5066              		.loc 1 1979 31 view .LVU1685
 5067 020c 012C     		cmp	r4, #1
 5068 020e DBD1     		bne	.L315
1981:Drivers/STM32F4xx_HAL_Driver/Src/stm32f4xx_ll_usb.c ****     }
 5069              		.loc 1 1981 7 is_stmt 1 view .LVU1686
1981:Drivers/STM32F4xx_HAL_Driver/Src/stm32f4xx_ll_usb.c ****     }
 5070              		.loc 1 1981 41 is_stmt 0 view .LVU1687
 5071 0210 DEF80440 		ldr	r4, [lr, #4]
 5072 0214 44F48034 		orr	r4, r4, #65536
 5073 0218 CEF80440 		str	r4, [lr, #4]
 5074 021c D4E7     		b	.L315
 5075              	.L321:
1992:Drivers/STM32F4xx_HAL_Driver/Src/stm32f4xx_ll_usb.c ****           break;
 5076              		.loc 1 1992 11 is_stmt 1 view .LVU1688
1992:Drivers/STM32F4xx_HAL_Driver/Src/stm32f4xx_ll_usb.c ****           break;
 5077              		.loc 1 1992 45 is_stmt 0 view .LVU1689
 5078 021e DEF80440 		ldr	r4, [lr, #4]
 5079 0222 44F40044 		orr	r4, r4, #32768
 5080 0226 CEF80440 		str	r4, [lr, #4]
1993:Drivers/STM32F4xx_HAL_Driver/Src/stm32f4xx_ll_usb.c **** 
 5081              		.loc 1 1993 11 is_stmt 1 view .LVU1690
 5082 022a 8CE7     		b	.L316
 5083              	.L320:
1997:Drivers/STM32F4xx_HAL_Driver/Src/stm32f4xx_ll_usb.c ****           break;
 5084              		.loc 1 1997 11 view .LVU1691
1997:Drivers/STM32F4xx_HAL_Driver/Src/stm32f4xx_ll_usb.c ****           break;
 5085              		.loc 1 1997 45 is_stmt 0 view .LVU1692
 5086 022c DEF80440 		ldr	r4, [lr, #4]
 5087 0230 44F00E04 		orr	r4, r4, #14
 5088 0234 CEF80440 		str	r4, [lr, #4]
1998:Drivers/STM32F4xx_HAL_Driver/Src/stm32f4xx_ll_usb.c **** 
 5089              		.loc 1 1998 11 is_stmt 1 view .LVU1693
 5090 0238 85E7     		b	.L316
 5091              	.L319:
2002:Drivers/STM32F4xx_HAL_Driver/Src/stm32f4xx_ll_usb.c ****           break;
 5092              		.loc 1 2002 11 view .LVU1694
2002:Drivers/STM32F4xx_HAL_Driver/Src/stm32f4xx_ll_usb.c ****           break;
 5093              		.loc 1 2002 45 is_stmt 0 view .LVU1695
 5094 023a DEF80440 		ldr	r4, [lr, #4]
 5095 023e 44F48044 		orr	r4, r4, #16384
 5096 0242 CEF80440 		str	r4, [lr, #4]
2003:Drivers/STM32F4xx_HAL_Driver/Src/stm32f4xx_ll_usb.c **** 
 5097              		.loc 1 2003 11 is_stmt 1 view .LVU1696
 5098 0246 7EE7     		b	.L316
 5099              	.L317:
2007:Drivers/STM32F4xx_HAL_Driver/Src/stm32f4xx_ll_usb.c ****           break;
 5100              		.loc 1 2007 11 view .LVU1697
2007:Drivers/STM32F4xx_HAL_Driver/Src/stm32f4xx_ll_usb.c ****           break;
ARM GAS  C:\Users\ashto\AppData\Local\Temp\ccdF3pho.s 			page 152


 5101              		.loc 1 2007 45 is_stmt 0 view .LVU1698
 5102 0248 DEF80440 		ldr	r4, [lr, #4]
 5103 024c 44F44044 		orr	r4, r4, #49152
 5104 0250 CEF80440 		str	r4, [lr, #4]
2008:Drivers/STM32F4xx_HAL_Driver/Src/stm32f4xx_ll_usb.c **** 
 5105              		.loc 1 2008 11 is_stmt 1 view .LVU1699
 5106 0254 77E7     		b	.L316
 5107              	.L322:
2032:Drivers/STM32F4xx_HAL_Driver/Src/stm32f4xx_ll_usb.c ****   }
 5108              		.loc 1 2032 5 view .LVU1700
2032:Drivers/STM32F4xx_HAL_Driver/Src/stm32f4xx_ll_usb.c ****   }
 5109              		.loc 1 2032 12 is_stmt 0 view .LVU1701
 5110 0256 039C     		ldr	r4, [sp, #12]
 5111 0258 24F40044 		bic	r4, r4, #32768
 5112 025c 0394     		str	r4, [sp, #12]
 5113 025e 80E7     		b	.L323
 5114              	.LVL381:
 5115              	.L327:
2050:Drivers/STM32F4xx_HAL_Driver/Src/stm32f4xx_ll_usb.c **** 
 5116              		.loc 1 2050 9 is_stmt 1 view .LVU1702
2050:Drivers/STM32F4xx_HAL_Driver/Src/stm32f4xx_ll_usb.c **** 
 5117              		.loc 1 2050 46 is_stmt 0 view .LVU1703
 5118 0260 0333     		adds	r3, r3, #3
 5119              	.LVL382:
2053:Drivers/STM32F4xx_HAL_Driver/Src/stm32f4xx_ll_usb.c ****         {
 5120              		.loc 1 2053 9 is_stmt 1 view .LVU1704
2053:Drivers/STM32F4xx_HAL_Driver/Src/stm32f4xx_ll_usb.c ****         {
 5121              		.loc 1 2053 30 is_stmt 0 view .LVU1705
 5122 0262 C26A     		ldr	r2, [r0, #44]
2053:Drivers/STM32F4xx_HAL_Driver/Src/stm32f4xx_ll_usb.c ****         {
 5123              		.loc 1 2053 41 view .LVU1706
 5124 0264 92B2     		uxth	r2, r2
2053:Drivers/STM32F4xx_HAL_Driver/Src/stm32f4xx_ll_usb.c ****         {
 5125              		.loc 1 2053 12 view .LVU1707
 5126 0266 C3F38F03 		ubfx	r3, r3, #2, #16
 5127              	.LVL383:
2053:Drivers/STM32F4xx_HAL_Driver/Src/stm32f4xx_ll_usb.c ****         {
 5128              		.loc 1 2053 12 view .LVU1708
 5129 026a 9342     		cmp	r3, r2
 5130 026c 03D9     		bls	.L324
2056:Drivers/STM32F4xx_HAL_Driver/Src/stm32f4xx_ll_usb.c ****         }
 5131              		.loc 1 2056 11 is_stmt 1 view .LVU1709
2056:Drivers/STM32F4xx_HAL_Driver/Src/stm32f4xx_ll_usb.c ****         }
 5132              		.loc 1 2056 25 is_stmt 0 view .LVU1710
 5133 026e 8369     		ldr	r3, [r0, #24]
 5134 0270 43F02003 		orr	r3, r3, #32
 5135 0274 8361     		str	r3, [r0, #24]
 5136              	.LVL384:
 5137              	.L324:
2077:Drivers/STM32F4xx_HAL_Driver/Src/stm32f4xx_ll_usb.c ****   }
 5138              		.loc 1 2077 5 is_stmt 1 view .LVU1711
2077:Drivers/STM32F4xx_HAL_Driver/Src/stm32f4xx_ll_usb.c ****   }
 5139              		.loc 1 2077 11 is_stmt 0 view .LVU1712
 5140 0276 0023     		movs	r3, #0
 5141 0278 0093     		str	r3, [sp]
 5142 027a 0B8C     		ldrh	r3, [r1, #32]
 5143 027c 4A78     		ldrb	r2, [r1, #1]	@ zero_extendqisi2
ARM GAS  C:\Users\ashto\AppData\Local\Temp\ccdF3pho.s 			page 153


 5144 027e 8969     		ldr	r1, [r1, #24]
 5145              	.LVL385:
2077:Drivers/STM32F4xx_HAL_Driver/Src/stm32f4xx_ll_usb.c ****   }
 5146              		.loc 1 2077 11 view .LVU1713
 5147 0280 FFF7FEFF 		bl	USB_WritePacket
 5148              	.LVL386:
 5149              	.L300:
2081:Drivers/STM32F4xx_HAL_Driver/Src/stm32f4xx_ll_usb.c **** 
 5150              		.loc 1 2081 1 view .LVU1714
 5151 0284 0020     		movs	r0, #0
 5152 0286 04B0     		add	sp, sp, #16
 5153              	.LCFI65:
 5154              		.cfi_remember_state
 5155              		.cfi_def_cfa_offset 16
 5156              		@ sp needed
 5157 0288 70BD     		pop	{r4, r5, r6, pc}
 5158              	.L339:
 5159 028a 00BF     		.align	2
 5160              	.L338:
 5161 028c 00000440 		.word	1074003968
 5162 0290 0000F81F 		.word	536346624
 5163              	.LVL387:
 5164              	.L325:
 5165              	.LCFI66:
 5166              		.cfi_restore_state
2063:Drivers/STM32F4xx_HAL_Driver/Src/stm32f4xx_ll_usb.c ****         /* check if there is enough space in FIFO space */
 5167              		.loc 1 2063 9 is_stmt 1 view .LVU1715
2063:Drivers/STM32F4xx_HAL_Driver/Src/stm32f4xx_ll_usb.c ****         /* check if there is enough space in FIFO space */
 5168              		.loc 1 2063 46 is_stmt 0 view .LVU1716
 5169 0294 0333     		adds	r3, r3, #3
 5170              	.LVL388:
2065:Drivers/STM32F4xx_HAL_Driver/Src/stm32f4xx_ll_usb.c ****         {
 5171              		.loc 1 2065 9 is_stmt 1 view .LVU1717
2065:Drivers/STM32F4xx_HAL_Driver/Src/stm32f4xx_ll_usb.c ****         {
 5172              		.loc 1 2065 35 is_stmt 0 view .LVU1718
 5173 0296 DCF81020 		ldr	r2, [ip, #16]
2065:Drivers/STM32F4xx_HAL_Driver/Src/stm32f4xx_ll_usb.c ****         {
 5174              		.loc 1 2065 45 view .LVU1719
 5175 029a 92B2     		uxth	r2, r2
2065:Drivers/STM32F4xx_HAL_Driver/Src/stm32f4xx_ll_usb.c ****         {
 5176              		.loc 1 2065 12 view .LVU1720
 5177 029c C3F38F03 		ubfx	r3, r3, #2, #16
 5178              	.LVL389:
2065:Drivers/STM32F4xx_HAL_Driver/Src/stm32f4xx_ll_usb.c ****         {
 5179              		.loc 1 2065 12 view .LVU1721
 5180 02a0 9A42     		cmp	r2, r3
 5181 02a2 E8D2     		bcs	.L324
2068:Drivers/STM32F4xx_HAL_Driver/Src/stm32f4xx_ll_usb.c ****         }
 5182              		.loc 1 2068 11 is_stmt 1 view .LVU1722
2068:Drivers/STM32F4xx_HAL_Driver/Src/stm32f4xx_ll_usb.c ****         }
 5183              		.loc 1 2068 25 is_stmt 0 view .LVU1723
 5184 02a4 8369     		ldr	r3, [r0, #24]
 5185 02a6 43F08063 		orr	r3, r3, #67108864
 5186 02aa 8361     		str	r3, [r0, #24]
 5187              	.LVL390:
2068:Drivers/STM32F4xx_HAL_Driver/Src/stm32f4xx_ll_usb.c ****         }
 5188              		.loc 1 2068 25 view .LVU1724
ARM GAS  C:\Users\ashto\AppData\Local\Temp\ccdF3pho.s 			page 154


 5189 02ac E3E7     		b	.L324
 5190              		.cfi_endproc
 5191              	.LFE176:
 5193 02ae 00BF     		.section	.text.USB_StopHost,"ax",%progbits
 5194              		.align	1
 5195              		.global	USB_StopHost
 5196              		.syntax unified
 5197              		.thumb
 5198              		.thumb_func
 5200              	USB_StopHost:
 5201              	.LVL391:
 5202              	.LFB180:
2204:Drivers/STM32F4xx_HAL_Driver/Src/stm32f4xx_ll_usb.c **** 
2205:Drivers/STM32F4xx_HAL_Driver/Src/stm32f4xx_ll_usb.c **** /**
2206:Drivers/STM32F4xx_HAL_Driver/Src/stm32f4xx_ll_usb.c ****   * @brief  Stop Host Core
2207:Drivers/STM32F4xx_HAL_Driver/Src/stm32f4xx_ll_usb.c ****   * @param  USBx  Selected device
2208:Drivers/STM32F4xx_HAL_Driver/Src/stm32f4xx_ll_usb.c ****   * @retval HAL state
2209:Drivers/STM32F4xx_HAL_Driver/Src/stm32f4xx_ll_usb.c ****   */
2210:Drivers/STM32F4xx_HAL_Driver/Src/stm32f4xx_ll_usb.c **** HAL_StatusTypeDef USB_StopHost(USB_OTG_GlobalTypeDef *USBx)
2211:Drivers/STM32F4xx_HAL_Driver/Src/stm32f4xx_ll_usb.c **** {
 5203              		.loc 1 2211 1 is_stmt 1 view -0
 5204              		.cfi_startproc
 5205              		@ args = 0, pretend = 0, frame = 8
 5206              		@ frame_needed = 0, uses_anonymous_args = 0
 5207              		.loc 1 2211 1 is_stmt 0 view .LVU1726
 5208 0000 30B5     		push	{r4, r5, lr}
 5209              	.LCFI67:
 5210              		.cfi_def_cfa_offset 12
 5211              		.cfi_offset 4, -12
 5212              		.cfi_offset 5, -8
 5213              		.cfi_offset 14, -4
 5214 0002 83B0     		sub	sp, sp, #12
 5215              	.LCFI68:
 5216              		.cfi_def_cfa_offset 24
 5217 0004 0446     		mov	r4, r0
2212:Drivers/STM32F4xx_HAL_Driver/Src/stm32f4xx_ll_usb.c ****   HAL_StatusTypeDef ret = HAL_OK;
 5218              		.loc 1 2212 3 is_stmt 1 view .LVU1727
 5219              	.LVL392:
2213:Drivers/STM32F4xx_HAL_Driver/Src/stm32f4xx_ll_usb.c ****   uint32_t USBx_BASE = (uint32_t)USBx;
 5220              		.loc 1 2213 3 view .LVU1728
2214:Drivers/STM32F4xx_HAL_Driver/Src/stm32f4xx_ll_usb.c ****   __IO uint32_t count = 0U;
 5221              		.loc 1 2214 3 view .LVU1729
 5222              		.loc 1 2214 17 is_stmt 0 view .LVU1730
 5223 0006 0023     		movs	r3, #0
 5224 0008 0193     		str	r3, [sp, #4]
2215:Drivers/STM32F4xx_HAL_Driver/Src/stm32f4xx_ll_usb.c ****   uint32_t value;
 5225              		.loc 1 2215 3 is_stmt 1 view .LVU1731
2216:Drivers/STM32F4xx_HAL_Driver/Src/stm32f4xx_ll_usb.c ****   uint32_t i;
 5226              		.loc 1 2216 3 view .LVU1732
2217:Drivers/STM32F4xx_HAL_Driver/Src/stm32f4xx_ll_usb.c **** 
2218:Drivers/STM32F4xx_HAL_Driver/Src/stm32f4xx_ll_usb.c ****   (void)USB_DisableGlobalInt(USBx);
 5227              		.loc 1 2218 3 view .LVU1733
 5228              		.loc 1 2218 9 is_stmt 0 view .LVU1734
 5229 000a FFF7FEFF 		bl	USB_DisableGlobalInt
 5230              	.LVL393:
2219:Drivers/STM32F4xx_HAL_Driver/Src/stm32f4xx_ll_usb.c **** 
2220:Drivers/STM32F4xx_HAL_Driver/Src/stm32f4xx_ll_usb.c ****   /* Flush USB FIFO */
ARM GAS  C:\Users\ashto\AppData\Local\Temp\ccdF3pho.s 			page 155


2221:Drivers/STM32F4xx_HAL_Driver/Src/stm32f4xx_ll_usb.c ****   if (USB_FlushTxFifo(USBx, 0x10U) != HAL_OK) /* all Tx FIFOs */
 5231              		.loc 1 2221 3 is_stmt 1 view .LVU1735
 5232              		.loc 1 2221 7 is_stmt 0 view .LVU1736
 5233 000e 1021     		movs	r1, #16
 5234 0010 2046     		mov	r0, r4
 5235 0012 FFF7FEFF 		bl	USB_FlushTxFifo
 5236              	.LVL394:
 5237              		.loc 1 2221 6 view .LVU1737
 5238 0016 0546     		mov	r5, r0
 5239 0018 00B1     		cbz	r0, .L341
2222:Drivers/STM32F4xx_HAL_Driver/Src/stm32f4xx_ll_usb.c ****   {
2223:Drivers/STM32F4xx_HAL_Driver/Src/stm32f4xx_ll_usb.c ****     ret = HAL_ERROR;
 5240              		.loc 1 2223 9 view .LVU1738
 5241 001a 0125     		movs	r5, #1
 5242              	.L341:
 5243              	.LVL395:
2224:Drivers/STM32F4xx_HAL_Driver/Src/stm32f4xx_ll_usb.c ****   }
2225:Drivers/STM32F4xx_HAL_Driver/Src/stm32f4xx_ll_usb.c **** 
2226:Drivers/STM32F4xx_HAL_Driver/Src/stm32f4xx_ll_usb.c ****   if (USB_FlushRxFifo(USBx) != HAL_OK)
 5244              		.loc 1 2226 3 is_stmt 1 view .LVU1739
 5245              		.loc 1 2226 7 is_stmt 0 view .LVU1740
 5246 001c 2046     		mov	r0, r4
 5247 001e FFF7FEFF 		bl	USB_FlushRxFifo
 5248              	.LVL396:
 5249              		.loc 1 2226 6 view .LVU1741
 5250 0022 00B1     		cbz	r0, .L342
2227:Drivers/STM32F4xx_HAL_Driver/Src/stm32f4xx_ll_usb.c ****   {
2228:Drivers/STM32F4xx_HAL_Driver/Src/stm32f4xx_ll_usb.c ****     ret = HAL_ERROR;
 5251              		.loc 1 2228 9 view .LVU1742
 5252 0024 0125     		movs	r5, #1
 5253              	.LVL397:
 5254              	.L342:
2229:Drivers/STM32F4xx_HAL_Driver/Src/stm32f4xx_ll_usb.c ****   }
2230:Drivers/STM32F4xx_HAL_Driver/Src/stm32f4xx_ll_usb.c **** 
2231:Drivers/STM32F4xx_HAL_Driver/Src/stm32f4xx_ll_usb.c ****   /* Flush out any leftover queued requests. */
2232:Drivers/STM32F4xx_HAL_Driver/Src/stm32f4xx_ll_usb.c ****   for (i = 0U; i <= 15U; i++)
 5255              		.loc 1 2232 3 is_stmt 1 view .LVU1743
 5256              		.loc 1 2232 10 is_stmt 0 view .LVU1744
 5257 0026 0022     		movs	r2, #0
 5258              		.loc 1 2232 3 view .LVU1745
 5259 0028 0AE0     		b	.L343
 5260              	.LVL398:
 5261              	.L344:
2233:Drivers/STM32F4xx_HAL_Driver/Src/stm32f4xx_ll_usb.c ****   {
2234:Drivers/STM32F4xx_HAL_Driver/Src/stm32f4xx_ll_usb.c ****     value = USBx_HC(i)->HCCHAR;
 5262              		.loc 1 2234 5 is_stmt 1 discriminator 3 view .LVU1746
 5263              		.loc 1 2234 13 is_stmt 0 discriminator 3 view .LVU1747
 5264 002a 04EB4211 		add	r1, r4, r2, lsl #5
 5265              		.loc 1 2234 11 discriminator 3 view .LVU1748
 5266 002e D1F80035 		ldr	r3, [r1, #1280]
 5267              	.LVL399:
2235:Drivers/STM32F4xx_HAL_Driver/Src/stm32f4xx_ll_usb.c ****     value |=  USB_OTG_HCCHAR_CHDIS;
 5268              		.loc 1 2235 5 is_stmt 1 discriminator 3 view .LVU1749
2236:Drivers/STM32F4xx_HAL_Driver/Src/stm32f4xx_ll_usb.c ****     value &= ~USB_OTG_HCCHAR_CHENA;
 5269              		.loc 1 2236 5 discriminator 3 view .LVU1750
2237:Drivers/STM32F4xx_HAL_Driver/Src/stm32f4xx_ll_usb.c ****     value &= ~USB_OTG_HCCHAR_EPDIR;
 5270              		.loc 1 2237 5 discriminator 3 view .LVU1751
ARM GAS  C:\Users\ashto\AppData\Local\Temp\ccdF3pho.s 			page 156


 5271 0032 23F08023 		bic	r3, r3, #-2147450880
 5272              	.LVL400:
 5273              		.loc 1 2237 11 is_stmt 0 discriminator 3 view .LVU1752
 5274 0036 43F08043 		orr	r3, r3, #1073741824
 5275              	.LVL401:
2238:Drivers/STM32F4xx_HAL_Driver/Src/stm32f4xx_ll_usb.c ****     USBx_HC(i)->HCCHAR = value;
 5276              		.loc 1 2238 5 is_stmt 1 discriminator 3 view .LVU1753
 5277              		.loc 1 2238 24 is_stmt 0 discriminator 3 view .LVU1754
 5278 003a C1F80035 		str	r3, [r1, #1280]
2232:Drivers/STM32F4xx_HAL_Driver/Src/stm32f4xx_ll_usb.c ****   {
 5279              		.loc 1 2232 26 is_stmt 1 discriminator 3 view .LVU1755
2232:Drivers/STM32F4xx_HAL_Driver/Src/stm32f4xx_ll_usb.c ****   {
 5280              		.loc 1 2232 27 is_stmt 0 discriminator 3 view .LVU1756
 5281 003e 0132     		adds	r2, r2, #1
 5282              	.LVL402:
 5283              	.L343:
2232:Drivers/STM32F4xx_HAL_Driver/Src/stm32f4xx_ll_usb.c ****   {
 5284              		.loc 1 2232 16 is_stmt 1 discriminator 1 view .LVU1757
2232:Drivers/STM32F4xx_HAL_Driver/Src/stm32f4xx_ll_usb.c ****   {
 5285              		.loc 1 2232 3 is_stmt 0 discriminator 1 view .LVU1758
 5286 0040 0F2A     		cmp	r2, #15
 5287 0042 F2D9     		bls	.L344
2239:Drivers/STM32F4xx_HAL_Driver/Src/stm32f4xx_ll_usb.c ****   }
2240:Drivers/STM32F4xx_HAL_Driver/Src/stm32f4xx_ll_usb.c **** 
2241:Drivers/STM32F4xx_HAL_Driver/Src/stm32f4xx_ll_usb.c ****   /* Halt all channels to put them into a known state. */
2242:Drivers/STM32F4xx_HAL_Driver/Src/stm32f4xx_ll_usb.c ****   for (i = 0U; i <= 15U; i++)
 5288              		.loc 1 2242 10 view .LVU1759
 5289 0044 0021     		movs	r1, #0
 5290 0046 00E0     		b	.L345
 5291              	.LVL403:
 5292              	.L346:
 5293              		.loc 1 2242 26 is_stmt 1 discriminator 2 view .LVU1760
 5294              		.loc 1 2242 27 is_stmt 0 discriminator 2 view .LVU1761
 5295 0048 0131     		adds	r1, r1, #1
 5296              	.LVL404:
 5297              	.L345:
 5298              		.loc 1 2242 16 is_stmt 1 discriminator 1 view .LVU1762
 5299              		.loc 1 2242 3 is_stmt 0 discriminator 1 view .LVU1763
 5300 004a 0F29     		cmp	r1, #15
 5301 004c 16D8     		bhi	.L352
2243:Drivers/STM32F4xx_HAL_Driver/Src/stm32f4xx_ll_usb.c ****   {
2244:Drivers/STM32F4xx_HAL_Driver/Src/stm32f4xx_ll_usb.c ****     value = USBx_HC(i)->HCCHAR;
 5302              		.loc 1 2244 5 is_stmt 1 view .LVU1764
 5303              		.loc 1 2244 13 is_stmt 0 view .LVU1765
 5304 004e 04EB4110 		add	r0, r4, r1, lsl #5
 5305 0052 00F5A062 		add	r2, r0, #1280
 5306              		.loc 1 2244 11 view .LVU1766
 5307 0056 D0F80035 		ldr	r3, [r0, #1280]
 5308              	.LVL405:
2245:Drivers/STM32F4xx_HAL_Driver/Src/stm32f4xx_ll_usb.c ****     value |= USB_OTG_HCCHAR_CHDIS;
 5309              		.loc 1 2245 5 is_stmt 1 view .LVU1767
2246:Drivers/STM32F4xx_HAL_Driver/Src/stm32f4xx_ll_usb.c ****     value |= USB_OTG_HCCHAR_CHENA;
 5310              		.loc 1 2246 5 view .LVU1768
2247:Drivers/STM32F4xx_HAL_Driver/Src/stm32f4xx_ll_usb.c ****     value &= ~USB_OTG_HCCHAR_EPDIR;
 5311              		.loc 1 2247 5 view .LVU1769
 5312 005a 23F40043 		bic	r3, r3, #32768
 5313              	.LVL406:
ARM GAS  C:\Users\ashto\AppData\Local\Temp\ccdF3pho.s 			page 157


 5314              		.loc 1 2247 11 is_stmt 0 view .LVU1770
 5315 005e 43F04043 		orr	r3, r3, #-1073741824
 5316              	.LVL407:
2248:Drivers/STM32F4xx_HAL_Driver/Src/stm32f4xx_ll_usb.c ****     USBx_HC(i)->HCCHAR = value;
 5317              		.loc 1 2248 5 is_stmt 1 view .LVU1771
 5318              		.loc 1 2248 24 is_stmt 0 view .LVU1772
 5319 0062 C0F80035 		str	r3, [r0, #1280]
 5320              	.LVL408:
 5321              	.L347:
2249:Drivers/STM32F4xx_HAL_Driver/Src/stm32f4xx_ll_usb.c **** 
2250:Drivers/STM32F4xx_HAL_Driver/Src/stm32f4xx_ll_usb.c ****     do
 5322              		.loc 1 2250 5 is_stmt 1 view .LVU1773
2251:Drivers/STM32F4xx_HAL_Driver/Src/stm32f4xx_ll_usb.c ****     {
2252:Drivers/STM32F4xx_HAL_Driver/Src/stm32f4xx_ll_usb.c ****       count++;
 5323              		.loc 1 2252 7 view .LVU1774
 5324              		.loc 1 2252 12 is_stmt 0 view .LVU1775
 5325 0066 019B     		ldr	r3, [sp, #4]
 5326 0068 0133     		adds	r3, r3, #1
 5327 006a 0193     		str	r3, [sp, #4]
2253:Drivers/STM32F4xx_HAL_Driver/Src/stm32f4xx_ll_usb.c **** 
2254:Drivers/STM32F4xx_HAL_Driver/Src/stm32f4xx_ll_usb.c ****       if (count > 1000U)
 5328              		.loc 1 2254 7 is_stmt 1 view .LVU1776
 5329              		.loc 1 2254 17 is_stmt 0 view .LVU1777
 5330 006c 019B     		ldr	r3, [sp, #4]
 5331              		.loc 1 2254 10 view .LVU1778
 5332 006e B3F57A7F 		cmp	r3, #1000
 5333 0072 E9D8     		bhi	.L346
2255:Drivers/STM32F4xx_HAL_Driver/Src/stm32f4xx_ll_usb.c ****       {
2256:Drivers/STM32F4xx_HAL_Driver/Src/stm32f4xx_ll_usb.c ****         break;
2257:Drivers/STM32F4xx_HAL_Driver/Src/stm32f4xx_ll_usb.c ****       }
2258:Drivers/STM32F4xx_HAL_Driver/Src/stm32f4xx_ll_usb.c ****     } while ((USBx_HC(i)->HCCHAR & USB_OTG_HCCHAR_CHENA) == USB_OTG_HCCHAR_CHENA);
 5334              		.loc 1 2258 13 is_stmt 1 view .LVU1779
 5335              		.loc 1 2258 25 is_stmt 0 view .LVU1780
 5336 0074 1368     		ldr	r3, [r2]
 5337              		.loc 1 2258 5 view .LVU1781
 5338 0076 002B     		cmp	r3, #0
 5339 0078 F5DB     		blt	.L347
 5340 007a E5E7     		b	.L346
 5341              	.L352:
2259:Drivers/STM32F4xx_HAL_Driver/Src/stm32f4xx_ll_usb.c ****   }
2260:Drivers/STM32F4xx_HAL_Driver/Src/stm32f4xx_ll_usb.c **** 
2261:Drivers/STM32F4xx_HAL_Driver/Src/stm32f4xx_ll_usb.c ****   /* Clear any pending Host interrupts */
2262:Drivers/STM32F4xx_HAL_Driver/Src/stm32f4xx_ll_usb.c ****   USBx_HOST->HAINT = CLEAR_INTERRUPT_MASK;
 5342              		.loc 1 2262 3 is_stmt 1 view .LVU1782
 5343              		.loc 1 2262 20 is_stmt 0 view .LVU1783
 5344 007c 4FF0FF33 		mov	r3, #-1
 5345 0080 C4F81434 		str	r3, [r4, #1044]
2263:Drivers/STM32F4xx_HAL_Driver/Src/stm32f4xx_ll_usb.c ****   USBx->GINTSTS = CLEAR_INTERRUPT_MASK;
 5346              		.loc 1 2263 3 is_stmt 1 view .LVU1784
 5347              		.loc 1 2263 17 is_stmt 0 view .LVU1785
 5348 0084 6361     		str	r3, [r4, #20]
2264:Drivers/STM32F4xx_HAL_Driver/Src/stm32f4xx_ll_usb.c **** 
2265:Drivers/STM32F4xx_HAL_Driver/Src/stm32f4xx_ll_usb.c ****   (void)USB_EnableGlobalInt(USBx);
 5349              		.loc 1 2265 3 is_stmt 1 view .LVU1786
 5350              		.loc 1 2265 9 is_stmt 0 view .LVU1787
 5351 0086 2046     		mov	r0, r4
 5352 0088 FFF7FEFF 		bl	USB_EnableGlobalInt
ARM GAS  C:\Users\ashto\AppData\Local\Temp\ccdF3pho.s 			page 158


 5353              	.LVL409:
2266:Drivers/STM32F4xx_HAL_Driver/Src/stm32f4xx_ll_usb.c **** 
2267:Drivers/STM32F4xx_HAL_Driver/Src/stm32f4xx_ll_usb.c ****   return ret;
 5354              		.loc 1 2267 3 is_stmt 1 view .LVU1788
2268:Drivers/STM32F4xx_HAL_Driver/Src/stm32f4xx_ll_usb.c **** }
 5355              		.loc 1 2268 1 is_stmt 0 view .LVU1789
 5356 008c 2846     		mov	r0, r5
 5357 008e 03B0     		add	sp, sp, #12
 5358              	.LCFI69:
 5359              		.cfi_def_cfa_offset 12
 5360              		@ sp needed
 5361 0090 30BD     		pop	{r4, r5, pc}
 5362              		.loc 1 2268 1 view .LVU1790
 5363              		.cfi_endproc
 5364              	.LFE180:
 5366              		.section	.text.USB_ActivateRemoteWakeup,"ax",%progbits
 5367              		.align	1
 5368              		.global	USB_ActivateRemoteWakeup
 5369              		.syntax unified
 5370              		.thumb
 5371              		.thumb_func
 5373              	USB_ActivateRemoteWakeup:
 5374              	.LVL410:
 5375              	.LFB181:
2269:Drivers/STM32F4xx_HAL_Driver/Src/stm32f4xx_ll_usb.c **** 
2270:Drivers/STM32F4xx_HAL_Driver/Src/stm32f4xx_ll_usb.c **** /**
2271:Drivers/STM32F4xx_HAL_Driver/Src/stm32f4xx_ll_usb.c ****   * @brief  USB_ActivateRemoteWakeup active remote wakeup signalling
2272:Drivers/STM32F4xx_HAL_Driver/Src/stm32f4xx_ll_usb.c ****   * @param  USBx Selected device
2273:Drivers/STM32F4xx_HAL_Driver/Src/stm32f4xx_ll_usb.c ****   * @retval HAL status
2274:Drivers/STM32F4xx_HAL_Driver/Src/stm32f4xx_ll_usb.c ****   */
2275:Drivers/STM32F4xx_HAL_Driver/Src/stm32f4xx_ll_usb.c **** HAL_StatusTypeDef USB_ActivateRemoteWakeup(const USB_OTG_GlobalTypeDef *USBx)
2276:Drivers/STM32F4xx_HAL_Driver/Src/stm32f4xx_ll_usb.c **** {
 5376              		.loc 1 2276 1 is_stmt 1 view -0
 5377              		.cfi_startproc
 5378              		@ args = 0, pretend = 0, frame = 0
 5379              		@ frame_needed = 0, uses_anonymous_args = 0
 5380              		@ link register save eliminated.
2277:Drivers/STM32F4xx_HAL_Driver/Src/stm32f4xx_ll_usb.c ****   uint32_t USBx_BASE = (uint32_t)USBx;
 5381              		.loc 1 2277 3 view .LVU1792
2278:Drivers/STM32F4xx_HAL_Driver/Src/stm32f4xx_ll_usb.c **** 
2279:Drivers/STM32F4xx_HAL_Driver/Src/stm32f4xx_ll_usb.c ****   if ((USBx_DEVICE->DSTS & USB_OTG_DSTS_SUSPSTS) == USB_OTG_DSTS_SUSPSTS)
 5382              		.loc 1 2279 3 view .LVU1793
 5383              		.loc 1 2279 19 is_stmt 0 view .LVU1794
 5384 0000 D0F80838 		ldr	r3, [r0, #2056]
 5385              		.loc 1 2279 8 view .LVU1795
 5386 0004 00F50060 		add	r0, r0, #2048
 5387              	.LVL411:
 5388              		.loc 1 2279 6 view .LVU1796
 5389 0008 13F0010F 		tst	r3, #1
 5390 000c 03D0     		beq	.L354
2280:Drivers/STM32F4xx_HAL_Driver/Src/stm32f4xx_ll_usb.c ****   {
2281:Drivers/STM32F4xx_HAL_Driver/Src/stm32f4xx_ll_usb.c ****     /* active Remote wakeup signalling */
2282:Drivers/STM32F4xx_HAL_Driver/Src/stm32f4xx_ll_usb.c ****     USBx_DEVICE->DCTL |= USB_OTG_DCTL_RWUSIG;
 5391              		.loc 1 2282 5 is_stmt 1 view .LVU1797
 5392              		.loc 1 2282 23 is_stmt 0 view .LVU1798
 5393 000e 4368     		ldr	r3, [r0, #4]
 5394 0010 43F00103 		orr	r3, r3, #1
ARM GAS  C:\Users\ashto\AppData\Local\Temp\ccdF3pho.s 			page 159


 5395 0014 4360     		str	r3, [r0, #4]
 5396              	.L354:
2283:Drivers/STM32F4xx_HAL_Driver/Src/stm32f4xx_ll_usb.c ****   }
2284:Drivers/STM32F4xx_HAL_Driver/Src/stm32f4xx_ll_usb.c **** 
2285:Drivers/STM32F4xx_HAL_Driver/Src/stm32f4xx_ll_usb.c ****   return HAL_OK;
 5397              		.loc 1 2285 3 is_stmt 1 view .LVU1799
2286:Drivers/STM32F4xx_HAL_Driver/Src/stm32f4xx_ll_usb.c **** }
 5398              		.loc 1 2286 1 is_stmt 0 view .LVU1800
 5399 0016 0020     		movs	r0, #0
 5400              	.LVL412:
 5401              		.loc 1 2286 1 view .LVU1801
 5402 0018 7047     		bx	lr
 5403              		.cfi_endproc
 5404              	.LFE181:
 5406              		.section	.text.USB_DeActivateRemoteWakeup,"ax",%progbits
 5407              		.align	1
 5408              		.global	USB_DeActivateRemoteWakeup
 5409              		.syntax unified
 5410              		.thumb
 5411              		.thumb_func
 5413              	USB_DeActivateRemoteWakeup:
 5414              	.LVL413:
 5415              	.LFB182:
2287:Drivers/STM32F4xx_HAL_Driver/Src/stm32f4xx_ll_usb.c **** 
2288:Drivers/STM32F4xx_HAL_Driver/Src/stm32f4xx_ll_usb.c **** /**
2289:Drivers/STM32F4xx_HAL_Driver/Src/stm32f4xx_ll_usb.c ****   * @brief  USB_DeActivateRemoteWakeup de-active remote wakeup signalling
2290:Drivers/STM32F4xx_HAL_Driver/Src/stm32f4xx_ll_usb.c ****   * @param  USBx Selected device
2291:Drivers/STM32F4xx_HAL_Driver/Src/stm32f4xx_ll_usb.c ****   * @retval HAL status
2292:Drivers/STM32F4xx_HAL_Driver/Src/stm32f4xx_ll_usb.c ****   */
2293:Drivers/STM32F4xx_HAL_Driver/Src/stm32f4xx_ll_usb.c **** HAL_StatusTypeDef USB_DeActivateRemoteWakeup(const USB_OTG_GlobalTypeDef *USBx)
2294:Drivers/STM32F4xx_HAL_Driver/Src/stm32f4xx_ll_usb.c **** {
 5416              		.loc 1 2294 1 is_stmt 1 view -0
 5417              		.cfi_startproc
 5418              		@ args = 0, pretend = 0, frame = 0
 5419              		@ frame_needed = 0, uses_anonymous_args = 0
 5420              		@ link register save eliminated.
2295:Drivers/STM32F4xx_HAL_Driver/Src/stm32f4xx_ll_usb.c ****   uint32_t USBx_BASE = (uint32_t)USBx;
 5421              		.loc 1 2295 3 view .LVU1803
2296:Drivers/STM32F4xx_HAL_Driver/Src/stm32f4xx_ll_usb.c **** 
2297:Drivers/STM32F4xx_HAL_Driver/Src/stm32f4xx_ll_usb.c ****   /* active Remote wakeup signalling */
2298:Drivers/STM32F4xx_HAL_Driver/Src/stm32f4xx_ll_usb.c ****   USBx_DEVICE->DCTL &= ~(USB_OTG_DCTL_RWUSIG);
 5422              		.loc 1 2298 3 view .LVU1804
 5423              		.loc 1 2298 21 is_stmt 0 view .LVU1805
 5424 0000 D0F80438 		ldr	r3, [r0, #2052]
 5425 0004 23F00103 		bic	r3, r3, #1
 5426 0008 C0F80438 		str	r3, [r0, #2052]
2299:Drivers/STM32F4xx_HAL_Driver/Src/stm32f4xx_ll_usb.c **** 
2300:Drivers/STM32F4xx_HAL_Driver/Src/stm32f4xx_ll_usb.c ****   return HAL_OK;
 5427              		.loc 1 2300 3 is_stmt 1 view .LVU1806
2301:Drivers/STM32F4xx_HAL_Driver/Src/stm32f4xx_ll_usb.c **** }
 5428              		.loc 1 2301 1 is_stmt 0 view .LVU1807
 5429 000c 0020     		movs	r0, #0
 5430              	.LVL414:
 5431              		.loc 1 2301 1 view .LVU1808
 5432 000e 7047     		bx	lr
 5433              		.cfi_endproc
 5434              	.LFE182:
ARM GAS  C:\Users\ashto\AppData\Local\Temp\ccdF3pho.s 			page 160


 5436              		.text
 5437              	.Letext0:
 5438              		.file 2 "c:\\program files (x86)\\gnu arm embedded toolchain\\10 2021.10\\arm-none-eabi\\include\\
 5439              		.file 3 "c:\\program files (x86)\\gnu arm embedded toolchain\\10 2021.10\\arm-none-eabi\\include\\
 5440              		.file 4 "Drivers/CMSIS/Include/cmsis_gcc.h"
 5441              		.file 5 "Drivers/CMSIS/Device/ST/STM32F4xx/Include/stm32f407xx.h"
 5442              		.file 6 "Drivers/STM32F4xx_HAL_Driver/Inc/stm32f4xx_hal_def.h"
 5443              		.file 7 "Drivers/STM32F4xx_HAL_Driver/Inc/stm32f4xx_ll_usb.h"
 5444              		.file 8 "Drivers/STM32F4xx_HAL_Driver/Inc/stm32f4xx_hal.h"
ARM GAS  C:\Users\ashto\AppData\Local\Temp\ccdF3pho.s 			page 161


DEFINED SYMBOLS
                            *ABS*:00000000 stm32f4xx_ll_usb.c
C:\Users\ashto\AppData\Local\Temp\ccdF3pho.s:20     .text.USB_CoreReset:00000000 $t
C:\Users\ashto\AppData\Local\Temp\ccdF3pho.s:25     .text.USB_CoreReset:00000000 USB_CoreReset
C:\Users\ashto\AppData\Local\Temp\ccdF3pho.s:120    .text.USB_CoreInit:00000000 $t
C:\Users\ashto\AppData\Local\Temp\ccdF3pho.s:126    .text.USB_CoreInit:00000000 USB_CoreInit
C:\Users\ashto\AppData\Local\Temp\ccdF3pho.s:261    .text.USB_SetTurnaroundTime:00000000 $t
C:\Users\ashto\AppData\Local\Temp\ccdF3pho.s:267    .text.USB_SetTurnaroundTime:00000000 USB_SetTurnaroundTime
C:\Users\ashto\AppData\Local\Temp\ccdF3pho.s:447    .text.USB_SetTurnaroundTime:000000a8 $d
C:\Users\ashto\AppData\Local\Temp\ccdF3pho.s:466    .text.USB_EnableGlobalInt:00000000 $t
C:\Users\ashto\AppData\Local\Temp\ccdF3pho.s:472    .text.USB_EnableGlobalInt:00000000 USB_EnableGlobalInt
C:\Users\ashto\AppData\Local\Temp\ccdF3pho.s:495    .text.USB_DisableGlobalInt:00000000 $t
C:\Users\ashto\AppData\Local\Temp\ccdF3pho.s:501    .text.USB_DisableGlobalInt:00000000 USB_DisableGlobalInt
C:\Users\ashto\AppData\Local\Temp\ccdF3pho.s:524    .text.USB_FlushTxFifo:00000000 $t
C:\Users\ashto\AppData\Local\Temp\ccdF3pho.s:530    .text.USB_FlushTxFifo:00000000 USB_FlushTxFifo
C:\Users\ashto\AppData\Local\Temp\ccdF3pho.s:627    .text.USB_FlushRxFifo:00000000 $t
C:\Users\ashto\AppData\Local\Temp\ccdF3pho.s:633    .text.USB_FlushRxFifo:00000000 USB_FlushRxFifo
C:\Users\ashto\AppData\Local\Temp\ccdF3pho.s:726    .text.USB_SetDevSpeed:00000000 $t
C:\Users\ashto\AppData\Local\Temp\ccdF3pho.s:732    .text.USB_SetDevSpeed:00000000 USB_SetDevSpeed
C:\Users\ashto\AppData\Local\Temp\ccdF3pho.s:758    .text.USB_DevInit:00000000 $t
C:\Users\ashto\AppData\Local\Temp\ccdF3pho.s:764    .text.USB_DevInit:00000000 USB_DevInit
C:\Users\ashto\AppData\Local\Temp\ccdF3pho.s:1124   .text.USB_DevInit:00000190 $d
C:\Users\ashto\AppData\Local\Temp\ccdF3pho.s:1129   .text.USB_GetDevSpeed:00000000 $t
C:\Users\ashto\AppData\Local\Temp\ccdF3pho.s:1135   .text.USB_GetDevSpeed:00000000 USB_GetDevSpeed
C:\Users\ashto\AppData\Local\Temp\ccdF3pho.s:1193   .text.USB_ActivateEndpoint:00000000 $t
C:\Users\ashto\AppData\Local\Temp\ccdF3pho.s:1199   .text.USB_ActivateEndpoint:00000000 USB_ActivateEndpoint
C:\Users\ashto\AppData\Local\Temp\ccdF3pho.s:1316   .text.USB_ActivateDedicatedEndpoint:00000000 $t
C:\Users\ashto\AppData\Local\Temp\ccdF3pho.s:1322   .text.USB_ActivateDedicatedEndpoint:00000000 USB_ActivateDedicatedEndpoint
C:\Users\ashto\AppData\Local\Temp\ccdF3pho.s:1447   .text.USB_DeactivateEndpoint:00000000 $t
C:\Users\ashto\AppData\Local\Temp\ccdF3pho.s:1453   .text.USB_DeactivateEndpoint:00000000 USB_DeactivateEndpoint
C:\Users\ashto\AppData\Local\Temp\ccdF3pho.s:1618   .text.USB_DeactivateEndpoint:000000d8 $d
C:\Users\ashto\AppData\Local\Temp\ccdF3pho.s:1624   .text.USB_DeactivateDedicatedEndpoint:00000000 $t
C:\Users\ashto\AppData\Local\Temp\ccdF3pho.s:1630   .text.USB_DeactivateDedicatedEndpoint:00000000 USB_DeactivateDedicatedEndpoint
C:\Users\ashto\AppData\Local\Temp\ccdF3pho.s:1753   .text.USB_EPStopXfer:00000000 $t
C:\Users\ashto\AppData\Local\Temp\ccdF3pho.s:1759   .text.USB_EPStopXfer:00000000 USB_EPStopXfer
C:\Users\ashto\AppData\Local\Temp\ccdF3pho.s:1917   .text.USB_WritePacket:00000000 $t
C:\Users\ashto\AppData\Local\Temp\ccdF3pho.s:1923   .text.USB_WritePacket:00000000 USB_WritePacket
C:\Users\ashto\AppData\Local\Temp\ccdF3pho.s:1994   .text.USB_EPStartXfer:00000000 $t
C:\Users\ashto\AppData\Local\Temp\ccdF3pho.s:2000   .text.USB_EPStartXfer:00000000 USB_EPStartXfer
C:\Users\ashto\AppData\Local\Temp\ccdF3pho.s:2447   .text.USB_EPStartXfer:00000240 $d
C:\Users\ashto\AppData\Local\Temp\ccdF3pho.s:2452   .text.USB_ReadPacket:00000000 $t
C:\Users\ashto\AppData\Local\Temp\ccdF3pho.s:2458   .text.USB_ReadPacket:00000000 USB_ReadPacket
C:\Users\ashto\AppData\Local\Temp\ccdF3pho.s:2568   .text.USB_EPSetStall:00000000 $t
C:\Users\ashto\AppData\Local\Temp\ccdF3pho.s:2574   .text.USB_EPSetStall:00000000 USB_EPSetStall
C:\Users\ashto\AppData\Local\Temp\ccdF3pho.s:2655   .text.USB_EPClearStall:00000000 $t
C:\Users\ashto\AppData\Local\Temp\ccdF3pho.s:2661   .text.USB_EPClearStall:00000000 USB_EPClearStall
C:\Users\ashto\AppData\Local\Temp\ccdF3pho.s:2744   .text.USB_StopDevice:00000000 $t
C:\Users\ashto\AppData\Local\Temp\ccdF3pho.s:2750   .text.USB_StopDevice:00000000 USB_StopDevice
C:\Users\ashto\AppData\Local\Temp\ccdF3pho.s:2833   .text.USB_SetDevAddress:00000000 $t
C:\Users\ashto\AppData\Local\Temp\ccdF3pho.s:2839   .text.USB_SetDevAddress:00000000 USB_SetDevAddress
C:\Users\ashto\AppData\Local\Temp\ccdF3pho.s:2874   .text.USB_DevConnect:00000000 $t
C:\Users\ashto\AppData\Local\Temp\ccdF3pho.s:2880   .text.USB_DevConnect:00000000 USB_DevConnect
C:\Users\ashto\AppData\Local\Temp\ccdF3pho.s:2909   .text.USB_DevDisconnect:00000000 $t
C:\Users\ashto\AppData\Local\Temp\ccdF3pho.s:2915   .text.USB_DevDisconnect:00000000 USB_DevDisconnect
C:\Users\ashto\AppData\Local\Temp\ccdF3pho.s:2944   .text.USB_ReadInterrupts:00000000 $t
C:\Users\ashto\AppData\Local\Temp\ccdF3pho.s:2950   .text.USB_ReadInterrupts:00000000 USB_ReadInterrupts
C:\Users\ashto\AppData\Local\Temp\ccdF3pho.s:2977   .text.USB_ReadChInterrupts:00000000 $t
ARM GAS  C:\Users\ashto\AppData\Local\Temp\ccdF3pho.s 			page 162


C:\Users\ashto\AppData\Local\Temp\ccdF3pho.s:2983   .text.USB_ReadChInterrupts:00000000 USB_ReadChInterrupts
C:\Users\ashto\AppData\Local\Temp\ccdF3pho.s:3014   .text.USB_ReadDevAllOutEpInterrupt:00000000 $t
C:\Users\ashto\AppData\Local\Temp\ccdF3pho.s:3020   .text.USB_ReadDevAllOutEpInterrupt:00000000 USB_ReadDevAllOutEpInterrupt
C:\Users\ashto\AppData\Local\Temp\ccdF3pho.s:3053   .text.USB_ReadDevAllInEpInterrupt:00000000 $t
C:\Users\ashto\AppData\Local\Temp\ccdF3pho.s:3059   .text.USB_ReadDevAllInEpInterrupt:00000000 USB_ReadDevAllInEpInterrupt
C:\Users\ashto\AppData\Local\Temp\ccdF3pho.s:3092   .text.USB_ReadDevOutEPInterrupt:00000000 $t
C:\Users\ashto\AppData\Local\Temp\ccdF3pho.s:3098   .text.USB_ReadDevOutEPInterrupt:00000000 USB_ReadDevOutEPInterrupt
C:\Users\ashto\AppData\Local\Temp\ccdF3pho.s:3132   .text.USB_ReadDevInEPInterrupt:00000000 $t
C:\Users\ashto\AppData\Local\Temp\ccdF3pho.s:3138   .text.USB_ReadDevInEPInterrupt:00000000 USB_ReadDevInEPInterrupt
C:\Users\ashto\AppData\Local\Temp\ccdF3pho.s:3199   .text.USB_ClearInterrupts:00000000 $t
C:\Users\ashto\AppData\Local\Temp\ccdF3pho.s:3205   .text.USB_ClearInterrupts:00000000 USB_ClearInterrupts
C:\Users\ashto\AppData\Local\Temp\ccdF3pho.s:3224   .text.USB_GetMode:00000000 $t
C:\Users\ashto\AppData\Local\Temp\ccdF3pho.s:3230   .text.USB_GetMode:00000000 USB_GetMode
C:\Users\ashto\AppData\Local\Temp\ccdF3pho.s:3249   .text.USB_SetCurrentMode:00000000 $t
C:\Users\ashto\AppData\Local\Temp\ccdF3pho.s:3255   .text.USB_SetCurrentMode:00000000 USB_SetCurrentMode
C:\Users\ashto\AppData\Local\Temp\ccdF3pho.s:3372   .text.USB_ActivateSetup:00000000 $t
C:\Users\ashto\AppData\Local\Temp\ccdF3pho.s:3378   .text.USB_ActivateSetup:00000000 USB_ActivateSetup
C:\Users\ashto\AppData\Local\Temp\ccdF3pho.s:3408   .text.USB_EP0_OutStart:00000000 $t
C:\Users\ashto\AppData\Local\Temp\ccdF3pho.s:3414   .text.USB_EP0_OutStart:00000000 USB_EP0_OutStart
C:\Users\ashto\AppData\Local\Temp\ccdF3pho.s:3497   .text.USB_EP0_OutStart:0000005c $d
C:\Users\ashto\AppData\Local\Temp\ccdF3pho.s:3502   .text.USB_HostInit:00000000 $t
C:\Users\ashto\AppData\Local\Temp\ccdF3pho.s:3508   .text.USB_HostInit:00000000 USB_HostInit
C:\Users\ashto\AppData\Local\Temp\ccdF3pho.s:3719   .text.USB_HostInit:000000f0 $d
C:\Users\ashto\AppData\Local\Temp\ccdF3pho.s:3727   .text.USB_InitFSLSPClkSel:00000000 $t
C:\Users\ashto\AppData\Local\Temp\ccdF3pho.s:3733   .text.USB_InitFSLSPClkSel:00000000 USB_InitFSLSPClkSel
C:\Users\ashto\AppData\Local\Temp\ccdF3pho.s:3795   .text.USB_ResetPort:00000000 $t
C:\Users\ashto\AppData\Local\Temp\ccdF3pho.s:3801   .text.USB_ResetPort:00000000 USB_ResetPort
C:\Users\ashto\AppData\Local\Temp\ccdF3pho.s:3870   .text.USB_DriveVbus:00000000 $t
C:\Users\ashto\AppData\Local\Temp\ccdF3pho.s:3876   .text.USB_DriveVbus:00000000 USB_DriveVbus
C:\Users\ashto\AppData\Local\Temp\ccdF3pho.s:3955   .text.USB_GetHostSpeed:00000000 $t
C:\Users\ashto\AppData\Local\Temp\ccdF3pho.s:3961   .text.USB_GetHostSpeed:00000000 USB_GetHostSpeed
C:\Users\ashto\AppData\Local\Temp\ccdF3pho.s:3999   .text.USB_GetCurrentFrame:00000000 $t
C:\Users\ashto\AppData\Local\Temp\ccdF3pho.s:4005   .text.USB_GetCurrentFrame:00000000 USB_GetCurrentFrame
C:\Users\ashto\AppData\Local\Temp\ccdF3pho.s:4028   .text.USB_HC_Init:00000000 $t
C:\Users\ashto\AppData\Local\Temp\ccdF3pho.s:4034   .text.USB_HC_Init:00000000 USB_HC_Init
C:\Users\ashto\AppData\Local\Temp\ccdF3pho.s:4076   .text.USB_HC_Init:00000022 $d
C:\Users\ashto\AppData\Local\Temp\ccdF3pho.s:4080   .text.USB_HC_Init:00000026 $t
C:\Users\ashto\AppData\Local\Temp\ccdF3pho.s:4280   .text.USB_HC_Init:00000130 $d
C:\Users\ashto\AppData\Local\Temp\ccdF3pho.s:4285   .text.USB_HC_ReadInterrupt:00000000 $t
C:\Users\ashto\AppData\Local\Temp\ccdF3pho.s:4291   .text.USB_HC_ReadInterrupt:00000000 USB_HC_ReadInterrupt
C:\Users\ashto\AppData\Local\Temp\ccdF3pho.s:4314   .text.USB_HC_Halt:00000000 $t
C:\Users\ashto\AppData\Local\Temp\ccdF3pho.s:4320   .text.USB_HC_Halt:00000000 USB_HC_Halt
C:\Users\ashto\AppData\Local\Temp\ccdF3pho.s:4532   .text.USB_DoPing:00000000 $t
C:\Users\ashto\AppData\Local\Temp\ccdF3pho.s:4538   .text.USB_DoPing:00000000 USB_DoPing
C:\Users\ashto\AppData\Local\Temp\ccdF3pho.s:4580   .text.USB_DoPing:00000020 $d
C:\Users\ashto\AppData\Local\Temp\ccdF3pho.s:4585   .text.USB_HC_StartXfer:00000000 $t
C:\Users\ashto\AppData\Local\Temp\ccdF3pho.s:4591   .text.USB_HC_StartXfer:00000000 USB_HC_StartXfer
C:\Users\ashto\AppData\Local\Temp\ccdF3pho.s:4970   .text.USB_HC_StartXfer:00000194 $d
C:\Users\ashto\AppData\Local\Temp\ccdF3pho.s:4975   .text.USB_HC_StartXfer:00000198 $t
C:\Users\ashto\AppData\Local\Temp\ccdF3pho.s:5036   .text.USB_HC_StartXfer:000001e0 $d
C:\Users\ashto\AppData\Local\Temp\ccdF3pho.s:5040   .text.USB_HC_StartXfer:000001e4 $t
C:\Users\ashto\AppData\Local\Temp\ccdF3pho.s:5161   .text.USB_HC_StartXfer:0000028c $d
C:\Users\ashto\AppData\Local\Temp\ccdF3pho.s:5169   .text.USB_HC_StartXfer:00000294 $t
C:\Users\ashto\AppData\Local\Temp\ccdF3pho.s:5194   .text.USB_StopHost:00000000 $t
C:\Users\ashto\AppData\Local\Temp\ccdF3pho.s:5200   .text.USB_StopHost:00000000 USB_StopHost
C:\Users\ashto\AppData\Local\Temp\ccdF3pho.s:5367   .text.USB_ActivateRemoteWakeup:00000000 $t
C:\Users\ashto\AppData\Local\Temp\ccdF3pho.s:5373   .text.USB_ActivateRemoteWakeup:00000000 USB_ActivateRemoteWakeup
ARM GAS  C:\Users\ashto\AppData\Local\Temp\ccdF3pho.s 			page 163


C:\Users\ashto\AppData\Local\Temp\ccdF3pho.s:5407   .text.USB_DeActivateRemoteWakeup:00000000 $t
C:\Users\ashto\AppData\Local\Temp\ccdF3pho.s:5413   .text.USB_DeActivateRemoteWakeup:00000000 USB_DeActivateRemoteWakeup

UNDEFINED SYMBOLS
HAL_Delay
