ARM GAS  C:\Users\ashto\AppData\Local\Temp\ccrP71Sh.s 			page 1


   1              		.cpu cortex-m4
   2              		.arch armv7e-m
   3              		.fpu fpv4-sp-d16
   4              		.eabi_attribute 27, 1
   5              		.eabi_attribute 28, 1
   6              		.eabi_attribute 20, 1
   7              		.eabi_attribute 21, 1
   8              		.eabi_attribute 23, 3
   9              		.eabi_attribute 24, 1
  10              		.eabi_attribute 25, 1
  11              		.eabi_attribute 26, 1
  12              		.eabi_attribute 30, 1
  13              		.eabi_attribute 34, 1
  14              		.eabi_attribute 18, 4
  15              		.file	"usbh_pipes.c"
  16              		.text
  17              	.Ltext0:
  18              		.cfi_sections	.debug_frame
  19              		.section	.text.USBH_GetFreePipe,"ax",%progbits
  20              		.align	1
  21              		.syntax unified
  22              		.thumb
  23              		.thumb_func
  25              	USBH_GetFreePipe:
  26              	.LVL0:
  27              	.LFB145:
  28              		.file 1 "Middlewares/ST/STM32_USB_Host_Library/Core/Src/usbh_pipes.c"
   1:Middlewares/ST/STM32_USB_Host_Library/Core/Src/usbh_pipes.c **** /**
   2:Middlewares/ST/STM32_USB_Host_Library/Core/Src/usbh_pipes.c ****   ******************************************************************************
   3:Middlewares/ST/STM32_USB_Host_Library/Core/Src/usbh_pipes.c ****   * @file    usbh_pipes.c
   4:Middlewares/ST/STM32_USB_Host_Library/Core/Src/usbh_pipes.c ****   * @author  MCD Application Team
   5:Middlewares/ST/STM32_USB_Host_Library/Core/Src/usbh_pipes.c ****   * @brief   This file implements functions for opening and closing Pipes
   6:Middlewares/ST/STM32_USB_Host_Library/Core/Src/usbh_pipes.c ****   ******************************************************************************
   7:Middlewares/ST/STM32_USB_Host_Library/Core/Src/usbh_pipes.c ****   * @attention
   8:Middlewares/ST/STM32_USB_Host_Library/Core/Src/usbh_pipes.c ****   *
   9:Middlewares/ST/STM32_USB_Host_Library/Core/Src/usbh_pipes.c ****   * Copyright (c) 2015 STMicroelectronics.
  10:Middlewares/ST/STM32_USB_Host_Library/Core/Src/usbh_pipes.c ****   * All rights reserved.
  11:Middlewares/ST/STM32_USB_Host_Library/Core/Src/usbh_pipes.c ****   *
  12:Middlewares/ST/STM32_USB_Host_Library/Core/Src/usbh_pipes.c ****   * This software is licensed under terms that can be found in the LICENSE file
  13:Middlewares/ST/STM32_USB_Host_Library/Core/Src/usbh_pipes.c ****   * in the root directory of this software component.
  14:Middlewares/ST/STM32_USB_Host_Library/Core/Src/usbh_pipes.c ****   * If no LICENSE file comes with this software, it is provided AS-IS.
  15:Middlewares/ST/STM32_USB_Host_Library/Core/Src/usbh_pipes.c ****   *
  16:Middlewares/ST/STM32_USB_Host_Library/Core/Src/usbh_pipes.c ****   ******************************************************************************
  17:Middlewares/ST/STM32_USB_Host_Library/Core/Src/usbh_pipes.c ****   */
  18:Middlewares/ST/STM32_USB_Host_Library/Core/Src/usbh_pipes.c **** 
  19:Middlewares/ST/STM32_USB_Host_Library/Core/Src/usbh_pipes.c **** /* Includes ------------------------------------------------------------------*/
  20:Middlewares/ST/STM32_USB_Host_Library/Core/Src/usbh_pipes.c **** #include "usbh_pipes.h"
  21:Middlewares/ST/STM32_USB_Host_Library/Core/Src/usbh_pipes.c **** 
  22:Middlewares/ST/STM32_USB_Host_Library/Core/Src/usbh_pipes.c **** /** @addtogroup USBH_LIB
  23:Middlewares/ST/STM32_USB_Host_Library/Core/Src/usbh_pipes.c ****   * @{
  24:Middlewares/ST/STM32_USB_Host_Library/Core/Src/usbh_pipes.c ****   */
  25:Middlewares/ST/STM32_USB_Host_Library/Core/Src/usbh_pipes.c **** 
  26:Middlewares/ST/STM32_USB_Host_Library/Core/Src/usbh_pipes.c **** /** @addtogroup USBH_LIB_CORE
  27:Middlewares/ST/STM32_USB_Host_Library/Core/Src/usbh_pipes.c ****   * @{
  28:Middlewares/ST/STM32_USB_Host_Library/Core/Src/usbh_pipes.c ****   */
  29:Middlewares/ST/STM32_USB_Host_Library/Core/Src/usbh_pipes.c **** 
  30:Middlewares/ST/STM32_USB_Host_Library/Core/Src/usbh_pipes.c **** /** @defgroup USBH_PIPES
ARM GAS  C:\Users\ashto\AppData\Local\Temp\ccrP71Sh.s 			page 2


  31:Middlewares/ST/STM32_USB_Host_Library/Core/Src/usbh_pipes.c ****   * @brief This file includes opening and closing Pipes
  32:Middlewares/ST/STM32_USB_Host_Library/Core/Src/usbh_pipes.c ****   * @{
  33:Middlewares/ST/STM32_USB_Host_Library/Core/Src/usbh_pipes.c ****   */
  34:Middlewares/ST/STM32_USB_Host_Library/Core/Src/usbh_pipes.c **** 
  35:Middlewares/ST/STM32_USB_Host_Library/Core/Src/usbh_pipes.c **** /** @defgroup USBH_PIPES_Private_Defines
  36:Middlewares/ST/STM32_USB_Host_Library/Core/Src/usbh_pipes.c ****   * @{
  37:Middlewares/ST/STM32_USB_Host_Library/Core/Src/usbh_pipes.c ****   */
  38:Middlewares/ST/STM32_USB_Host_Library/Core/Src/usbh_pipes.c **** /**
  39:Middlewares/ST/STM32_USB_Host_Library/Core/Src/usbh_pipes.c ****   * @}
  40:Middlewares/ST/STM32_USB_Host_Library/Core/Src/usbh_pipes.c ****   */
  41:Middlewares/ST/STM32_USB_Host_Library/Core/Src/usbh_pipes.c **** 
  42:Middlewares/ST/STM32_USB_Host_Library/Core/Src/usbh_pipes.c **** /** @defgroup USBH_PIPES_Private_TypesDefinitions
  43:Middlewares/ST/STM32_USB_Host_Library/Core/Src/usbh_pipes.c ****   * @{
  44:Middlewares/ST/STM32_USB_Host_Library/Core/Src/usbh_pipes.c ****   */
  45:Middlewares/ST/STM32_USB_Host_Library/Core/Src/usbh_pipes.c **** /**
  46:Middlewares/ST/STM32_USB_Host_Library/Core/Src/usbh_pipes.c ****   * @}
  47:Middlewares/ST/STM32_USB_Host_Library/Core/Src/usbh_pipes.c ****   */
  48:Middlewares/ST/STM32_USB_Host_Library/Core/Src/usbh_pipes.c **** 
  49:Middlewares/ST/STM32_USB_Host_Library/Core/Src/usbh_pipes.c **** 
  50:Middlewares/ST/STM32_USB_Host_Library/Core/Src/usbh_pipes.c **** /** @defgroup USBH_PIPES_Private_Macros
  51:Middlewares/ST/STM32_USB_Host_Library/Core/Src/usbh_pipes.c ****   * @{
  52:Middlewares/ST/STM32_USB_Host_Library/Core/Src/usbh_pipes.c ****   */
  53:Middlewares/ST/STM32_USB_Host_Library/Core/Src/usbh_pipes.c **** /**
  54:Middlewares/ST/STM32_USB_Host_Library/Core/Src/usbh_pipes.c ****   * @}
  55:Middlewares/ST/STM32_USB_Host_Library/Core/Src/usbh_pipes.c ****   */
  56:Middlewares/ST/STM32_USB_Host_Library/Core/Src/usbh_pipes.c **** 
  57:Middlewares/ST/STM32_USB_Host_Library/Core/Src/usbh_pipes.c **** 
  58:Middlewares/ST/STM32_USB_Host_Library/Core/Src/usbh_pipes.c **** /** @defgroup USBH_PIPES_Private_Variables
  59:Middlewares/ST/STM32_USB_Host_Library/Core/Src/usbh_pipes.c ****   * @{
  60:Middlewares/ST/STM32_USB_Host_Library/Core/Src/usbh_pipes.c ****   */
  61:Middlewares/ST/STM32_USB_Host_Library/Core/Src/usbh_pipes.c **** 
  62:Middlewares/ST/STM32_USB_Host_Library/Core/Src/usbh_pipes.c **** /**
  63:Middlewares/ST/STM32_USB_Host_Library/Core/Src/usbh_pipes.c ****   * @}
  64:Middlewares/ST/STM32_USB_Host_Library/Core/Src/usbh_pipes.c ****   */
  65:Middlewares/ST/STM32_USB_Host_Library/Core/Src/usbh_pipes.c **** 
  66:Middlewares/ST/STM32_USB_Host_Library/Core/Src/usbh_pipes.c **** 
  67:Middlewares/ST/STM32_USB_Host_Library/Core/Src/usbh_pipes.c **** /** @defgroup USBH_PIPES_Private_Functions
  68:Middlewares/ST/STM32_USB_Host_Library/Core/Src/usbh_pipes.c ****   * @{
  69:Middlewares/ST/STM32_USB_Host_Library/Core/Src/usbh_pipes.c ****   */
  70:Middlewares/ST/STM32_USB_Host_Library/Core/Src/usbh_pipes.c **** static uint16_t USBH_GetFreePipe(USBH_HandleTypeDef *phost);
  71:Middlewares/ST/STM32_USB_Host_Library/Core/Src/usbh_pipes.c **** 
  72:Middlewares/ST/STM32_USB_Host_Library/Core/Src/usbh_pipes.c **** 
  73:Middlewares/ST/STM32_USB_Host_Library/Core/Src/usbh_pipes.c **** /**
  74:Middlewares/ST/STM32_USB_Host_Library/Core/Src/usbh_pipes.c ****   * @brief  USBH_Open_Pipe
  75:Middlewares/ST/STM32_USB_Host_Library/Core/Src/usbh_pipes.c ****   *         Open a  pipe
  76:Middlewares/ST/STM32_USB_Host_Library/Core/Src/usbh_pipes.c ****   * @param  phost: Host Handle
  77:Middlewares/ST/STM32_USB_Host_Library/Core/Src/usbh_pipes.c ****   * @param  pipe_num: Pipe Number
  78:Middlewares/ST/STM32_USB_Host_Library/Core/Src/usbh_pipes.c ****   * @param  dev_address: USB Device address allocated to attached device
  79:Middlewares/ST/STM32_USB_Host_Library/Core/Src/usbh_pipes.c ****   * @param  speed : USB device speed (Full/Low)
  80:Middlewares/ST/STM32_USB_Host_Library/Core/Src/usbh_pipes.c ****   * @param  ep_type: end point type (Bulk/int/ctl)
  81:Middlewares/ST/STM32_USB_Host_Library/Core/Src/usbh_pipes.c ****   * @param  mps: max pkt size
  82:Middlewares/ST/STM32_USB_Host_Library/Core/Src/usbh_pipes.c ****   * @retval USBH Status
  83:Middlewares/ST/STM32_USB_Host_Library/Core/Src/usbh_pipes.c ****   */
  84:Middlewares/ST/STM32_USB_Host_Library/Core/Src/usbh_pipes.c **** USBH_StatusTypeDef USBH_OpenPipe(USBH_HandleTypeDef *phost, uint8_t pipe_num,
  85:Middlewares/ST/STM32_USB_Host_Library/Core/Src/usbh_pipes.c ****                                  uint8_t epnum, uint8_t dev_address,
  86:Middlewares/ST/STM32_USB_Host_Library/Core/Src/usbh_pipes.c ****                                  uint8_t speed, uint8_t ep_type, uint16_t mps)
  87:Middlewares/ST/STM32_USB_Host_Library/Core/Src/usbh_pipes.c **** {
ARM GAS  C:\Users\ashto\AppData\Local\Temp\ccrP71Sh.s 			page 3


  88:Middlewares/ST/STM32_USB_Host_Library/Core/Src/usbh_pipes.c ****   (void)USBH_LL_OpenPipe(phost, pipe_num, epnum, dev_address, speed, ep_type, mps);
  89:Middlewares/ST/STM32_USB_Host_Library/Core/Src/usbh_pipes.c **** 
  90:Middlewares/ST/STM32_USB_Host_Library/Core/Src/usbh_pipes.c ****   return USBH_OK;
  91:Middlewares/ST/STM32_USB_Host_Library/Core/Src/usbh_pipes.c **** }
  92:Middlewares/ST/STM32_USB_Host_Library/Core/Src/usbh_pipes.c **** 
  93:Middlewares/ST/STM32_USB_Host_Library/Core/Src/usbh_pipes.c **** 
  94:Middlewares/ST/STM32_USB_Host_Library/Core/Src/usbh_pipes.c **** /**
  95:Middlewares/ST/STM32_USB_Host_Library/Core/Src/usbh_pipes.c ****   * @brief  USBH_ClosePipe
  96:Middlewares/ST/STM32_USB_Host_Library/Core/Src/usbh_pipes.c ****   *         Close a  pipe
  97:Middlewares/ST/STM32_USB_Host_Library/Core/Src/usbh_pipes.c ****   * @param  phost: Host Handle
  98:Middlewares/ST/STM32_USB_Host_Library/Core/Src/usbh_pipes.c ****   * @param  pipe_num: Pipe Number
  99:Middlewares/ST/STM32_USB_Host_Library/Core/Src/usbh_pipes.c ****   * @retval USBH Status
 100:Middlewares/ST/STM32_USB_Host_Library/Core/Src/usbh_pipes.c ****   */
 101:Middlewares/ST/STM32_USB_Host_Library/Core/Src/usbh_pipes.c **** USBH_StatusTypeDef USBH_ClosePipe(USBH_HandleTypeDef *phost, uint8_t pipe_num)
 102:Middlewares/ST/STM32_USB_Host_Library/Core/Src/usbh_pipes.c **** {
 103:Middlewares/ST/STM32_USB_Host_Library/Core/Src/usbh_pipes.c ****   (void)USBH_LL_ClosePipe(phost, pipe_num);
 104:Middlewares/ST/STM32_USB_Host_Library/Core/Src/usbh_pipes.c **** 
 105:Middlewares/ST/STM32_USB_Host_Library/Core/Src/usbh_pipes.c ****   return USBH_OK;
 106:Middlewares/ST/STM32_USB_Host_Library/Core/Src/usbh_pipes.c **** }
 107:Middlewares/ST/STM32_USB_Host_Library/Core/Src/usbh_pipes.c **** 
 108:Middlewares/ST/STM32_USB_Host_Library/Core/Src/usbh_pipes.c **** 
 109:Middlewares/ST/STM32_USB_Host_Library/Core/Src/usbh_pipes.c **** /**
 110:Middlewares/ST/STM32_USB_Host_Library/Core/Src/usbh_pipes.c ****   * @brief  USBH_Alloc_Pipe
 111:Middlewares/ST/STM32_USB_Host_Library/Core/Src/usbh_pipes.c ****   *         Allocate a new Pipe
 112:Middlewares/ST/STM32_USB_Host_Library/Core/Src/usbh_pipes.c ****   * @param  phost: Host Handle
 113:Middlewares/ST/STM32_USB_Host_Library/Core/Src/usbh_pipes.c ****   * @param  ep_addr: End point for which the Pipe to be allocated
 114:Middlewares/ST/STM32_USB_Host_Library/Core/Src/usbh_pipes.c ****   * @retval Pipe number
 115:Middlewares/ST/STM32_USB_Host_Library/Core/Src/usbh_pipes.c ****   */
 116:Middlewares/ST/STM32_USB_Host_Library/Core/Src/usbh_pipes.c **** uint8_t USBH_AllocPipe(USBH_HandleTypeDef *phost, uint8_t ep_addr)
 117:Middlewares/ST/STM32_USB_Host_Library/Core/Src/usbh_pipes.c **** {
 118:Middlewares/ST/STM32_USB_Host_Library/Core/Src/usbh_pipes.c ****   uint16_t pipe;
 119:Middlewares/ST/STM32_USB_Host_Library/Core/Src/usbh_pipes.c **** 
 120:Middlewares/ST/STM32_USB_Host_Library/Core/Src/usbh_pipes.c ****   pipe =  USBH_GetFreePipe(phost);
 121:Middlewares/ST/STM32_USB_Host_Library/Core/Src/usbh_pipes.c **** 
 122:Middlewares/ST/STM32_USB_Host_Library/Core/Src/usbh_pipes.c ****   if (pipe != 0xFFFFU)
 123:Middlewares/ST/STM32_USB_Host_Library/Core/Src/usbh_pipes.c ****   {
 124:Middlewares/ST/STM32_USB_Host_Library/Core/Src/usbh_pipes.c ****     phost->Pipes[pipe & 0xFU] = (uint32_t)(0x8000U | ep_addr);
 125:Middlewares/ST/STM32_USB_Host_Library/Core/Src/usbh_pipes.c ****   }
 126:Middlewares/ST/STM32_USB_Host_Library/Core/Src/usbh_pipes.c **** 
 127:Middlewares/ST/STM32_USB_Host_Library/Core/Src/usbh_pipes.c ****   return (uint8_t)pipe;
 128:Middlewares/ST/STM32_USB_Host_Library/Core/Src/usbh_pipes.c **** }
 129:Middlewares/ST/STM32_USB_Host_Library/Core/Src/usbh_pipes.c **** 
 130:Middlewares/ST/STM32_USB_Host_Library/Core/Src/usbh_pipes.c **** 
 131:Middlewares/ST/STM32_USB_Host_Library/Core/Src/usbh_pipes.c **** /**
 132:Middlewares/ST/STM32_USB_Host_Library/Core/Src/usbh_pipes.c ****   * @brief  USBH_Free_Pipe
 133:Middlewares/ST/STM32_USB_Host_Library/Core/Src/usbh_pipes.c ****   *         Free the USB Pipe
 134:Middlewares/ST/STM32_USB_Host_Library/Core/Src/usbh_pipes.c ****   * @param  phost: Host Handle
 135:Middlewares/ST/STM32_USB_Host_Library/Core/Src/usbh_pipes.c ****   * @param  idx: Pipe number to be freed
 136:Middlewares/ST/STM32_USB_Host_Library/Core/Src/usbh_pipes.c ****   * @retval USBH Status
 137:Middlewares/ST/STM32_USB_Host_Library/Core/Src/usbh_pipes.c ****   */
 138:Middlewares/ST/STM32_USB_Host_Library/Core/Src/usbh_pipes.c **** USBH_StatusTypeDef USBH_FreePipe(USBH_HandleTypeDef *phost, uint8_t idx)
 139:Middlewares/ST/STM32_USB_Host_Library/Core/Src/usbh_pipes.c **** {
 140:Middlewares/ST/STM32_USB_Host_Library/Core/Src/usbh_pipes.c ****   if (idx < USBH_MAX_PIPES_NBR)
 141:Middlewares/ST/STM32_USB_Host_Library/Core/Src/usbh_pipes.c ****   {
 142:Middlewares/ST/STM32_USB_Host_Library/Core/Src/usbh_pipes.c ****     phost->Pipes[idx] &= 0x7FFFU;
 143:Middlewares/ST/STM32_USB_Host_Library/Core/Src/usbh_pipes.c ****   }
 144:Middlewares/ST/STM32_USB_Host_Library/Core/Src/usbh_pipes.c **** 
ARM GAS  C:\Users\ashto\AppData\Local\Temp\ccrP71Sh.s 			page 4


 145:Middlewares/ST/STM32_USB_Host_Library/Core/Src/usbh_pipes.c ****   return USBH_OK;
 146:Middlewares/ST/STM32_USB_Host_Library/Core/Src/usbh_pipes.c **** }
 147:Middlewares/ST/STM32_USB_Host_Library/Core/Src/usbh_pipes.c **** 
 148:Middlewares/ST/STM32_USB_Host_Library/Core/Src/usbh_pipes.c **** 
 149:Middlewares/ST/STM32_USB_Host_Library/Core/Src/usbh_pipes.c **** /**
 150:Middlewares/ST/STM32_USB_Host_Library/Core/Src/usbh_pipes.c ****   * @brief  USBH_GetFreePipe
 151:Middlewares/ST/STM32_USB_Host_Library/Core/Src/usbh_pipes.c ****   * @param  phost: Host Handle
 152:Middlewares/ST/STM32_USB_Host_Library/Core/Src/usbh_pipes.c ****   *         Get a free Pipe number for allocation to a device endpoint
 153:Middlewares/ST/STM32_USB_Host_Library/Core/Src/usbh_pipes.c ****   * @retval idx: Free Pipe number
 154:Middlewares/ST/STM32_USB_Host_Library/Core/Src/usbh_pipes.c ****   */
 155:Middlewares/ST/STM32_USB_Host_Library/Core/Src/usbh_pipes.c **** static uint16_t USBH_GetFreePipe(USBH_HandleTypeDef *phost)
 156:Middlewares/ST/STM32_USB_Host_Library/Core/Src/usbh_pipes.c **** {
  29              		.loc 1 156 1 view -0
  30              		.cfi_startproc
  31              		@ args = 0, pretend = 0, frame = 0
  32              		@ frame_needed = 0, uses_anonymous_args = 0
  33              		@ link register save eliminated.
 157:Middlewares/ST/STM32_USB_Host_Library/Core/Src/usbh_pipes.c ****   uint8_t idx = 0U;
  34              		.loc 1 157 3 view .LVU1
 158:Middlewares/ST/STM32_USB_Host_Library/Core/Src/usbh_pipes.c **** 
 159:Middlewares/ST/STM32_USB_Host_Library/Core/Src/usbh_pipes.c ****   for (idx = 0U; idx < USBH_MAX_PIPES_NBR; idx++)
  35              		.loc 1 159 3 view .LVU2
  36              		.loc 1 159 12 is_stmt 0 view .LVU3
  37 0000 0023     		movs	r3, #0
  38              	.LVL1:
  39              	.L2:
  40              		.loc 1 159 18 is_stmt 1 discriminator 1 view .LVU4
  41              		.loc 1 159 3 is_stmt 0 discriminator 1 view .LVU5
  42 0002 0F2B     		cmp	r3, #15
  43 0004 0CD8     		bhi	.L6
 160:Middlewares/ST/STM32_USB_Host_Library/Core/Src/usbh_pipes.c ****   {
 161:Middlewares/ST/STM32_USB_Host_Library/Core/Src/usbh_pipes.c ****     if ((phost->Pipes[idx] & 0x8000U) == 0U)
  44              		.loc 1 161 5 is_stmt 1 view .LVU6
  45              		.loc 1 161 22 is_stmt 0 view .LVU7
  46 0006 03F1E002 		add	r2, r3, #224
  47 000a 00EB8202 		add	r2, r0, r2, lsl #2
  48 000e 5268     		ldr	r2, [r2, #4]
  49              		.loc 1 161 8 view .LVU8
  50 0010 12F4004F 		tst	r2, #32768
  51 0014 02D0     		beq	.L7
 159:Middlewares/ST/STM32_USB_Host_Library/Core/Src/usbh_pipes.c ****   {
  52              		.loc 1 159 44 is_stmt 1 discriminator 2 view .LVU9
 159:Middlewares/ST/STM32_USB_Host_Library/Core/Src/usbh_pipes.c ****   {
  53              		.loc 1 159 47 is_stmt 0 discriminator 2 view .LVU10
  54 0016 0133     		adds	r3, r3, #1
  55              	.LVL2:
 159:Middlewares/ST/STM32_USB_Host_Library/Core/Src/usbh_pipes.c ****   {
  56              		.loc 1 159 47 discriminator 2 view .LVU11
  57 0018 DBB2     		uxtb	r3, r3
  58              	.LVL3:
 159:Middlewares/ST/STM32_USB_Host_Library/Core/Src/usbh_pipes.c ****   {
  59              		.loc 1 159 47 discriminator 2 view .LVU12
  60 001a F2E7     		b	.L2
  61              	.L7:
 162:Middlewares/ST/STM32_USB_Host_Library/Core/Src/usbh_pipes.c ****     {
 163:Middlewares/ST/STM32_USB_Host_Library/Core/Src/usbh_pipes.c ****       return (uint16_t)idx;
  62              		.loc 1 163 7 is_stmt 1 view .LVU13
ARM GAS  C:\Users\ashto\AppData\Local\Temp\ccrP71Sh.s 			page 5


  63              		.loc 1 163 14 is_stmt 0 view .LVU14
  64 001c 98B2     		uxth	r0, r3
  65              	.LVL4:
  66              		.loc 1 163 14 view .LVU15
  67 001e 7047     		bx	lr
  68              	.LVL5:
  69              	.L6:
 164:Middlewares/ST/STM32_USB_Host_Library/Core/Src/usbh_pipes.c ****     }
 165:Middlewares/ST/STM32_USB_Host_Library/Core/Src/usbh_pipes.c ****   }
 166:Middlewares/ST/STM32_USB_Host_Library/Core/Src/usbh_pipes.c **** 
 167:Middlewares/ST/STM32_USB_Host_Library/Core/Src/usbh_pipes.c ****   return 0xFFFFU;
  70              		.loc 1 167 10 view .LVU16
  71 0020 4FF6FF70 		movw	r0, #65535
  72              	.LVL6:
 168:Middlewares/ST/STM32_USB_Host_Library/Core/Src/usbh_pipes.c **** }
  73              		.loc 1 168 1 view .LVU17
  74 0024 7047     		bx	lr
  75              		.cfi_endproc
  76              	.LFE145:
  78              		.section	.text.USBH_OpenPipe,"ax",%progbits
  79              		.align	1
  80              		.global	USBH_OpenPipe
  81              		.syntax unified
  82              		.thumb
  83              		.thumb_func
  85              	USBH_OpenPipe:
  86              	.LVL7:
  87              	.LFB141:
  87:Middlewares/ST/STM32_USB_Host_Library/Core/Src/usbh_pipes.c ****   (void)USBH_LL_OpenPipe(phost, pipe_num, epnum, dev_address, speed, ep_type, mps);
  88              		.loc 1 87 1 is_stmt 1 view -0
  89              		.cfi_startproc
  90              		@ args = 12, pretend = 0, frame = 0
  91              		@ frame_needed = 0, uses_anonymous_args = 0
  87:Middlewares/ST/STM32_USB_Host_Library/Core/Src/usbh_pipes.c ****   (void)USBH_LL_OpenPipe(phost, pipe_num, epnum, dev_address, speed, ep_type, mps);
  92              		.loc 1 87 1 is_stmt 0 view .LVU19
  93 0000 10B5     		push	{r4, lr}
  94              	.LCFI0:
  95              		.cfi_def_cfa_offset 8
  96              		.cfi_offset 4, -8
  97              		.cfi_offset 14, -4
  98 0002 84B0     		sub	sp, sp, #16
  99              	.LCFI1:
 100              		.cfi_def_cfa_offset 24
  88:Middlewares/ST/STM32_USB_Host_Library/Core/Src/usbh_pipes.c **** 
 101              		.loc 1 88 3 is_stmt 1 view .LVU20
  88:Middlewares/ST/STM32_USB_Host_Library/Core/Src/usbh_pipes.c **** 
 102              		.loc 1 88 9 is_stmt 0 view .LVU21
 103 0004 BDF82040 		ldrh	r4, [sp, #32]
 104 0008 0294     		str	r4, [sp, #8]
 105 000a 9DF81C40 		ldrb	r4, [sp, #28]	@ zero_extendqisi2
 106 000e 0194     		str	r4, [sp, #4]
 107 0010 9DF81840 		ldrb	r4, [sp, #24]	@ zero_extendqisi2
 108 0014 0094     		str	r4, [sp]
 109 0016 FFF7FEFF 		bl	USBH_LL_OpenPipe
 110              	.LVL8:
  90:Middlewares/ST/STM32_USB_Host_Library/Core/Src/usbh_pipes.c **** }
 111              		.loc 1 90 3 is_stmt 1 view .LVU22
ARM GAS  C:\Users\ashto\AppData\Local\Temp\ccrP71Sh.s 			page 6


  91:Middlewares/ST/STM32_USB_Host_Library/Core/Src/usbh_pipes.c **** 
 112              		.loc 1 91 1 is_stmt 0 view .LVU23
 113 001a 0020     		movs	r0, #0
 114 001c 04B0     		add	sp, sp, #16
 115              	.LCFI2:
 116              		.cfi_def_cfa_offset 8
 117              		@ sp needed
 118 001e 10BD     		pop	{r4, pc}
  91:Middlewares/ST/STM32_USB_Host_Library/Core/Src/usbh_pipes.c **** 
 119              		.loc 1 91 1 view .LVU24
 120              		.cfi_endproc
 121              	.LFE141:
 123              		.section	.text.USBH_ClosePipe,"ax",%progbits
 124              		.align	1
 125              		.global	USBH_ClosePipe
 126              		.syntax unified
 127              		.thumb
 128              		.thumb_func
 130              	USBH_ClosePipe:
 131              	.LVL9:
 132              	.LFB142:
 102:Middlewares/ST/STM32_USB_Host_Library/Core/Src/usbh_pipes.c ****   (void)USBH_LL_ClosePipe(phost, pipe_num);
 133              		.loc 1 102 1 is_stmt 1 view -0
 134              		.cfi_startproc
 135              		@ args = 0, pretend = 0, frame = 0
 136              		@ frame_needed = 0, uses_anonymous_args = 0
 102:Middlewares/ST/STM32_USB_Host_Library/Core/Src/usbh_pipes.c ****   (void)USBH_LL_ClosePipe(phost, pipe_num);
 137              		.loc 1 102 1 is_stmt 0 view .LVU26
 138 0000 08B5     		push	{r3, lr}
 139              	.LCFI3:
 140              		.cfi_def_cfa_offset 8
 141              		.cfi_offset 3, -8
 142              		.cfi_offset 14, -4
 103:Middlewares/ST/STM32_USB_Host_Library/Core/Src/usbh_pipes.c **** 
 143              		.loc 1 103 3 is_stmt 1 view .LVU27
 103:Middlewares/ST/STM32_USB_Host_Library/Core/Src/usbh_pipes.c **** 
 144              		.loc 1 103 9 is_stmt 0 view .LVU28
 145 0002 FFF7FEFF 		bl	USBH_LL_ClosePipe
 146              	.LVL10:
 105:Middlewares/ST/STM32_USB_Host_Library/Core/Src/usbh_pipes.c **** }
 147              		.loc 1 105 3 is_stmt 1 view .LVU29
 106:Middlewares/ST/STM32_USB_Host_Library/Core/Src/usbh_pipes.c **** 
 148              		.loc 1 106 1 is_stmt 0 view .LVU30
 149 0006 0020     		movs	r0, #0
 150 0008 08BD     		pop	{r3, pc}
 151              		.cfi_endproc
 152              	.LFE142:
 154              		.section	.text.USBH_AllocPipe,"ax",%progbits
 155              		.align	1
 156              		.global	USBH_AllocPipe
 157              		.syntax unified
 158              		.thumb
 159              		.thumb_func
 161              	USBH_AllocPipe:
 162              	.LVL11:
 163              	.LFB143:
 117:Middlewares/ST/STM32_USB_Host_Library/Core/Src/usbh_pipes.c ****   uint16_t pipe;
ARM GAS  C:\Users\ashto\AppData\Local\Temp\ccrP71Sh.s 			page 7


 164              		.loc 1 117 1 is_stmt 1 view -0
 165              		.cfi_startproc
 166              		@ args = 0, pretend = 0, frame = 0
 167              		@ frame_needed = 0, uses_anonymous_args = 0
 117:Middlewares/ST/STM32_USB_Host_Library/Core/Src/usbh_pipes.c ****   uint16_t pipe;
 168              		.loc 1 117 1 is_stmt 0 view .LVU32
 169 0000 38B5     		push	{r3, r4, r5, lr}
 170              	.LCFI4:
 171              		.cfi_def_cfa_offset 16
 172              		.cfi_offset 3, -16
 173              		.cfi_offset 4, -12
 174              		.cfi_offset 5, -8
 175              		.cfi_offset 14, -4
 176 0002 0446     		mov	r4, r0
 177 0004 0D46     		mov	r5, r1
 118:Middlewares/ST/STM32_USB_Host_Library/Core/Src/usbh_pipes.c **** 
 178              		.loc 1 118 3 is_stmt 1 view .LVU33
 120:Middlewares/ST/STM32_USB_Host_Library/Core/Src/usbh_pipes.c **** 
 179              		.loc 1 120 3 view .LVU34
 120:Middlewares/ST/STM32_USB_Host_Library/Core/Src/usbh_pipes.c **** 
 180              		.loc 1 120 11 is_stmt 0 view .LVU35
 181 0006 FFF7FEFF 		bl	USBH_GetFreePipe
 182              	.LVL12:
 122:Middlewares/ST/STM32_USB_Host_Library/Core/Src/usbh_pipes.c ****   {
 183              		.loc 1 122 3 is_stmt 1 view .LVU36
 122:Middlewares/ST/STM32_USB_Host_Library/Core/Src/usbh_pipes.c ****   {
 184              		.loc 1 122 6 is_stmt 0 view .LVU37
 185 000a 4FF6FF73 		movw	r3, #65535
 186 000e 9842     		cmp	r0, r3
 187 0010 07D0     		beq	.L13
 124:Middlewares/ST/STM32_USB_Host_Library/Core/Src/usbh_pipes.c ****   }
 188              		.loc 1 124 5 is_stmt 1 view .LVU38
 124:Middlewares/ST/STM32_USB_Host_Library/Core/Src/usbh_pipes.c ****   }
 189              		.loc 1 124 23 is_stmt 0 view .LVU39
 190 0012 00F00F03 		and	r3, r0, #15
 124:Middlewares/ST/STM32_USB_Host_Library/Core/Src/usbh_pipes.c ****   }
 191              		.loc 1 124 52 view .LVU40
 192 0016 45F40045 		orr	r5, r5, #32768
 124:Middlewares/ST/STM32_USB_Host_Library/Core/Src/usbh_pipes.c ****   }
 193              		.loc 1 124 31 view .LVU41
 194 001a E033     		adds	r3, r3, #224
 195 001c 04EB8303 		add	r3, r4, r3, lsl #2
 196 0020 5D60     		str	r5, [r3, #4]
 197              	.L13:
 127:Middlewares/ST/STM32_USB_Host_Library/Core/Src/usbh_pipes.c **** }
 198              		.loc 1 127 3 is_stmt 1 view .LVU42
 128:Middlewares/ST/STM32_USB_Host_Library/Core/Src/usbh_pipes.c **** 
 199              		.loc 1 128 1 is_stmt 0 view .LVU43
 200 0022 C0B2     		uxtb	r0, r0
 201              	.LVL13:
 128:Middlewares/ST/STM32_USB_Host_Library/Core/Src/usbh_pipes.c **** 
 202              		.loc 1 128 1 view .LVU44
 203 0024 38BD     		pop	{r3, r4, r5, pc}
 128:Middlewares/ST/STM32_USB_Host_Library/Core/Src/usbh_pipes.c **** 
 204              		.loc 1 128 1 view .LVU45
 205              		.cfi_endproc
 206              	.LFE143:
ARM GAS  C:\Users\ashto\AppData\Local\Temp\ccrP71Sh.s 			page 8


 208              		.section	.text.USBH_FreePipe,"ax",%progbits
 209              		.align	1
 210              		.global	USBH_FreePipe
 211              		.syntax unified
 212              		.thumb
 213              		.thumb_func
 215              	USBH_FreePipe:
 216              	.LVL14:
 217              	.LFB144:
 139:Middlewares/ST/STM32_USB_Host_Library/Core/Src/usbh_pipes.c ****   if (idx < USBH_MAX_PIPES_NBR)
 218              		.loc 1 139 1 is_stmt 1 view -0
 219              		.cfi_startproc
 220              		@ args = 0, pretend = 0, frame = 0
 221              		@ frame_needed = 0, uses_anonymous_args = 0
 222              		@ link register save eliminated.
 140:Middlewares/ST/STM32_USB_Host_Library/Core/Src/usbh_pipes.c ****   {
 223              		.loc 1 140 3 view .LVU47
 140:Middlewares/ST/STM32_USB_Host_Library/Core/Src/usbh_pipes.c ****   {
 224              		.loc 1 140 6 is_stmt 0 view .LVU48
 225 0000 0F29     		cmp	r1, #15
 226 0002 06D8     		bhi	.L16
 142:Middlewares/ST/STM32_USB_Host_Library/Core/Src/usbh_pipes.c ****   }
 227              		.loc 1 142 5 is_stmt 1 view .LVU49
 142:Middlewares/ST/STM32_USB_Host_Library/Core/Src/usbh_pipes.c ****   }
 228              		.loc 1 142 23 is_stmt 0 view .LVU50
 229 0004 E031     		adds	r1, r1, #224
 230              	.LVL15:
 142:Middlewares/ST/STM32_USB_Host_Library/Core/Src/usbh_pipes.c ****   }
 231              		.loc 1 142 23 view .LVU51
 232 0006 00EB8100 		add	r0, r0, r1, lsl #2
 233              	.LVL16:
 142:Middlewares/ST/STM32_USB_Host_Library/Core/Src/usbh_pipes.c ****   }
 234              		.loc 1 142 23 view .LVU52
 235 000a 4368     		ldr	r3, [r0, #4]
 236 000c C3F30E03 		ubfx	r3, r3, #0, #15
 237 0010 4360     		str	r3, [r0, #4]
 238              	.L16:
 145:Middlewares/ST/STM32_USB_Host_Library/Core/Src/usbh_pipes.c **** }
 239              		.loc 1 145 3 is_stmt 1 view .LVU53
 146:Middlewares/ST/STM32_USB_Host_Library/Core/Src/usbh_pipes.c **** 
 240              		.loc 1 146 1 is_stmt 0 view .LVU54
 241 0012 0020     		movs	r0, #0
 242 0014 7047     		bx	lr
 243              		.cfi_endproc
 244              	.LFE144:
 246              		.text
 247              	.Letext0:
 248              		.file 2 "c:\\program files (x86)\\gnu arm embedded toolchain\\10 2021.10\\arm-none-eabi\\include\\
 249              		.file 3 "c:\\program files (x86)\\gnu arm embedded toolchain\\10 2021.10\\arm-none-eabi\\include\\
 250              		.file 4 "Middlewares/Third_Party/FreeRTOS/Source/CMSIS_RTOS_V2/cmsis_os2.h"
 251              		.file 5 "Middlewares/ST/STM32_USB_Host_Library/Core/Inc/usbh_def.h"
 252              		.file 6 "Middlewares/ST/STM32_USB_Host_Library/Core/Inc/usbh_core.h"
ARM GAS  C:\Users\ashto\AppData\Local\Temp\ccrP71Sh.s 			page 9

