ARM GAS  C:\Users\ashto\AppData\Local\Temp\ccycEUVe.s 			page 1


   1              		.cpu cortex-m4
   2              		.arch armv7e-m
   3              		.fpu fpv4-sp-d16
   4              		.eabi_attribute 27, 1
   5              		.eabi_attribute 28, 1
   6              		.eabi_attribute 20, 1
   7              		.eabi_attribute 21, 1
   8              		.eabi_attribute 23, 3
   9              		.eabi_attribute 24, 1
  10              		.eabi_attribute 25, 1
  11              		.eabi_attribute 26, 1
  12              		.eabi_attribute 30, 1
  13              		.eabi_attribute 34, 1
  14              		.eabi_attribute 18, 4
  15              		.file	"usbh_conf.c"
  16              		.text
  17              	.Ltext0:
  18              		.cfi_sections	.debug_frame
  19              		.section	.text.HAL_HCD_MspInit,"ax",%progbits
  20              		.align	1
  21              		.global	HAL_HCD_MspInit
  22              		.syntax unified
  23              		.thumb
  24              		.thumb_func
  26              	HAL_HCD_MspInit:
  27              	.LVL0:
  28              	.LFB141:
  29              		.file 1 "USB_HOST/Target/usbh_conf.c"
   1:USB_HOST/Target/usbh_conf.c **** /* USER CODE BEGIN Header */
   2:USB_HOST/Target/usbh_conf.c **** /**
   3:USB_HOST/Target/usbh_conf.c ****   ******************************************************************************
   4:USB_HOST/Target/usbh_conf.c ****   * @file           : Target/usbh_conf.c
   5:USB_HOST/Target/usbh_conf.c ****   * @version        : v1.0_Cube
   6:USB_HOST/Target/usbh_conf.c ****   * @brief          : This file implements the board support package for the USB host library
   7:USB_HOST/Target/usbh_conf.c ****   ******************************************************************************
   8:USB_HOST/Target/usbh_conf.c ****   * @attention
   9:USB_HOST/Target/usbh_conf.c ****   *
  10:USB_HOST/Target/usbh_conf.c ****   * Copyright (c) 2024 STMicroelectronics.
  11:USB_HOST/Target/usbh_conf.c ****   * All rights reserved.
  12:USB_HOST/Target/usbh_conf.c ****   *
  13:USB_HOST/Target/usbh_conf.c ****   * This software is licensed under terms that can be found in the LICENSE file
  14:USB_HOST/Target/usbh_conf.c ****   * in the root directory of this software component.
  15:USB_HOST/Target/usbh_conf.c ****   * If no LICENSE file comes with this software, it is provided AS-IS.
  16:USB_HOST/Target/usbh_conf.c ****   *
  17:USB_HOST/Target/usbh_conf.c ****   ******************************************************************************
  18:USB_HOST/Target/usbh_conf.c ****   */
  19:USB_HOST/Target/usbh_conf.c **** /* USER CODE END Header */
  20:USB_HOST/Target/usbh_conf.c **** 
  21:USB_HOST/Target/usbh_conf.c **** /* Includes ------------------------------------------------------------------*/
  22:USB_HOST/Target/usbh_conf.c **** #include "usbh_core.h"
  23:USB_HOST/Target/usbh_conf.c **** #include "usbh_platform.h"
  24:USB_HOST/Target/usbh_conf.c **** 
  25:USB_HOST/Target/usbh_conf.c **** /* USER CODE BEGIN Includes */
  26:USB_HOST/Target/usbh_conf.c **** 
  27:USB_HOST/Target/usbh_conf.c **** /* USER CODE END Includes */
  28:USB_HOST/Target/usbh_conf.c **** 
  29:USB_HOST/Target/usbh_conf.c **** /* Private typedef -----------------------------------------------------------*/
ARM GAS  C:\Users\ashto\AppData\Local\Temp\ccycEUVe.s 			page 2


  30:USB_HOST/Target/usbh_conf.c **** /* Private define ------------------------------------------------------------*/
  31:USB_HOST/Target/usbh_conf.c **** /* Private macro -------------------------------------------------------------*/
  32:USB_HOST/Target/usbh_conf.c **** 
  33:USB_HOST/Target/usbh_conf.c **** /* USER CODE BEGIN PV */
  34:USB_HOST/Target/usbh_conf.c **** /* Private variables ---------------------------------------------------------*/
  35:USB_HOST/Target/usbh_conf.c **** 
  36:USB_HOST/Target/usbh_conf.c **** /* USER CODE END PV */
  37:USB_HOST/Target/usbh_conf.c **** 
  38:USB_HOST/Target/usbh_conf.c **** HCD_HandleTypeDef hhcd_USB_OTG_FS;
  39:USB_HOST/Target/usbh_conf.c **** void Error_Handler(void);
  40:USB_HOST/Target/usbh_conf.c **** 
  41:USB_HOST/Target/usbh_conf.c **** /* USER CODE BEGIN 0 */
  42:USB_HOST/Target/usbh_conf.c **** 
  43:USB_HOST/Target/usbh_conf.c **** /* USER CODE END 0 */
  44:USB_HOST/Target/usbh_conf.c **** 
  45:USB_HOST/Target/usbh_conf.c **** /* USER CODE BEGIN PFP */
  46:USB_HOST/Target/usbh_conf.c **** /* Private function prototypes -----------------------------------------------*/
  47:USB_HOST/Target/usbh_conf.c **** USBH_StatusTypeDef USBH_Get_USB_Status(HAL_StatusTypeDef hal_status);
  48:USB_HOST/Target/usbh_conf.c **** 
  49:USB_HOST/Target/usbh_conf.c **** /* USER CODE END PFP */
  50:USB_HOST/Target/usbh_conf.c **** 
  51:USB_HOST/Target/usbh_conf.c **** /* Private functions ---------------------------------------------------------*/
  52:USB_HOST/Target/usbh_conf.c **** 
  53:USB_HOST/Target/usbh_conf.c **** /* USER CODE BEGIN 1 */
  54:USB_HOST/Target/usbh_conf.c **** 
  55:USB_HOST/Target/usbh_conf.c **** /* USER CODE END 1 */
  56:USB_HOST/Target/usbh_conf.c **** 
  57:USB_HOST/Target/usbh_conf.c **** /*******************************************************************************
  58:USB_HOST/Target/usbh_conf.c ****                        LL Driver Callbacks (HCD -> USB Host Library)
  59:USB_HOST/Target/usbh_conf.c **** *******************************************************************************/
  60:USB_HOST/Target/usbh_conf.c **** /* MSP Init */
  61:USB_HOST/Target/usbh_conf.c **** 
  62:USB_HOST/Target/usbh_conf.c **** void HAL_HCD_MspInit(HCD_HandleTypeDef* hcdHandle)
  63:USB_HOST/Target/usbh_conf.c **** {
  30              		.loc 1 63 1 view -0
  31              		.cfi_startproc
  32              		@ args = 0, pretend = 0, frame = 32
  33              		@ frame_needed = 0, uses_anonymous_args = 0
  34              		.loc 1 63 1 is_stmt 0 view .LVU1
  35 0000 70B5     		push	{r4, r5, r6, lr}
  36              	.LCFI0:
  37              		.cfi_def_cfa_offset 16
  38              		.cfi_offset 4, -16
  39              		.cfi_offset 5, -12
  40              		.cfi_offset 6, -8
  41              		.cfi_offset 14, -4
  42 0002 88B0     		sub	sp, sp, #32
  43              	.LCFI1:
  44              		.cfi_def_cfa_offset 48
  64:USB_HOST/Target/usbh_conf.c ****   GPIO_InitTypeDef GPIO_InitStruct = {0};
  45              		.loc 1 64 3 is_stmt 1 view .LVU2
  46              		.loc 1 64 20 is_stmt 0 view .LVU3
  47 0004 0023     		movs	r3, #0
  48 0006 0393     		str	r3, [sp, #12]
  49 0008 0493     		str	r3, [sp, #16]
  50 000a 0593     		str	r3, [sp, #20]
  51 000c 0693     		str	r3, [sp, #24]
ARM GAS  C:\Users\ashto\AppData\Local\Temp\ccycEUVe.s 			page 3


  52 000e 0793     		str	r3, [sp, #28]
  65:USB_HOST/Target/usbh_conf.c ****   if(hcdHandle->Instance==USB_OTG_FS)
  53              		.loc 1 65 3 is_stmt 1 view .LVU4
  54              		.loc 1 65 15 is_stmt 0 view .LVU5
  55 0010 0368     		ldr	r3, [r0]
  56              		.loc 1 65 5 view .LVU6
  57 0012 B3F1A04F 		cmp	r3, #1342177280
  58 0016 01D0     		beq	.L4
  59              	.LVL1:
  60              	.L1:
  66:USB_HOST/Target/usbh_conf.c ****   {
  67:USB_HOST/Target/usbh_conf.c ****   /* USER CODE BEGIN USB_OTG_FS_MspInit 0 */
  68:USB_HOST/Target/usbh_conf.c **** 
  69:USB_HOST/Target/usbh_conf.c ****   /* USER CODE END USB_OTG_FS_MspInit 0 */
  70:USB_HOST/Target/usbh_conf.c **** 
  71:USB_HOST/Target/usbh_conf.c ****     __HAL_RCC_GPIOA_CLK_ENABLE();
  72:USB_HOST/Target/usbh_conf.c ****     /**USB_OTG_FS GPIO Configuration
  73:USB_HOST/Target/usbh_conf.c ****     PA9     ------> USB_OTG_FS_VBUS
  74:USB_HOST/Target/usbh_conf.c ****     PA10     ------> USB_OTG_FS_ID
  75:USB_HOST/Target/usbh_conf.c ****     PA11     ------> USB_OTG_FS_DM
  76:USB_HOST/Target/usbh_conf.c ****     PA12     ------> USB_OTG_FS_DP
  77:USB_HOST/Target/usbh_conf.c ****     */
  78:USB_HOST/Target/usbh_conf.c ****     GPIO_InitStruct.Pin = VBUS_FS_Pin;
  79:USB_HOST/Target/usbh_conf.c ****     GPIO_InitStruct.Mode = GPIO_MODE_INPUT;
  80:USB_HOST/Target/usbh_conf.c ****     GPIO_InitStruct.Pull = GPIO_NOPULL;
  81:USB_HOST/Target/usbh_conf.c ****     HAL_GPIO_Init(VBUS_FS_GPIO_Port, &GPIO_InitStruct);
  82:USB_HOST/Target/usbh_conf.c **** 
  83:USB_HOST/Target/usbh_conf.c ****     GPIO_InitStruct.Pin = OTG_FS_ID_Pin|OTG_FS_DM_Pin|OTG_FS_DP_Pin;
  84:USB_HOST/Target/usbh_conf.c ****     GPIO_InitStruct.Mode = GPIO_MODE_AF_PP;
  85:USB_HOST/Target/usbh_conf.c ****     GPIO_InitStruct.Pull = GPIO_NOPULL;
  86:USB_HOST/Target/usbh_conf.c ****     GPIO_InitStruct.Speed = GPIO_SPEED_FREQ_LOW;
  87:USB_HOST/Target/usbh_conf.c ****     GPIO_InitStruct.Alternate = GPIO_AF10_OTG_FS;
  88:USB_HOST/Target/usbh_conf.c ****     HAL_GPIO_Init(GPIOA, &GPIO_InitStruct);
  89:USB_HOST/Target/usbh_conf.c **** 
  90:USB_HOST/Target/usbh_conf.c ****     /* Peripheral clock enable */
  91:USB_HOST/Target/usbh_conf.c ****     __HAL_RCC_USB_OTG_FS_CLK_ENABLE();
  92:USB_HOST/Target/usbh_conf.c **** 
  93:USB_HOST/Target/usbh_conf.c ****     /* Peripheral interrupt init */
  94:USB_HOST/Target/usbh_conf.c ****     HAL_NVIC_SetPriority(OTG_FS_IRQn, 5, 0);
  95:USB_HOST/Target/usbh_conf.c ****     HAL_NVIC_EnableIRQ(OTG_FS_IRQn);
  96:USB_HOST/Target/usbh_conf.c ****   /* USER CODE BEGIN USB_OTG_FS_MspInit 1 */
  97:USB_HOST/Target/usbh_conf.c **** 
  98:USB_HOST/Target/usbh_conf.c ****   /* USER CODE END USB_OTG_FS_MspInit 1 */
  99:USB_HOST/Target/usbh_conf.c ****   }
 100:USB_HOST/Target/usbh_conf.c **** }
  61              		.loc 1 100 1 view .LVU7
  62 0018 08B0     		add	sp, sp, #32
  63              	.LCFI2:
  64              		.cfi_remember_state
  65              		.cfi_def_cfa_offset 16
  66              		@ sp needed
  67 001a 70BD     		pop	{r4, r5, r6, pc}
  68              	.LVL2:
  69              	.L4:
  70              	.LCFI3:
  71              		.cfi_restore_state
  71:USB_HOST/Target/usbh_conf.c ****     /**USB_OTG_FS GPIO Configuration
ARM GAS  C:\Users\ashto\AppData\Local\Temp\ccycEUVe.s 			page 4


  72              		.loc 1 71 5 is_stmt 1 view .LVU8
  73              	.LBB2:
  71:USB_HOST/Target/usbh_conf.c ****     /**USB_OTG_FS GPIO Configuration
  74              		.loc 1 71 5 view .LVU9
  75 001c 0025     		movs	r5, #0
  76 001e 0195     		str	r5, [sp, #4]
  71:USB_HOST/Target/usbh_conf.c ****     /**USB_OTG_FS GPIO Configuration
  77              		.loc 1 71 5 view .LVU10
  78 0020 1A4C     		ldr	r4, .L5
  79 0022 236B     		ldr	r3, [r4, #48]
  80 0024 43F00103 		orr	r3, r3, #1
  81 0028 2363     		str	r3, [r4, #48]
  71:USB_HOST/Target/usbh_conf.c ****     /**USB_OTG_FS GPIO Configuration
  82              		.loc 1 71 5 view .LVU11
  83 002a 236B     		ldr	r3, [r4, #48]
  84 002c 03F00103 		and	r3, r3, #1
  85 0030 0193     		str	r3, [sp, #4]
  71:USB_HOST/Target/usbh_conf.c ****     /**USB_OTG_FS GPIO Configuration
  86              		.loc 1 71 5 view .LVU12
  87 0032 019B     		ldr	r3, [sp, #4]
  88              	.LBE2:
  71:USB_HOST/Target/usbh_conf.c ****     /**USB_OTG_FS GPIO Configuration
  89              		.loc 1 71 5 view .LVU13
  78:USB_HOST/Target/usbh_conf.c ****     GPIO_InitStruct.Mode = GPIO_MODE_INPUT;
  90              		.loc 1 78 5 view .LVU14
  78:USB_HOST/Target/usbh_conf.c ****     GPIO_InitStruct.Mode = GPIO_MODE_INPUT;
  91              		.loc 1 78 25 is_stmt 0 view .LVU15
  92 0034 4FF40073 		mov	r3, #512
  93 0038 0393     		str	r3, [sp, #12]
  79:USB_HOST/Target/usbh_conf.c ****     GPIO_InitStruct.Pull = GPIO_NOPULL;
  94              		.loc 1 79 5 is_stmt 1 view .LVU16
  80:USB_HOST/Target/usbh_conf.c ****     HAL_GPIO_Init(VBUS_FS_GPIO_Port, &GPIO_InitStruct);
  95              		.loc 1 80 5 view .LVU17
  81:USB_HOST/Target/usbh_conf.c **** 
  96              		.loc 1 81 5 view .LVU18
  97 003a 154E     		ldr	r6, .L5+4
  98 003c 03A9     		add	r1, sp, #12
  99 003e 3046     		mov	r0, r6
 100              	.LVL3:
  81:USB_HOST/Target/usbh_conf.c **** 
 101              		.loc 1 81 5 is_stmt 0 view .LVU19
 102 0040 FFF7FEFF 		bl	HAL_GPIO_Init
 103              	.LVL4:
  83:USB_HOST/Target/usbh_conf.c ****     GPIO_InitStruct.Mode = GPIO_MODE_AF_PP;
 104              		.loc 1 83 5 is_stmt 1 view .LVU20
  83:USB_HOST/Target/usbh_conf.c ****     GPIO_InitStruct.Mode = GPIO_MODE_AF_PP;
 105              		.loc 1 83 25 is_stmt 0 view .LVU21
 106 0044 4FF4E053 		mov	r3, #7168
 107 0048 0393     		str	r3, [sp, #12]
  84:USB_HOST/Target/usbh_conf.c ****     GPIO_InitStruct.Pull = GPIO_NOPULL;
 108              		.loc 1 84 5 is_stmt 1 view .LVU22
  84:USB_HOST/Target/usbh_conf.c ****     GPIO_InitStruct.Pull = GPIO_NOPULL;
 109              		.loc 1 84 26 is_stmt 0 view .LVU23
 110 004a 0223     		movs	r3, #2
 111 004c 0493     		str	r3, [sp, #16]
  85:USB_HOST/Target/usbh_conf.c ****     GPIO_InitStruct.Speed = GPIO_SPEED_FREQ_LOW;
 112              		.loc 1 85 5 is_stmt 1 view .LVU24
ARM GAS  C:\Users\ashto\AppData\Local\Temp\ccycEUVe.s 			page 5


  85:USB_HOST/Target/usbh_conf.c ****     GPIO_InitStruct.Speed = GPIO_SPEED_FREQ_LOW;
 113              		.loc 1 85 26 is_stmt 0 view .LVU25
 114 004e 0595     		str	r5, [sp, #20]
  86:USB_HOST/Target/usbh_conf.c ****     GPIO_InitStruct.Alternate = GPIO_AF10_OTG_FS;
 115              		.loc 1 86 5 is_stmt 1 view .LVU26
  86:USB_HOST/Target/usbh_conf.c ****     GPIO_InitStruct.Alternate = GPIO_AF10_OTG_FS;
 116              		.loc 1 86 27 is_stmt 0 view .LVU27
 117 0050 0695     		str	r5, [sp, #24]
  87:USB_HOST/Target/usbh_conf.c ****     HAL_GPIO_Init(GPIOA, &GPIO_InitStruct);
 118              		.loc 1 87 5 is_stmt 1 view .LVU28
  87:USB_HOST/Target/usbh_conf.c ****     HAL_GPIO_Init(GPIOA, &GPIO_InitStruct);
 119              		.loc 1 87 31 is_stmt 0 view .LVU29
 120 0052 0A23     		movs	r3, #10
 121 0054 0793     		str	r3, [sp, #28]
  88:USB_HOST/Target/usbh_conf.c **** 
 122              		.loc 1 88 5 is_stmt 1 view .LVU30
 123 0056 03A9     		add	r1, sp, #12
 124 0058 3046     		mov	r0, r6
 125 005a FFF7FEFF 		bl	HAL_GPIO_Init
 126              	.LVL5:
  91:USB_HOST/Target/usbh_conf.c **** 
 127              		.loc 1 91 5 view .LVU31
  91:USB_HOST/Target/usbh_conf.c **** 
 128              		.loc 1 91 5 view .LVU32
 129 005e 636B     		ldr	r3, [r4, #52]
 130 0060 43F08003 		orr	r3, r3, #128
 131 0064 6363     		str	r3, [r4, #52]
  91:USB_HOST/Target/usbh_conf.c **** 
 132              		.loc 1 91 5 view .LVU33
 133              	.LBB3:
  91:USB_HOST/Target/usbh_conf.c **** 
 134              		.loc 1 91 5 view .LVU34
 135 0066 0295     		str	r5, [sp, #8]
  91:USB_HOST/Target/usbh_conf.c **** 
 136              		.loc 1 91 5 view .LVU35
 137 0068 636C     		ldr	r3, [r4, #68]
 138 006a 43F48043 		orr	r3, r3, #16384
 139 006e 6364     		str	r3, [r4, #68]
  91:USB_HOST/Target/usbh_conf.c **** 
 140              		.loc 1 91 5 view .LVU36
 141 0070 636C     		ldr	r3, [r4, #68]
 142 0072 03F48043 		and	r3, r3, #16384
 143 0076 0293     		str	r3, [sp, #8]
  91:USB_HOST/Target/usbh_conf.c **** 
 144              		.loc 1 91 5 view .LVU37
 145 0078 029B     		ldr	r3, [sp, #8]
 146              	.LBE3:
  91:USB_HOST/Target/usbh_conf.c **** 
 147              		.loc 1 91 5 view .LVU38
  91:USB_HOST/Target/usbh_conf.c **** 
 148              		.loc 1 91 5 view .LVU39
  94:USB_HOST/Target/usbh_conf.c ****     HAL_NVIC_EnableIRQ(OTG_FS_IRQn);
 149              		.loc 1 94 5 view .LVU40
 150 007a 2A46     		mov	r2, r5
 151 007c 0521     		movs	r1, #5
 152 007e 4320     		movs	r0, #67
 153 0080 FFF7FEFF 		bl	HAL_NVIC_SetPriority
ARM GAS  C:\Users\ashto\AppData\Local\Temp\ccycEUVe.s 			page 6


 154              	.LVL6:
  95:USB_HOST/Target/usbh_conf.c ****   /* USER CODE BEGIN USB_OTG_FS_MspInit 1 */
 155              		.loc 1 95 5 view .LVU41
 156 0084 4320     		movs	r0, #67
 157 0086 FFF7FEFF 		bl	HAL_NVIC_EnableIRQ
 158              	.LVL7:
 159              		.loc 1 100 1 is_stmt 0 view .LVU42
 160 008a C5E7     		b	.L1
 161              	.L6:
 162              		.align	2
 163              	.L5:
 164 008c 00380240 		.word	1073887232
 165 0090 00000240 		.word	1073872896
 166              		.cfi_endproc
 167              	.LFE141:
 169              		.section	.text.HAL_HCD_MspDeInit,"ax",%progbits
 170              		.align	1
 171              		.global	HAL_HCD_MspDeInit
 172              		.syntax unified
 173              		.thumb
 174              		.thumb_func
 176              	HAL_HCD_MspDeInit:
 177              	.LVL8:
 178              	.LFB142:
 101:USB_HOST/Target/usbh_conf.c **** 
 102:USB_HOST/Target/usbh_conf.c **** void HAL_HCD_MspDeInit(HCD_HandleTypeDef* hcdHandle)
 103:USB_HOST/Target/usbh_conf.c **** {
 179              		.loc 1 103 1 is_stmt 1 view -0
 180              		.cfi_startproc
 181              		@ args = 0, pretend = 0, frame = 0
 182              		@ frame_needed = 0, uses_anonymous_args = 0
 183              		.loc 1 103 1 is_stmt 0 view .LVU44
 184 0000 08B5     		push	{r3, lr}
 185              	.LCFI4:
 186              		.cfi_def_cfa_offset 8
 187              		.cfi_offset 3, -8
 188              		.cfi_offset 14, -4
 104:USB_HOST/Target/usbh_conf.c ****   if(hcdHandle->Instance==USB_OTG_FS)
 189              		.loc 1 104 3 is_stmt 1 view .LVU45
 190              		.loc 1 104 15 is_stmt 0 view .LVU46
 191 0002 0368     		ldr	r3, [r0]
 192              		.loc 1 104 5 view .LVU47
 193 0004 B3F1A04F 		cmp	r3, #1342177280
 194 0008 00D0     		beq	.L10
 195              	.LVL9:
 196              	.L7:
 105:USB_HOST/Target/usbh_conf.c ****   {
 106:USB_HOST/Target/usbh_conf.c ****   /* USER CODE BEGIN USB_OTG_FS_MspDeInit 0 */
 107:USB_HOST/Target/usbh_conf.c **** 
 108:USB_HOST/Target/usbh_conf.c ****   /* USER CODE END USB_OTG_FS_MspDeInit 0 */
 109:USB_HOST/Target/usbh_conf.c ****     /* Peripheral clock disable */
 110:USB_HOST/Target/usbh_conf.c ****     __HAL_RCC_USB_OTG_FS_CLK_DISABLE();
 111:USB_HOST/Target/usbh_conf.c **** 
 112:USB_HOST/Target/usbh_conf.c ****     /**USB_OTG_FS GPIO Configuration
 113:USB_HOST/Target/usbh_conf.c ****     PA9     ------> USB_OTG_FS_VBUS
 114:USB_HOST/Target/usbh_conf.c ****     PA10     ------> USB_OTG_FS_ID
 115:USB_HOST/Target/usbh_conf.c ****     PA11     ------> USB_OTG_FS_DM
ARM GAS  C:\Users\ashto\AppData\Local\Temp\ccycEUVe.s 			page 7


 116:USB_HOST/Target/usbh_conf.c ****     PA12     ------> USB_OTG_FS_DP
 117:USB_HOST/Target/usbh_conf.c ****     */
 118:USB_HOST/Target/usbh_conf.c ****     HAL_GPIO_DeInit(GPIOA, VBUS_FS_Pin|OTG_FS_ID_Pin|OTG_FS_DM_Pin|OTG_FS_DP_Pin);
 119:USB_HOST/Target/usbh_conf.c **** 
 120:USB_HOST/Target/usbh_conf.c ****     /* Peripheral interrupt Deinit*/
 121:USB_HOST/Target/usbh_conf.c ****     HAL_NVIC_DisableIRQ(OTG_FS_IRQn);
 122:USB_HOST/Target/usbh_conf.c **** 
 123:USB_HOST/Target/usbh_conf.c ****   /* USER CODE BEGIN USB_OTG_FS_MspDeInit 1 */
 124:USB_HOST/Target/usbh_conf.c **** 
 125:USB_HOST/Target/usbh_conf.c ****   /* USER CODE END USB_OTG_FS_MspDeInit 1 */
 126:USB_HOST/Target/usbh_conf.c ****   }
 127:USB_HOST/Target/usbh_conf.c **** }
 197              		.loc 1 127 1 view .LVU48
 198 000a 08BD     		pop	{r3, pc}
 199              	.LVL10:
 200              	.L10:
 110:USB_HOST/Target/usbh_conf.c **** 
 201              		.loc 1 110 5 is_stmt 1 view .LVU49
 202 000c 064A     		ldr	r2, .L11
 203 000e 536B     		ldr	r3, [r2, #52]
 204 0010 23F08003 		bic	r3, r3, #128
 205 0014 5363     		str	r3, [r2, #52]
 118:USB_HOST/Target/usbh_conf.c **** 
 206              		.loc 1 118 5 view .LVU50
 207 0016 4FF4F051 		mov	r1, #7680
 208 001a 0448     		ldr	r0, .L11+4
 209              	.LVL11:
 118:USB_HOST/Target/usbh_conf.c **** 
 210              		.loc 1 118 5 is_stmt 0 view .LVU51
 211 001c FFF7FEFF 		bl	HAL_GPIO_DeInit
 212              	.LVL12:
 121:USB_HOST/Target/usbh_conf.c **** 
 213              		.loc 1 121 5 is_stmt 1 view .LVU52
 214 0020 4320     		movs	r0, #67
 215 0022 FFF7FEFF 		bl	HAL_NVIC_DisableIRQ
 216              	.LVL13:
 217              		.loc 1 127 1 is_stmt 0 view .LVU53
 218 0026 F0E7     		b	.L7
 219              	.L12:
 220              		.align	2
 221              	.L11:
 222 0028 00380240 		.word	1073887232
 223 002c 00000240 		.word	1073872896
 224              		.cfi_endproc
 225              	.LFE142:
 227              		.section	.text.HAL_HCD_SOF_Callback,"ax",%progbits
 228              		.align	1
 229              		.global	HAL_HCD_SOF_Callback
 230              		.syntax unified
 231              		.thumb
 232              		.thumb_func
 234              	HAL_HCD_SOF_Callback:
 235              	.LVL14:
 236              	.LFB143:
 128:USB_HOST/Target/usbh_conf.c **** 
 129:USB_HOST/Target/usbh_conf.c **** /**
 130:USB_HOST/Target/usbh_conf.c ****   * @brief  SOF callback.
ARM GAS  C:\Users\ashto\AppData\Local\Temp\ccycEUVe.s 			page 8


 131:USB_HOST/Target/usbh_conf.c ****   * @param  hhcd: HCD handle
 132:USB_HOST/Target/usbh_conf.c ****   * @retval None
 133:USB_HOST/Target/usbh_conf.c ****   */
 134:USB_HOST/Target/usbh_conf.c **** void HAL_HCD_SOF_Callback(HCD_HandleTypeDef *hhcd)
 135:USB_HOST/Target/usbh_conf.c **** {
 237              		.loc 1 135 1 is_stmt 1 view -0
 238              		.cfi_startproc
 239              		@ args = 0, pretend = 0, frame = 0
 240              		@ frame_needed = 0, uses_anonymous_args = 0
 241              		.loc 1 135 1 is_stmt 0 view .LVU55
 242 0000 08B5     		push	{r3, lr}
 243              	.LCFI5:
 244              		.cfi_def_cfa_offset 8
 245              		.cfi_offset 3, -8
 246              		.cfi_offset 14, -4
 136:USB_HOST/Target/usbh_conf.c ****   USBH_LL_IncTimer(hhcd->pData);
 247              		.loc 1 136 3 is_stmt 1 view .LVU56
 248 0002 D0F8DC03 		ldr	r0, [r0, #988]
 249              	.LVL15:
 250              		.loc 1 136 3 is_stmt 0 view .LVU57
 251 0006 FFF7FEFF 		bl	USBH_LL_IncTimer
 252              	.LVL16:
 137:USB_HOST/Target/usbh_conf.c **** }
 253              		.loc 1 137 1 view .LVU58
 254 000a 08BD     		pop	{r3, pc}
 255              		.cfi_endproc
 256              	.LFE143:
 258              		.section	.text.HAL_HCD_Connect_Callback,"ax",%progbits
 259              		.align	1
 260              		.global	HAL_HCD_Connect_Callback
 261              		.syntax unified
 262              		.thumb
 263              		.thumb_func
 265              	HAL_HCD_Connect_Callback:
 266              	.LVL17:
 267              	.LFB144:
 138:USB_HOST/Target/usbh_conf.c **** 
 139:USB_HOST/Target/usbh_conf.c **** /**
 140:USB_HOST/Target/usbh_conf.c ****   * @brief  SOF callback.
 141:USB_HOST/Target/usbh_conf.c ****   * @param  hhcd: HCD handle
 142:USB_HOST/Target/usbh_conf.c ****   * @retval None
 143:USB_HOST/Target/usbh_conf.c ****   */
 144:USB_HOST/Target/usbh_conf.c **** void HAL_HCD_Connect_Callback(HCD_HandleTypeDef *hhcd)
 145:USB_HOST/Target/usbh_conf.c **** {
 268              		.loc 1 145 1 is_stmt 1 view -0
 269              		.cfi_startproc
 270              		@ args = 0, pretend = 0, frame = 0
 271              		@ frame_needed = 0, uses_anonymous_args = 0
 272              		.loc 1 145 1 is_stmt 0 view .LVU60
 273 0000 08B5     		push	{r3, lr}
 274              	.LCFI6:
 275              		.cfi_def_cfa_offset 8
 276              		.cfi_offset 3, -8
 277              		.cfi_offset 14, -4
 146:USB_HOST/Target/usbh_conf.c ****   USBH_LL_Connect(hhcd->pData);
 278              		.loc 1 146 3 is_stmt 1 view .LVU61
 279 0002 D0F8DC03 		ldr	r0, [r0, #988]
ARM GAS  C:\Users\ashto\AppData\Local\Temp\ccycEUVe.s 			page 9


 280              	.LVL18:
 281              		.loc 1 146 3 is_stmt 0 view .LVU62
 282 0006 FFF7FEFF 		bl	USBH_LL_Connect
 283              	.LVL19:
 147:USB_HOST/Target/usbh_conf.c **** }
 284              		.loc 1 147 1 view .LVU63
 285 000a 08BD     		pop	{r3, pc}
 286              		.cfi_endproc
 287              	.LFE144:
 289              		.section	.text.HAL_HCD_Disconnect_Callback,"ax",%progbits
 290              		.align	1
 291              		.global	HAL_HCD_Disconnect_Callback
 292              		.syntax unified
 293              		.thumb
 294              		.thumb_func
 296              	HAL_HCD_Disconnect_Callback:
 297              	.LVL20:
 298              	.LFB145:
 148:USB_HOST/Target/usbh_conf.c **** 
 149:USB_HOST/Target/usbh_conf.c **** /**
 150:USB_HOST/Target/usbh_conf.c ****   * @brief  SOF callback.
 151:USB_HOST/Target/usbh_conf.c ****   * @param  hhcd: HCD handle
 152:USB_HOST/Target/usbh_conf.c ****   * @retval None
 153:USB_HOST/Target/usbh_conf.c ****   */
 154:USB_HOST/Target/usbh_conf.c **** void HAL_HCD_Disconnect_Callback(HCD_HandleTypeDef *hhcd)
 155:USB_HOST/Target/usbh_conf.c **** {
 299              		.loc 1 155 1 is_stmt 1 view -0
 300              		.cfi_startproc
 301              		@ args = 0, pretend = 0, frame = 0
 302              		@ frame_needed = 0, uses_anonymous_args = 0
 303              		.loc 1 155 1 is_stmt 0 view .LVU65
 304 0000 08B5     		push	{r3, lr}
 305              	.LCFI7:
 306              		.cfi_def_cfa_offset 8
 307              		.cfi_offset 3, -8
 308              		.cfi_offset 14, -4
 156:USB_HOST/Target/usbh_conf.c ****   USBH_LL_Disconnect(hhcd->pData);
 309              		.loc 1 156 3 is_stmt 1 view .LVU66
 310 0002 D0F8DC03 		ldr	r0, [r0, #988]
 311              	.LVL21:
 312              		.loc 1 156 3 is_stmt 0 view .LVU67
 313 0006 FFF7FEFF 		bl	USBH_LL_Disconnect
 314              	.LVL22:
 157:USB_HOST/Target/usbh_conf.c **** }
 315              		.loc 1 157 1 view .LVU68
 316 000a 08BD     		pop	{r3, pc}
 317              		.cfi_endproc
 318              	.LFE145:
 320              		.section	.text.HAL_HCD_HC_NotifyURBChange_Callback,"ax",%progbits
 321              		.align	1
 322              		.global	HAL_HCD_HC_NotifyURBChange_Callback
 323              		.syntax unified
 324              		.thumb
 325              		.thumb_func
 327              	HAL_HCD_HC_NotifyURBChange_Callback:
 328              	.LVL23:
 329              	.LFB146:
ARM GAS  C:\Users\ashto\AppData\Local\Temp\ccycEUVe.s 			page 10


 158:USB_HOST/Target/usbh_conf.c **** 
 159:USB_HOST/Target/usbh_conf.c **** /**
 160:USB_HOST/Target/usbh_conf.c ****   * @brief  Notify URB state change callback.
 161:USB_HOST/Target/usbh_conf.c ****   * @param  hhcd: HCD handle
 162:USB_HOST/Target/usbh_conf.c ****   * @param  chnum: channel number
 163:USB_HOST/Target/usbh_conf.c ****   * @param  urb_state: state
 164:USB_HOST/Target/usbh_conf.c ****   * @retval None
 165:USB_HOST/Target/usbh_conf.c ****   */
 166:USB_HOST/Target/usbh_conf.c **** void HAL_HCD_HC_NotifyURBChange_Callback(HCD_HandleTypeDef *hhcd, uint8_t chnum, HCD_URBStateTypeDe
 167:USB_HOST/Target/usbh_conf.c **** {
 330              		.loc 1 167 1 is_stmt 1 view -0
 331              		.cfi_startproc
 332              		@ args = 0, pretend = 0, frame = 0
 333              		@ frame_needed = 0, uses_anonymous_args = 0
 334              		.loc 1 167 1 is_stmt 0 view .LVU70
 335 0000 08B5     		push	{r3, lr}
 336              	.LCFI8:
 337              		.cfi_def_cfa_offset 8
 338              		.cfi_offset 3, -8
 339              		.cfi_offset 14, -4
 168:USB_HOST/Target/usbh_conf.c ****   /* To be used with OS to sync URB state with the global state machine */
 169:USB_HOST/Target/usbh_conf.c **** #if (USBH_USE_OS == 1)
 170:USB_HOST/Target/usbh_conf.c ****   USBH_LL_NotifyURBChange(hhcd->pData);
 340              		.loc 1 170 3 is_stmt 1 view .LVU71
 341 0002 D0F8DC03 		ldr	r0, [r0, #988]
 342              	.LVL24:
 343              		.loc 1 170 3 is_stmt 0 view .LVU72
 344 0006 FFF7FEFF 		bl	USBH_LL_NotifyURBChange
 345              	.LVL25:
 171:USB_HOST/Target/usbh_conf.c **** #endif
 172:USB_HOST/Target/usbh_conf.c **** }
 346              		.loc 1 172 1 view .LVU73
 347 000a 08BD     		pop	{r3, pc}
 348              		.cfi_endproc
 349              	.LFE146:
 351              		.section	.text.HAL_HCD_PortEnabled_Callback,"ax",%progbits
 352              		.align	1
 353              		.global	HAL_HCD_PortEnabled_Callback
 354              		.syntax unified
 355              		.thumb
 356              		.thumb_func
 358              	HAL_HCD_PortEnabled_Callback:
 359              	.LVL26:
 360              	.LFB147:
 173:USB_HOST/Target/usbh_conf.c **** /**
 174:USB_HOST/Target/usbh_conf.c **** * @brief  Port Port Enabled callback.
 175:USB_HOST/Target/usbh_conf.c ****   * @param  hhcd: HCD handle
 176:USB_HOST/Target/usbh_conf.c ****   * @retval None
 177:USB_HOST/Target/usbh_conf.c ****   */
 178:USB_HOST/Target/usbh_conf.c **** void HAL_HCD_PortEnabled_Callback(HCD_HandleTypeDef *hhcd)
 179:USB_HOST/Target/usbh_conf.c **** {
 361              		.loc 1 179 1 is_stmt 1 view -0
 362              		.cfi_startproc
 363              		@ args = 0, pretend = 0, frame = 0
 364              		@ frame_needed = 0, uses_anonymous_args = 0
 365              		.loc 1 179 1 is_stmt 0 view .LVU75
 366 0000 08B5     		push	{r3, lr}
ARM GAS  C:\Users\ashto\AppData\Local\Temp\ccycEUVe.s 			page 11


 367              	.LCFI9:
 368              		.cfi_def_cfa_offset 8
 369              		.cfi_offset 3, -8
 370              		.cfi_offset 14, -4
 180:USB_HOST/Target/usbh_conf.c ****   USBH_LL_PortEnabled(hhcd->pData);
 371              		.loc 1 180 3 is_stmt 1 view .LVU76
 372 0002 D0F8DC03 		ldr	r0, [r0, #988]
 373              	.LVL27:
 374              		.loc 1 180 3 is_stmt 0 view .LVU77
 375 0006 FFF7FEFF 		bl	USBH_LL_PortEnabled
 376              	.LVL28:
 181:USB_HOST/Target/usbh_conf.c **** }
 377              		.loc 1 181 1 view .LVU78
 378 000a 08BD     		pop	{r3, pc}
 379              		.cfi_endproc
 380              	.LFE147:
 382              		.section	.text.HAL_HCD_PortDisabled_Callback,"ax",%progbits
 383              		.align	1
 384              		.global	HAL_HCD_PortDisabled_Callback
 385              		.syntax unified
 386              		.thumb
 387              		.thumb_func
 389              	HAL_HCD_PortDisabled_Callback:
 390              	.LVL29:
 391              	.LFB148:
 182:USB_HOST/Target/usbh_conf.c **** 
 183:USB_HOST/Target/usbh_conf.c **** /**
 184:USB_HOST/Target/usbh_conf.c ****   * @brief  Port Port Disabled callback.
 185:USB_HOST/Target/usbh_conf.c ****   * @param  hhcd: HCD handle
 186:USB_HOST/Target/usbh_conf.c ****   * @retval None
 187:USB_HOST/Target/usbh_conf.c ****   */
 188:USB_HOST/Target/usbh_conf.c **** void HAL_HCD_PortDisabled_Callback(HCD_HandleTypeDef *hhcd)
 189:USB_HOST/Target/usbh_conf.c **** {
 392              		.loc 1 189 1 is_stmt 1 view -0
 393              		.cfi_startproc
 394              		@ args = 0, pretend = 0, frame = 0
 395              		@ frame_needed = 0, uses_anonymous_args = 0
 396              		.loc 1 189 1 is_stmt 0 view .LVU80
 397 0000 08B5     		push	{r3, lr}
 398              	.LCFI10:
 399              		.cfi_def_cfa_offset 8
 400              		.cfi_offset 3, -8
 401              		.cfi_offset 14, -4
 190:USB_HOST/Target/usbh_conf.c ****   USBH_LL_PortDisabled(hhcd->pData);
 402              		.loc 1 190 3 is_stmt 1 view .LVU81
 403 0002 D0F8DC03 		ldr	r0, [r0, #988]
 404              	.LVL30:
 405              		.loc 1 190 3 is_stmt 0 view .LVU82
 406 0006 FFF7FEFF 		bl	USBH_LL_PortDisabled
 407              	.LVL31:
 191:USB_HOST/Target/usbh_conf.c **** }
 408              		.loc 1 191 1 view .LVU83
 409 000a 08BD     		pop	{r3, pc}
 410              		.cfi_endproc
 411              	.LFE148:
 413              		.section	.text.USBH_LL_Init,"ax",%progbits
 414              		.align	1
ARM GAS  C:\Users\ashto\AppData\Local\Temp\ccycEUVe.s 			page 12


 415              		.global	USBH_LL_Init
 416              		.syntax unified
 417              		.thumb
 418              		.thumb_func
 420              	USBH_LL_Init:
 421              	.LVL32:
 422              	.LFB149:
 192:USB_HOST/Target/usbh_conf.c **** 
 193:USB_HOST/Target/usbh_conf.c **** /*******************************************************************************
 194:USB_HOST/Target/usbh_conf.c ****                        LL Driver Interface (USB Host Library --> HCD)
 195:USB_HOST/Target/usbh_conf.c **** *******************************************************************************/
 196:USB_HOST/Target/usbh_conf.c **** 
 197:USB_HOST/Target/usbh_conf.c **** /**
 198:USB_HOST/Target/usbh_conf.c ****   * @brief  Initialize the low level portion of the host driver.
 199:USB_HOST/Target/usbh_conf.c ****   * @param  phost: Host handle
 200:USB_HOST/Target/usbh_conf.c ****   * @retval USBH status
 201:USB_HOST/Target/usbh_conf.c ****   */
 202:USB_HOST/Target/usbh_conf.c **** USBH_StatusTypeDef USBH_LL_Init(USBH_HandleTypeDef *phost)
 203:USB_HOST/Target/usbh_conf.c **** {
 423              		.loc 1 203 1 is_stmt 1 view -0
 424              		.cfi_startproc
 425              		@ args = 0, pretend = 0, frame = 0
 426              		@ frame_needed = 0, uses_anonymous_args = 0
 204:USB_HOST/Target/usbh_conf.c ****   /* Init USB_IP */
 205:USB_HOST/Target/usbh_conf.c ****   if (phost->id == HOST_FS) {
 427              		.loc 1 205 3 view .LVU85
 428              		.loc 1 205 12 is_stmt 0 view .LVU86
 429 0000 90F8CC33 		ldrb	r3, [r0, #972]	@ zero_extendqisi2
 430              		.loc 1 205 6 view .LVU87
 431 0004 012B     		cmp	r3, #1
 432 0006 01D0     		beq	.L32
 206:USB_HOST/Target/usbh_conf.c ****   /* Link the driver to the stack. */
 207:USB_HOST/Target/usbh_conf.c ****   hhcd_USB_OTG_FS.pData = phost;
 208:USB_HOST/Target/usbh_conf.c ****   phost->pData = &hhcd_USB_OTG_FS;
 209:USB_HOST/Target/usbh_conf.c **** 
 210:USB_HOST/Target/usbh_conf.c ****   hhcd_USB_OTG_FS.Instance = USB_OTG_FS;
 211:USB_HOST/Target/usbh_conf.c ****   hhcd_USB_OTG_FS.Init.Host_channels = 8;
 212:USB_HOST/Target/usbh_conf.c ****   hhcd_USB_OTG_FS.Init.speed = HCD_SPEED_FULL;
 213:USB_HOST/Target/usbh_conf.c ****   hhcd_USB_OTG_FS.Init.dma_enable = DISABLE;
 214:USB_HOST/Target/usbh_conf.c ****   hhcd_USB_OTG_FS.Init.phy_itface = HCD_PHY_EMBEDDED;
 215:USB_HOST/Target/usbh_conf.c ****   hhcd_USB_OTG_FS.Init.Sof_enable = DISABLE;
 216:USB_HOST/Target/usbh_conf.c ****   if (HAL_HCD_Init(&hhcd_USB_OTG_FS) != HAL_OK)
 217:USB_HOST/Target/usbh_conf.c ****   {
 218:USB_HOST/Target/usbh_conf.c ****     Error_Handler( );
 219:USB_HOST/Target/usbh_conf.c ****   }
 220:USB_HOST/Target/usbh_conf.c **** 
 221:USB_HOST/Target/usbh_conf.c ****   USBH_LL_SetTimer(phost, HAL_HCD_GetCurrentFrame(&hhcd_USB_OTG_FS));
 222:USB_HOST/Target/usbh_conf.c ****   }
 223:USB_HOST/Target/usbh_conf.c ****   return USBH_OK;
 433              		.loc 1 223 3 is_stmt 1 view .LVU88
 224:USB_HOST/Target/usbh_conf.c **** }
 434              		.loc 1 224 1 is_stmt 0 view .LVU89
 435 0008 0020     		movs	r0, #0
 436              	.LVL33:
 437              		.loc 1 224 1 view .LVU90
 438 000a 7047     		bx	lr
 439              	.LVL34:
ARM GAS  C:\Users\ashto\AppData\Local\Temp\ccycEUVe.s 			page 13


 440              	.L32:
 203:USB_HOST/Target/usbh_conf.c ****   /* Init USB_IP */
 441              		.loc 1 203 1 view .LVU91
 442 000c 10B5     		push	{r4, lr}
 443              	.LCFI11:
 444              		.cfi_def_cfa_offset 8
 445              		.cfi_offset 4, -8
 446              		.cfi_offset 14, -4
 447 000e 0446     		mov	r4, r0
 207:USB_HOST/Target/usbh_conf.c ****   phost->pData = &hhcd_USB_OTG_FS;
 448              		.loc 1 207 3 is_stmt 1 view .LVU92
 207:USB_HOST/Target/usbh_conf.c ****   phost->pData = &hhcd_USB_OTG_FS;
 449              		.loc 1 207 25 is_stmt 0 view .LVU93
 450 0010 0F48     		ldr	r0, .L34
 451              	.LVL35:
 207:USB_HOST/Target/usbh_conf.c ****   phost->pData = &hhcd_USB_OTG_FS;
 452              		.loc 1 207 25 view .LVU94
 453 0012 C0F8DC43 		str	r4, [r0, #988]
 208:USB_HOST/Target/usbh_conf.c **** 
 454              		.loc 1 208 3 is_stmt 1 view .LVU95
 208:USB_HOST/Target/usbh_conf.c **** 
 455              		.loc 1 208 16 is_stmt 0 view .LVU96
 456 0016 C4F8D003 		str	r0, [r4, #976]
 210:USB_HOST/Target/usbh_conf.c ****   hhcd_USB_OTG_FS.Init.Host_channels = 8;
 457              		.loc 1 210 3 is_stmt 1 view .LVU97
 210:USB_HOST/Target/usbh_conf.c ****   hhcd_USB_OTG_FS.Init.Host_channels = 8;
 458              		.loc 1 210 28 is_stmt 0 view .LVU98
 459 001a 4FF0A043 		mov	r3, #1342177280
 460 001e 0360     		str	r3, [r0]
 211:USB_HOST/Target/usbh_conf.c ****   hhcd_USB_OTG_FS.Init.speed = HCD_SPEED_FULL;
 461              		.loc 1 211 3 is_stmt 1 view .LVU99
 211:USB_HOST/Target/usbh_conf.c ****   hhcd_USB_OTG_FS.Init.speed = HCD_SPEED_FULL;
 462              		.loc 1 211 38 is_stmt 0 view .LVU100
 463 0020 0823     		movs	r3, #8
 464 0022 4371     		strb	r3, [r0, #5]
 212:USB_HOST/Target/usbh_conf.c ****   hhcd_USB_OTG_FS.Init.dma_enable = DISABLE;
 465              		.loc 1 212 3 is_stmt 1 view .LVU101
 212:USB_HOST/Target/usbh_conf.c ****   hhcd_USB_OTG_FS.Init.dma_enable = DISABLE;
 466              		.loc 1 212 30 is_stmt 0 view .LVU102
 467 0024 0123     		movs	r3, #1
 468 0026 C371     		strb	r3, [r0, #7]
 213:USB_HOST/Target/usbh_conf.c ****   hhcd_USB_OTG_FS.Init.phy_itface = HCD_PHY_EMBEDDED;
 469              		.loc 1 213 3 is_stmt 1 view .LVU103
 213:USB_HOST/Target/usbh_conf.c ****   hhcd_USB_OTG_FS.Init.phy_itface = HCD_PHY_EMBEDDED;
 470              		.loc 1 213 35 is_stmt 0 view .LVU104
 471 0028 0023     		movs	r3, #0
 472 002a 8371     		strb	r3, [r0, #6]
 214:USB_HOST/Target/usbh_conf.c ****   hhcd_USB_OTG_FS.Init.Sof_enable = DISABLE;
 473              		.loc 1 214 3 is_stmt 1 view .LVU105
 214:USB_HOST/Target/usbh_conf.c ****   hhcd_USB_OTG_FS.Init.Sof_enable = DISABLE;
 474              		.loc 1 214 35 is_stmt 0 view .LVU106
 475 002c 0222     		movs	r2, #2
 476 002e 4272     		strb	r2, [r0, #9]
 215:USB_HOST/Target/usbh_conf.c ****   if (HAL_HCD_Init(&hhcd_USB_OTG_FS) != HAL_OK)
 477              		.loc 1 215 3 is_stmt 1 view .LVU107
 215:USB_HOST/Target/usbh_conf.c ****   if (HAL_HCD_Init(&hhcd_USB_OTG_FS) != HAL_OK)
 478              		.loc 1 215 35 is_stmt 0 view .LVU108
ARM GAS  C:\Users\ashto\AppData\Local\Temp\ccycEUVe.s 			page 14


 479 0030 8372     		strb	r3, [r0, #10]
 216:USB_HOST/Target/usbh_conf.c ****   {
 480              		.loc 1 216 3 is_stmt 1 view .LVU109
 216:USB_HOST/Target/usbh_conf.c ****   {
 481              		.loc 1 216 7 is_stmt 0 view .LVU110
 482 0032 FFF7FEFF 		bl	HAL_HCD_Init
 483              	.LVL36:
 216:USB_HOST/Target/usbh_conf.c ****   {
 484              		.loc 1 216 6 view .LVU111
 485 0036 40B9     		cbnz	r0, .L33
 486              	.L27:
 221:USB_HOST/Target/usbh_conf.c ****   }
 487              		.loc 1 221 3 is_stmt 1 view .LVU112
 488 0038 0548     		ldr	r0, .L34
 489 003a FFF7FEFF 		bl	HAL_HCD_GetCurrentFrame
 490              	.LVL37:
 491 003e 0146     		mov	r1, r0
 492 0040 2046     		mov	r0, r4
 493 0042 FFF7FEFF 		bl	USBH_LL_SetTimer
 494              	.LVL38:
 223:USB_HOST/Target/usbh_conf.c **** }
 495              		.loc 1 223 3 view .LVU113
 496              		.loc 1 224 1 is_stmt 0 view .LVU114
 497 0046 0020     		movs	r0, #0
 498 0048 10BD     		pop	{r4, pc}
 499              	.LVL39:
 500              	.L33:
 218:USB_HOST/Target/usbh_conf.c ****   }
 501              		.loc 1 218 5 is_stmt 1 view .LVU115
 502 004a FFF7FEFF 		bl	Error_Handler
 503              	.LVL40:
 504 004e F3E7     		b	.L27
 505              	.L35:
 506              		.align	2
 507              	.L34:
 508 0050 00000000 		.word	.LANCHOR0
 509              		.cfi_endproc
 510              	.LFE149:
 512              		.section	.text.USBH_LL_GetSpeed,"ax",%progbits
 513              		.align	1
 514              		.global	USBH_LL_GetSpeed
 515              		.syntax unified
 516              		.thumb
 517              		.thumb_func
 519              	USBH_LL_GetSpeed:
 520              	.LVL41:
 521              	.LFB153:
 225:USB_HOST/Target/usbh_conf.c **** 
 226:USB_HOST/Target/usbh_conf.c **** /**
 227:USB_HOST/Target/usbh_conf.c ****   * @brief  De-Initialize the low level portion of the host driver.
 228:USB_HOST/Target/usbh_conf.c ****   * @param  phost: Host handle
 229:USB_HOST/Target/usbh_conf.c ****   * @retval USBH status
 230:USB_HOST/Target/usbh_conf.c ****   */
 231:USB_HOST/Target/usbh_conf.c **** USBH_StatusTypeDef USBH_LL_DeInit(USBH_HandleTypeDef *phost)
 232:USB_HOST/Target/usbh_conf.c **** {
 233:USB_HOST/Target/usbh_conf.c ****   HAL_StatusTypeDef hal_status = HAL_OK;
 234:USB_HOST/Target/usbh_conf.c ****   USBH_StatusTypeDef usb_status = USBH_OK;
ARM GAS  C:\Users\ashto\AppData\Local\Temp\ccycEUVe.s 			page 15


 235:USB_HOST/Target/usbh_conf.c **** 
 236:USB_HOST/Target/usbh_conf.c ****   hal_status = HAL_HCD_DeInit(phost->pData);
 237:USB_HOST/Target/usbh_conf.c **** 
 238:USB_HOST/Target/usbh_conf.c ****   usb_status = USBH_Get_USB_Status(hal_status);
 239:USB_HOST/Target/usbh_conf.c **** 
 240:USB_HOST/Target/usbh_conf.c ****   return usb_status;
 241:USB_HOST/Target/usbh_conf.c **** }
 242:USB_HOST/Target/usbh_conf.c **** 
 243:USB_HOST/Target/usbh_conf.c **** /**
 244:USB_HOST/Target/usbh_conf.c ****   * @brief  Start the low level portion of the host driver.
 245:USB_HOST/Target/usbh_conf.c ****   * @param  phost: Host handle
 246:USB_HOST/Target/usbh_conf.c ****   * @retval USBH status
 247:USB_HOST/Target/usbh_conf.c ****   */
 248:USB_HOST/Target/usbh_conf.c **** USBH_StatusTypeDef USBH_LL_Start(USBH_HandleTypeDef *phost)
 249:USB_HOST/Target/usbh_conf.c **** {
 250:USB_HOST/Target/usbh_conf.c ****   HAL_StatusTypeDef hal_status = HAL_OK;
 251:USB_HOST/Target/usbh_conf.c ****   USBH_StatusTypeDef usb_status = USBH_OK;
 252:USB_HOST/Target/usbh_conf.c **** 
 253:USB_HOST/Target/usbh_conf.c ****   hal_status = HAL_HCD_Start(phost->pData);
 254:USB_HOST/Target/usbh_conf.c **** 
 255:USB_HOST/Target/usbh_conf.c ****   usb_status = USBH_Get_USB_Status(hal_status);
 256:USB_HOST/Target/usbh_conf.c **** 
 257:USB_HOST/Target/usbh_conf.c ****   return usb_status;
 258:USB_HOST/Target/usbh_conf.c **** }
 259:USB_HOST/Target/usbh_conf.c **** 
 260:USB_HOST/Target/usbh_conf.c **** /**
 261:USB_HOST/Target/usbh_conf.c ****   * @brief  Stop the low level portion of the host driver.
 262:USB_HOST/Target/usbh_conf.c ****   * @param  phost: Host handle
 263:USB_HOST/Target/usbh_conf.c ****   * @retval USBH status
 264:USB_HOST/Target/usbh_conf.c ****   */
 265:USB_HOST/Target/usbh_conf.c **** USBH_StatusTypeDef USBH_LL_Stop(USBH_HandleTypeDef *phost)
 266:USB_HOST/Target/usbh_conf.c **** {
 267:USB_HOST/Target/usbh_conf.c ****   HAL_StatusTypeDef hal_status = HAL_OK;
 268:USB_HOST/Target/usbh_conf.c ****   USBH_StatusTypeDef usb_status = USBH_OK;
 269:USB_HOST/Target/usbh_conf.c **** 
 270:USB_HOST/Target/usbh_conf.c ****   hal_status = HAL_HCD_Stop(phost->pData);
 271:USB_HOST/Target/usbh_conf.c **** 
 272:USB_HOST/Target/usbh_conf.c ****   usb_status = USBH_Get_USB_Status(hal_status);
 273:USB_HOST/Target/usbh_conf.c **** 
 274:USB_HOST/Target/usbh_conf.c ****   return usb_status;
 275:USB_HOST/Target/usbh_conf.c **** }
 276:USB_HOST/Target/usbh_conf.c **** 
 277:USB_HOST/Target/usbh_conf.c **** /**
 278:USB_HOST/Target/usbh_conf.c ****   * @brief  Return the USB host speed from the low level driver.
 279:USB_HOST/Target/usbh_conf.c ****   * @param  phost: Host handle
 280:USB_HOST/Target/usbh_conf.c ****   * @retval USBH speeds
 281:USB_HOST/Target/usbh_conf.c ****   */
 282:USB_HOST/Target/usbh_conf.c **** USBH_SpeedTypeDef USBH_LL_GetSpeed(USBH_HandleTypeDef *phost)
 283:USB_HOST/Target/usbh_conf.c **** {
 522              		.loc 1 283 1 view -0
 523              		.cfi_startproc
 524              		@ args = 0, pretend = 0, frame = 0
 525              		@ frame_needed = 0, uses_anonymous_args = 0
 526              		.loc 1 283 1 is_stmt 0 view .LVU117
 527 0000 08B5     		push	{r3, lr}
 528              	.LCFI12:
 529              		.cfi_def_cfa_offset 8
ARM GAS  C:\Users\ashto\AppData\Local\Temp\ccycEUVe.s 			page 16


 530              		.cfi_offset 3, -8
 531              		.cfi_offset 14, -4
 284:USB_HOST/Target/usbh_conf.c ****   USBH_SpeedTypeDef speed = USBH_SPEED_FULL;
 532              		.loc 1 284 3 is_stmt 1 view .LVU118
 533              	.LVL42:
 285:USB_HOST/Target/usbh_conf.c **** 
 286:USB_HOST/Target/usbh_conf.c ****   switch (HAL_HCD_GetCurrentSpeed(phost->pData))
 534              		.loc 1 286 3 view .LVU119
 535              		.loc 1 286 11 is_stmt 0 view .LVU120
 536 0002 D0F8D003 		ldr	r0, [r0, #976]
 537              	.LVL43:
 538              		.loc 1 286 11 view .LVU121
 539 0006 FFF7FEFF 		bl	HAL_HCD_GetCurrentSpeed
 540              	.LVL44:
 541              		.loc 1 286 3 view .LVU122
 542 000a 0128     		cmp	r0, #1
 543 000c 04D0     		beq	.L38
 544 000e 0228     		cmp	r0, #2
 545 0010 04D0     		beq	.L39
 546 0012 00B1     		cbz	r0, .L37
 287:USB_HOST/Target/usbh_conf.c ****   {
 288:USB_HOST/Target/usbh_conf.c ****   case 0 :
 289:USB_HOST/Target/usbh_conf.c ****     speed = USBH_SPEED_HIGH;
 290:USB_HOST/Target/usbh_conf.c ****     break;
 291:USB_HOST/Target/usbh_conf.c **** 
 292:USB_HOST/Target/usbh_conf.c ****   case 1 :
 293:USB_HOST/Target/usbh_conf.c ****     speed = USBH_SPEED_FULL;
 294:USB_HOST/Target/usbh_conf.c ****     break;
 295:USB_HOST/Target/usbh_conf.c **** 
 296:USB_HOST/Target/usbh_conf.c ****   case 2 :
 297:USB_HOST/Target/usbh_conf.c ****     speed = USBH_SPEED_LOW;
 298:USB_HOST/Target/usbh_conf.c ****     break;
 299:USB_HOST/Target/usbh_conf.c **** 
 300:USB_HOST/Target/usbh_conf.c ****   default:
 301:USB_HOST/Target/usbh_conf.c ****    speed = USBH_SPEED_FULL;
 547              		.loc 1 301 10 view .LVU123
 548 0014 0120     		movs	r0, #1
 549              	.L37:
 550              	.LVL45:
 302:USB_HOST/Target/usbh_conf.c ****     break;
 303:USB_HOST/Target/usbh_conf.c ****   }
 304:USB_HOST/Target/usbh_conf.c ****   return  speed;
 551              		.loc 1 304 3 is_stmt 1 view .LVU124
 305:USB_HOST/Target/usbh_conf.c **** }
 552              		.loc 1 305 1 is_stmt 0 view .LVU125
 553 0016 08BD     		pop	{r3, pc}
 554              	.LVL46:
 555              	.L38:
 293:USB_HOST/Target/usbh_conf.c ****     break;
 556              		.loc 1 293 11 view .LVU126
 557 0018 0120     		movs	r0, #1
 558 001a FCE7     		b	.L37
 559              	.L39:
 297:USB_HOST/Target/usbh_conf.c ****     break;
 560              		.loc 1 297 11 view .LVU127
 561 001c 0220     		movs	r0, #2
 562 001e FAE7     		b	.L37
ARM GAS  C:\Users\ashto\AppData\Local\Temp\ccycEUVe.s 			page 17


 563              		.cfi_endproc
 564              	.LFE153:
 566              		.section	.text.USBH_LL_GetLastXferSize,"ax",%progbits
 567              		.align	1
 568              		.global	USBH_LL_GetLastXferSize
 569              		.syntax unified
 570              		.thumb
 571              		.thumb_func
 573              	USBH_LL_GetLastXferSize:
 574              	.LVL47:
 575              	.LFB155:
 306:USB_HOST/Target/usbh_conf.c **** 
 307:USB_HOST/Target/usbh_conf.c **** /**
 308:USB_HOST/Target/usbh_conf.c ****   * @brief  Reset the Host port of the low level driver.
 309:USB_HOST/Target/usbh_conf.c ****   * @param  phost: Host handle
 310:USB_HOST/Target/usbh_conf.c ****   * @retval USBH status
 311:USB_HOST/Target/usbh_conf.c ****   */
 312:USB_HOST/Target/usbh_conf.c **** USBH_StatusTypeDef USBH_LL_ResetPort(USBH_HandleTypeDef *phost)
 313:USB_HOST/Target/usbh_conf.c **** {
 314:USB_HOST/Target/usbh_conf.c ****   HAL_StatusTypeDef hal_status = HAL_OK;
 315:USB_HOST/Target/usbh_conf.c ****   USBH_StatusTypeDef usb_status = USBH_OK;
 316:USB_HOST/Target/usbh_conf.c **** 
 317:USB_HOST/Target/usbh_conf.c ****   hal_status = HAL_HCD_ResetPort(phost->pData);
 318:USB_HOST/Target/usbh_conf.c **** 
 319:USB_HOST/Target/usbh_conf.c ****   usb_status = USBH_Get_USB_Status(hal_status);
 320:USB_HOST/Target/usbh_conf.c **** 
 321:USB_HOST/Target/usbh_conf.c ****   return usb_status;
 322:USB_HOST/Target/usbh_conf.c **** }
 323:USB_HOST/Target/usbh_conf.c **** 
 324:USB_HOST/Target/usbh_conf.c **** /**
 325:USB_HOST/Target/usbh_conf.c ****   * @brief  Return the last transferred packet size.
 326:USB_HOST/Target/usbh_conf.c ****   * @param  phost: Host handle
 327:USB_HOST/Target/usbh_conf.c ****   * @param  pipe: Pipe index
 328:USB_HOST/Target/usbh_conf.c ****   * @retval Packet size
 329:USB_HOST/Target/usbh_conf.c ****   */
 330:USB_HOST/Target/usbh_conf.c **** uint32_t USBH_LL_GetLastXferSize(USBH_HandleTypeDef *phost, uint8_t pipe)
 331:USB_HOST/Target/usbh_conf.c **** {
 576              		.loc 1 331 1 is_stmt 1 view -0
 577              		.cfi_startproc
 578              		@ args = 0, pretend = 0, frame = 0
 579              		@ frame_needed = 0, uses_anonymous_args = 0
 580              		.loc 1 331 1 is_stmt 0 view .LVU129
 581 0000 08B5     		push	{r3, lr}
 582              	.LCFI13:
 583              		.cfi_def_cfa_offset 8
 584              		.cfi_offset 3, -8
 585              		.cfi_offset 14, -4
 332:USB_HOST/Target/usbh_conf.c ****   return HAL_HCD_HC_GetXferCount(phost->pData, pipe);
 586              		.loc 1 332 3 is_stmt 1 view .LVU130
 587              		.loc 1 332 10 is_stmt 0 view .LVU131
 588 0002 D0F8D003 		ldr	r0, [r0, #976]
 589              	.LVL48:
 590              		.loc 1 332 10 view .LVU132
 591 0006 FFF7FEFF 		bl	HAL_HCD_HC_GetXferCount
 592              	.LVL49:
 333:USB_HOST/Target/usbh_conf.c **** }
 593              		.loc 1 333 1 view .LVU133
ARM GAS  C:\Users\ashto\AppData\Local\Temp\ccycEUVe.s 			page 18


 594 000a 08BD     		pop	{r3, pc}
 595              		.cfi_endproc
 596              	.LFE155:
 598              		.section	.text.USBH_LL_GetURBState,"ax",%progbits
 599              		.align	1
 600              		.global	USBH_LL_GetURBState
 601              		.syntax unified
 602              		.thumb
 603              		.thumb_func
 605              	USBH_LL_GetURBState:
 606              	.LVL50:
 607              	.LFB159:
 334:USB_HOST/Target/usbh_conf.c **** 
 335:USB_HOST/Target/usbh_conf.c **** /**
 336:USB_HOST/Target/usbh_conf.c ****   * @brief  Open a pipe of the low level driver.
 337:USB_HOST/Target/usbh_conf.c ****   * @param  phost: Host handle
 338:USB_HOST/Target/usbh_conf.c ****   * @param  pipe_num: Pipe index
 339:USB_HOST/Target/usbh_conf.c ****   * @param  epnum: Endpoint number
 340:USB_HOST/Target/usbh_conf.c ****   * @param  dev_address: Device USB address
 341:USB_HOST/Target/usbh_conf.c ****   * @param  speed: Device Speed
 342:USB_HOST/Target/usbh_conf.c ****   * @param  ep_type: Endpoint type
 343:USB_HOST/Target/usbh_conf.c ****   * @param  mps: Endpoint max packet size
 344:USB_HOST/Target/usbh_conf.c ****   * @retval USBH status
 345:USB_HOST/Target/usbh_conf.c ****   */
 346:USB_HOST/Target/usbh_conf.c **** USBH_StatusTypeDef USBH_LL_OpenPipe(USBH_HandleTypeDef *phost, uint8_t pipe_num, uint8_t epnum,
 347:USB_HOST/Target/usbh_conf.c ****                                     uint8_t dev_address, uint8_t speed, uint8_t ep_type, uint16_t m
 348:USB_HOST/Target/usbh_conf.c **** {
 349:USB_HOST/Target/usbh_conf.c ****   HAL_StatusTypeDef hal_status = HAL_OK;
 350:USB_HOST/Target/usbh_conf.c ****   USBH_StatusTypeDef usb_status = USBH_OK;
 351:USB_HOST/Target/usbh_conf.c **** 
 352:USB_HOST/Target/usbh_conf.c ****   hal_status = HAL_HCD_HC_Init(phost->pData, pipe_num, epnum,
 353:USB_HOST/Target/usbh_conf.c ****                                dev_address, speed, ep_type, mps);
 354:USB_HOST/Target/usbh_conf.c **** 
 355:USB_HOST/Target/usbh_conf.c ****   usb_status = USBH_Get_USB_Status(hal_status);
 356:USB_HOST/Target/usbh_conf.c **** 
 357:USB_HOST/Target/usbh_conf.c ****   return usb_status;
 358:USB_HOST/Target/usbh_conf.c **** }
 359:USB_HOST/Target/usbh_conf.c **** 
 360:USB_HOST/Target/usbh_conf.c **** /**
 361:USB_HOST/Target/usbh_conf.c ****   * @brief  Close a pipe of the low level driver.
 362:USB_HOST/Target/usbh_conf.c ****   * @param  phost: Host handle
 363:USB_HOST/Target/usbh_conf.c ****   * @param  pipe: Pipe index
 364:USB_HOST/Target/usbh_conf.c ****   * @retval USBH status
 365:USB_HOST/Target/usbh_conf.c ****   */
 366:USB_HOST/Target/usbh_conf.c **** USBH_StatusTypeDef USBH_LL_ClosePipe(USBH_HandleTypeDef *phost, uint8_t pipe)
 367:USB_HOST/Target/usbh_conf.c **** {
 368:USB_HOST/Target/usbh_conf.c ****   HAL_StatusTypeDef hal_status = HAL_OK;
 369:USB_HOST/Target/usbh_conf.c ****   USBH_StatusTypeDef usb_status = USBH_OK;
 370:USB_HOST/Target/usbh_conf.c **** 
 371:USB_HOST/Target/usbh_conf.c ****   hal_status = HAL_HCD_HC_Halt(phost->pData, pipe);
 372:USB_HOST/Target/usbh_conf.c **** 
 373:USB_HOST/Target/usbh_conf.c ****   usb_status = USBH_Get_USB_Status(hal_status);
 374:USB_HOST/Target/usbh_conf.c **** 
 375:USB_HOST/Target/usbh_conf.c ****   return usb_status;
 376:USB_HOST/Target/usbh_conf.c **** }
 377:USB_HOST/Target/usbh_conf.c **** 
 378:USB_HOST/Target/usbh_conf.c **** /**
ARM GAS  C:\Users\ashto\AppData\Local\Temp\ccycEUVe.s 			page 19


 379:USB_HOST/Target/usbh_conf.c ****   * @brief  Submit a new URB to the low level driver.
 380:USB_HOST/Target/usbh_conf.c ****   * @param  phost: Host handle
 381:USB_HOST/Target/usbh_conf.c ****   * @param  pipe: Pipe index
 382:USB_HOST/Target/usbh_conf.c ****   *         This parameter can be a value from 1 to 15
 383:USB_HOST/Target/usbh_conf.c ****   * @param  direction : Channel number
 384:USB_HOST/Target/usbh_conf.c ****   *          This parameter can be one of the these values:
 385:USB_HOST/Target/usbh_conf.c ****   *           0 : Output
 386:USB_HOST/Target/usbh_conf.c ****   *           1 : Input
 387:USB_HOST/Target/usbh_conf.c ****   * @param  ep_type : Endpoint Type
 388:USB_HOST/Target/usbh_conf.c ****   *          This parameter can be one of the these values:
 389:USB_HOST/Target/usbh_conf.c ****   *            @arg EP_TYPE_CTRL: Control type
 390:USB_HOST/Target/usbh_conf.c ****   *            @arg EP_TYPE_ISOC: Isochrounous type
 391:USB_HOST/Target/usbh_conf.c ****   *            @arg EP_TYPE_BULK: Bulk type
 392:USB_HOST/Target/usbh_conf.c ****   *            @arg EP_TYPE_INTR: Interrupt type
 393:USB_HOST/Target/usbh_conf.c ****   * @param  token : Endpoint Type
 394:USB_HOST/Target/usbh_conf.c ****   *          This parameter can be one of the these values:
 395:USB_HOST/Target/usbh_conf.c ****   *            @arg 0: PID_SETUP
 396:USB_HOST/Target/usbh_conf.c ****   *            @arg 1: PID_DATA
 397:USB_HOST/Target/usbh_conf.c ****   * @param  pbuff : pointer to URB data
 398:USB_HOST/Target/usbh_conf.c ****   * @param  length : Length of URB data
 399:USB_HOST/Target/usbh_conf.c ****   * @param  do_ping : activate do ping protocol (for high speed only)
 400:USB_HOST/Target/usbh_conf.c ****   *          This parameter can be one of the these values:
 401:USB_HOST/Target/usbh_conf.c ****   *           0 : do ping inactive
 402:USB_HOST/Target/usbh_conf.c ****   *           1 : do ping active
 403:USB_HOST/Target/usbh_conf.c ****   * @retval Status
 404:USB_HOST/Target/usbh_conf.c ****   */
 405:USB_HOST/Target/usbh_conf.c **** USBH_StatusTypeDef USBH_LL_SubmitURB(USBH_HandleTypeDef *phost, uint8_t pipe, uint8_t direction,
 406:USB_HOST/Target/usbh_conf.c ****                                      uint8_t ep_type, uint8_t token, uint8_t *pbuff, uint16_t lengt
 407:USB_HOST/Target/usbh_conf.c ****                                      uint8_t do_ping)
 408:USB_HOST/Target/usbh_conf.c **** {
 409:USB_HOST/Target/usbh_conf.c ****   HAL_StatusTypeDef hal_status = HAL_OK;
 410:USB_HOST/Target/usbh_conf.c ****   USBH_StatusTypeDef usb_status = USBH_OK;
 411:USB_HOST/Target/usbh_conf.c **** 
 412:USB_HOST/Target/usbh_conf.c ****   hal_status = HAL_HCD_HC_SubmitRequest(phost->pData, pipe, direction ,
 413:USB_HOST/Target/usbh_conf.c ****                                         ep_type, token, pbuff, length,
 414:USB_HOST/Target/usbh_conf.c ****                                         do_ping);
 415:USB_HOST/Target/usbh_conf.c ****   usb_status =  USBH_Get_USB_Status(hal_status);
 416:USB_HOST/Target/usbh_conf.c **** 
 417:USB_HOST/Target/usbh_conf.c ****   return usb_status;
 418:USB_HOST/Target/usbh_conf.c **** }
 419:USB_HOST/Target/usbh_conf.c **** 
 420:USB_HOST/Target/usbh_conf.c **** /**
 421:USB_HOST/Target/usbh_conf.c ****   * @brief  Get a URB state from the low level driver.
 422:USB_HOST/Target/usbh_conf.c ****   * @param  phost: Host handle
 423:USB_HOST/Target/usbh_conf.c ****   * @param  pipe: Pipe index
 424:USB_HOST/Target/usbh_conf.c ****   *         This parameter can be a value from 1 to 15
 425:USB_HOST/Target/usbh_conf.c ****   * @retval URB state
 426:USB_HOST/Target/usbh_conf.c ****   *          This parameter can be one of the these values:
 427:USB_HOST/Target/usbh_conf.c ****   *            @arg URB_IDLE
 428:USB_HOST/Target/usbh_conf.c ****   *            @arg URB_DONE
 429:USB_HOST/Target/usbh_conf.c ****   *            @arg URB_NOTREADY
 430:USB_HOST/Target/usbh_conf.c ****   *            @arg URB_NYET
 431:USB_HOST/Target/usbh_conf.c ****   *            @arg URB_ERROR
 432:USB_HOST/Target/usbh_conf.c ****   *            @arg URB_STALL
 433:USB_HOST/Target/usbh_conf.c ****   */
 434:USB_HOST/Target/usbh_conf.c **** USBH_URBStateTypeDef USBH_LL_GetURBState(USBH_HandleTypeDef *phost, uint8_t pipe)
 435:USB_HOST/Target/usbh_conf.c **** {
ARM GAS  C:\Users\ashto\AppData\Local\Temp\ccycEUVe.s 			page 20


 608              		.loc 1 435 1 is_stmt 1 view -0
 609              		.cfi_startproc
 610              		@ args = 0, pretend = 0, frame = 0
 611              		@ frame_needed = 0, uses_anonymous_args = 0
 612              		.loc 1 435 1 is_stmt 0 view .LVU135
 613 0000 08B5     		push	{r3, lr}
 614              	.LCFI14:
 615              		.cfi_def_cfa_offset 8
 616              		.cfi_offset 3, -8
 617              		.cfi_offset 14, -4
 436:USB_HOST/Target/usbh_conf.c ****   return (USBH_URBStateTypeDef)HAL_HCD_HC_GetURBState (phost->pData, pipe);
 618              		.loc 1 436 3 is_stmt 1 view .LVU136
 619              		.loc 1 436 32 is_stmt 0 view .LVU137
 620 0002 D0F8D003 		ldr	r0, [r0, #976]
 621              	.LVL51:
 622              		.loc 1 436 32 view .LVU138
 623 0006 FFF7FEFF 		bl	HAL_HCD_HC_GetURBState
 624              	.LVL52:
 437:USB_HOST/Target/usbh_conf.c **** }
 625              		.loc 1 437 1 view .LVU139
 626 000a 08BD     		pop	{r3, pc}
 627              		.cfi_endproc
 628              	.LFE159:
 630              		.section	.text.USBH_LL_DriverVBUS,"ax",%progbits
 631              		.align	1
 632              		.global	USBH_LL_DriverVBUS
 633              		.syntax unified
 634              		.thumb
 635              		.thumb_func
 637              	USBH_LL_DriverVBUS:
 638              	.LVL53:
 639              	.LFB160:
 438:USB_HOST/Target/usbh_conf.c **** 
 439:USB_HOST/Target/usbh_conf.c **** /**
 440:USB_HOST/Target/usbh_conf.c ****   * @brief  Drive VBUS.
 441:USB_HOST/Target/usbh_conf.c ****   * @param  phost: Host handle
 442:USB_HOST/Target/usbh_conf.c ****   * @param  state : VBUS state
 443:USB_HOST/Target/usbh_conf.c ****   *          This parameter can be one of the these values:
 444:USB_HOST/Target/usbh_conf.c ****   *           0 : VBUS Inactive
 445:USB_HOST/Target/usbh_conf.c ****   *           1 : VBUS Active
 446:USB_HOST/Target/usbh_conf.c ****   * @retval Status
 447:USB_HOST/Target/usbh_conf.c ****   */
 448:USB_HOST/Target/usbh_conf.c **** USBH_StatusTypeDef USBH_LL_DriverVBUS(USBH_HandleTypeDef *phost, uint8_t state)
 449:USB_HOST/Target/usbh_conf.c **** {
 640              		.loc 1 449 1 is_stmt 1 view -0
 641              		.cfi_startproc
 642              		@ args = 0, pretend = 0, frame = 0
 643              		@ frame_needed = 0, uses_anonymous_args = 0
 644              		.loc 1 449 1 is_stmt 0 view .LVU141
 645 0000 08B5     		push	{r3, lr}
 646              	.LCFI15:
 647              		.cfi_def_cfa_offset 8
 648              		.cfi_offset 3, -8
 649              		.cfi_offset 14, -4
 450:USB_HOST/Target/usbh_conf.c ****   if (phost->id == HOST_FS) {
 650              		.loc 1 450 3 is_stmt 1 view .LVU142
 651              		.loc 1 450 12 is_stmt 0 view .LVU143
ARM GAS  C:\Users\ashto\AppData\Local\Temp\ccycEUVe.s 			page 21


 652 0002 90F8CC33 		ldrb	r3, [r0, #972]	@ zero_extendqisi2
 653              		.loc 1 450 6 view .LVU144
 654 0006 012B     		cmp	r3, #1
 655 0008 04D0     		beq	.L49
 656              	.LVL54:
 657              	.L47:
 451:USB_HOST/Target/usbh_conf.c ****     MX_DriverVbusFS(state);
 452:USB_HOST/Target/usbh_conf.c ****   }
 453:USB_HOST/Target/usbh_conf.c **** 
 454:USB_HOST/Target/usbh_conf.c ****   /* USER CODE BEGIN 0 */
 455:USB_HOST/Target/usbh_conf.c **** 
 456:USB_HOST/Target/usbh_conf.c ****   /* USER CODE END 0*/
 457:USB_HOST/Target/usbh_conf.c **** 
 458:USB_HOST/Target/usbh_conf.c ****   HAL_Delay(200);
 658              		.loc 1 458 3 is_stmt 1 view .LVU145
 659 000a C820     		movs	r0, #200
 660 000c FFF7FEFF 		bl	HAL_Delay
 661              	.LVL55:
 459:USB_HOST/Target/usbh_conf.c ****   return USBH_OK;
 662              		.loc 1 459 3 view .LVU146
 460:USB_HOST/Target/usbh_conf.c **** }
 663              		.loc 1 460 1 is_stmt 0 view .LVU147
 664 0010 0020     		movs	r0, #0
 665 0012 08BD     		pop	{r3, pc}
 666              	.LVL56:
 667              	.L49:
 451:USB_HOST/Target/usbh_conf.c ****     MX_DriverVbusFS(state);
 668              		.loc 1 451 5 is_stmt 1 view .LVU148
 669 0014 0846     		mov	r0, r1
 670              	.LVL57:
 451:USB_HOST/Target/usbh_conf.c ****     MX_DriverVbusFS(state);
 671              		.loc 1 451 5 is_stmt 0 view .LVU149
 672 0016 FFF7FEFF 		bl	MX_DriverVbusFS
 673              	.LVL58:
 451:USB_HOST/Target/usbh_conf.c ****     MX_DriverVbusFS(state);
 674              		.loc 1 451 5 view .LVU150
 675 001a F6E7     		b	.L47
 676              		.cfi_endproc
 677              	.LFE160:
 679              		.section	.text.USBH_LL_SetToggle,"ax",%progbits
 680              		.align	1
 681              		.global	USBH_LL_SetToggle
 682              		.syntax unified
 683              		.thumb
 684              		.thumb_func
 686              	USBH_LL_SetToggle:
 687              	.LVL59:
 688              	.LFB161:
 461:USB_HOST/Target/usbh_conf.c **** 
 462:USB_HOST/Target/usbh_conf.c **** /**
 463:USB_HOST/Target/usbh_conf.c ****   * @brief  Set toggle for a pipe.
 464:USB_HOST/Target/usbh_conf.c ****   * @param  phost: Host handle
 465:USB_HOST/Target/usbh_conf.c ****   * @param  pipe: Pipe index
 466:USB_HOST/Target/usbh_conf.c ****   * @param  toggle: toggle (0/1)
 467:USB_HOST/Target/usbh_conf.c ****   * @retval Status
 468:USB_HOST/Target/usbh_conf.c ****   */
 469:USB_HOST/Target/usbh_conf.c **** USBH_StatusTypeDef USBH_LL_SetToggle(USBH_HandleTypeDef *phost, uint8_t pipe, uint8_t toggle)
ARM GAS  C:\Users\ashto\AppData\Local\Temp\ccycEUVe.s 			page 22


 470:USB_HOST/Target/usbh_conf.c **** {
 689              		.loc 1 470 1 is_stmt 1 view -0
 690              		.cfi_startproc
 691              		@ args = 0, pretend = 0, frame = 0
 692              		@ frame_needed = 0, uses_anonymous_args = 0
 693              		@ link register save eliminated.
 471:USB_HOST/Target/usbh_conf.c ****   HCD_HandleTypeDef *pHandle;
 694              		.loc 1 471 3 view .LVU152
 472:USB_HOST/Target/usbh_conf.c ****   pHandle = phost->pData;
 695              		.loc 1 472 3 view .LVU153
 696              		.loc 1 472 11 is_stmt 0 view .LVU154
 697 0000 D0F8D033 		ldr	r3, [r0, #976]
 698              	.LVL60:
 473:USB_HOST/Target/usbh_conf.c **** 
 474:USB_HOST/Target/usbh_conf.c ****   if(pHandle->hc[pipe].ep_is_in)
 699              		.loc 1 474 3 is_stmt 1 view .LVU155
 700              		.loc 1 474 23 is_stmt 0 view .LVU156
 701 0004 C1EB0110 		rsb	r0, r1, r1, lsl #4
 702              	.LVL61:
 703              		.loc 1 474 23 view .LVU157
 704 0008 03EB8000 		add	r0, r3, r0, lsl #2
 705 000c C07D     		ldrb	r0, [r0, #23]	@ zero_extendqisi2
 706              		.loc 1 474 5 view .LVU158
 707 000e 38B1     		cbz	r0, .L51
 475:USB_HOST/Target/usbh_conf.c ****   {
 476:USB_HOST/Target/usbh_conf.c ****     pHandle->hc[pipe].toggle_in = toggle;
 708              		.loc 1 476 5 is_stmt 1 view .LVU159
 709              		.loc 1 476 33 is_stmt 0 view .LVU160
 710 0010 C1EB0111 		rsb	r1, r1, r1, lsl #4
 711              	.LVL62:
 712              		.loc 1 476 33 view .LVU161
 713 0014 03EB8101 		add	r1, r3, r1, lsl #2
 714 0018 81F83C20 		strb	r2, [r1, #60]
 715              	.L52:
 477:USB_HOST/Target/usbh_conf.c ****   }
 478:USB_HOST/Target/usbh_conf.c ****   else
 479:USB_HOST/Target/usbh_conf.c ****   {
 480:USB_HOST/Target/usbh_conf.c ****     pHandle->hc[pipe].toggle_out = toggle;
 481:USB_HOST/Target/usbh_conf.c ****   }
 482:USB_HOST/Target/usbh_conf.c **** 
 483:USB_HOST/Target/usbh_conf.c ****   return USBH_OK;
 716              		.loc 1 483 3 is_stmt 1 view .LVU162
 484:USB_HOST/Target/usbh_conf.c **** }
 717              		.loc 1 484 1 is_stmt 0 view .LVU163
 718 001c 0020     		movs	r0, #0
 719 001e 7047     		bx	lr
 720              	.LVL63:
 721              	.L51:
 480:USB_HOST/Target/usbh_conf.c ****   }
 722              		.loc 1 480 5 is_stmt 1 view .LVU164
 480:USB_HOST/Target/usbh_conf.c ****   }
 723              		.loc 1 480 34 is_stmt 0 view .LVU165
 724 0020 C1EB0111 		rsb	r1, r1, r1, lsl #4
 725              	.LVL64:
 480:USB_HOST/Target/usbh_conf.c ****   }
 726              		.loc 1 480 34 view .LVU166
 727 0024 03EB8101 		add	r1, r3, r1, lsl #2
ARM GAS  C:\Users\ashto\AppData\Local\Temp\ccycEUVe.s 			page 23


 728 0028 81F83D20 		strb	r2, [r1, #61]
 729 002c F6E7     		b	.L52
 730              		.cfi_endproc
 731              	.LFE161:
 733              		.section	.text.USBH_LL_GetToggle,"ax",%progbits
 734              		.align	1
 735              		.global	USBH_LL_GetToggle
 736              		.syntax unified
 737              		.thumb
 738              		.thumb_func
 740              	USBH_LL_GetToggle:
 741              	.LVL65:
 742              	.LFB162:
 485:USB_HOST/Target/usbh_conf.c **** 
 486:USB_HOST/Target/usbh_conf.c **** /**
 487:USB_HOST/Target/usbh_conf.c ****   * @brief  Return the current toggle of a pipe.
 488:USB_HOST/Target/usbh_conf.c ****   * @param  phost: Host handle
 489:USB_HOST/Target/usbh_conf.c ****   * @param  pipe: Pipe index
 490:USB_HOST/Target/usbh_conf.c ****   * @retval toggle (0/1)
 491:USB_HOST/Target/usbh_conf.c ****   */
 492:USB_HOST/Target/usbh_conf.c **** uint8_t USBH_LL_GetToggle(USBH_HandleTypeDef *phost, uint8_t pipe)
 493:USB_HOST/Target/usbh_conf.c **** {
 743              		.loc 1 493 1 is_stmt 1 view -0
 744              		.cfi_startproc
 745              		@ args = 0, pretend = 0, frame = 0
 746              		@ frame_needed = 0, uses_anonymous_args = 0
 747              		@ link register save eliminated.
 494:USB_HOST/Target/usbh_conf.c ****   uint8_t toggle = 0;
 748              		.loc 1 494 3 view .LVU168
 495:USB_HOST/Target/usbh_conf.c ****   HCD_HandleTypeDef *pHandle;
 749              		.loc 1 495 3 view .LVU169
 496:USB_HOST/Target/usbh_conf.c ****   pHandle = phost->pData;
 750              		.loc 1 496 3 view .LVU170
 751              		.loc 1 496 11 is_stmt 0 view .LVU171
 752 0000 D0F8D033 		ldr	r3, [r0, #976]
 753              	.LVL66:
 497:USB_HOST/Target/usbh_conf.c **** 
 498:USB_HOST/Target/usbh_conf.c ****   if(pHandle->hc[pipe].ep_is_in)
 754              		.loc 1 498 3 is_stmt 1 view .LVU172
 755              		.loc 1 498 23 is_stmt 0 view .LVU173
 756 0004 C1EB0112 		rsb	r2, r1, r1, lsl #4
 757 0008 03EB8202 		add	r2, r3, r2, lsl #2
 758 000c D27D     		ldrb	r2, [r2, #23]	@ zero_extendqisi2
 759              		.loc 1 498 5 view .LVU174
 760 000e 32B1     		cbz	r2, .L54
 499:USB_HOST/Target/usbh_conf.c ****   {
 500:USB_HOST/Target/usbh_conf.c ****     toggle = pHandle->hc[pipe].toggle_in;
 761              		.loc 1 500 5 is_stmt 1 view .LVU175
 762              		.loc 1 500 12 is_stmt 0 view .LVU176
 763 0010 C1EB0111 		rsb	r1, r1, r1, lsl #4
 764              	.LVL67:
 765              		.loc 1 500 12 view .LVU177
 766 0014 03EB8101 		add	r1, r3, r1, lsl #2
 767 0018 91F83C00 		ldrb	r0, [r1, #60]	@ zero_extendqisi2
 768              	.LVL68:
 769              		.loc 1 500 12 view .LVU178
 770 001c 7047     		bx	lr
ARM GAS  C:\Users\ashto\AppData\Local\Temp\ccycEUVe.s 			page 24


 771              	.LVL69:
 772              	.L54:
 501:USB_HOST/Target/usbh_conf.c ****   }
 502:USB_HOST/Target/usbh_conf.c ****   else
 503:USB_HOST/Target/usbh_conf.c ****   {
 504:USB_HOST/Target/usbh_conf.c ****     toggle = pHandle->hc[pipe].toggle_out;
 773              		.loc 1 504 5 is_stmt 1 view .LVU179
 774              		.loc 1 504 12 is_stmt 0 view .LVU180
 775 001e C1EB0111 		rsb	r1, r1, r1, lsl #4
 776              	.LVL70:
 777              		.loc 1 504 12 view .LVU181
 778 0022 03EB8101 		add	r1, r3, r1, lsl #2
 779 0026 91F83D00 		ldrb	r0, [r1, #61]	@ zero_extendqisi2
 780              	.LVL71:
 505:USB_HOST/Target/usbh_conf.c ****   }
 506:USB_HOST/Target/usbh_conf.c ****   return toggle;
 781              		.loc 1 506 3 is_stmt 1 view .LVU182
 507:USB_HOST/Target/usbh_conf.c **** }
 782              		.loc 1 507 1 is_stmt 0 view .LVU183
 783 002a 7047     		bx	lr
 784              		.cfi_endproc
 785              	.LFE162:
 787              		.section	.text.USBH_Delay,"ax",%progbits
 788              		.align	1
 789              		.global	USBH_Delay
 790              		.syntax unified
 791              		.thumb
 792              		.thumb_func
 794              	USBH_Delay:
 795              	.LVL72:
 796              	.LFB163:
 508:USB_HOST/Target/usbh_conf.c **** 
 509:USB_HOST/Target/usbh_conf.c **** /**
 510:USB_HOST/Target/usbh_conf.c ****   * @brief  Delay routine for the USB Host Library
 511:USB_HOST/Target/usbh_conf.c ****   * @param  Delay: Delay in ms
 512:USB_HOST/Target/usbh_conf.c ****   * @retval None
 513:USB_HOST/Target/usbh_conf.c ****   */
 514:USB_HOST/Target/usbh_conf.c **** void USBH_Delay(uint32_t Delay)
 515:USB_HOST/Target/usbh_conf.c **** {
 797              		.loc 1 515 1 is_stmt 1 view -0
 798              		.cfi_startproc
 799              		@ args = 0, pretend = 0, frame = 0
 800              		@ frame_needed = 0, uses_anonymous_args = 0
 801              		.loc 1 515 1 is_stmt 0 view .LVU185
 802 0000 08B5     		push	{r3, lr}
 803              	.LCFI16:
 804              		.cfi_def_cfa_offset 8
 805              		.cfi_offset 3, -8
 806              		.cfi_offset 14, -4
 516:USB_HOST/Target/usbh_conf.c ****   HAL_Delay(Delay);
 807              		.loc 1 516 3 is_stmt 1 view .LVU186
 808 0002 FFF7FEFF 		bl	HAL_Delay
 809              	.LVL73:
 517:USB_HOST/Target/usbh_conf.c **** }
 810              		.loc 1 517 1 is_stmt 0 view .LVU187
 811 0006 08BD     		pop	{r3, pc}
 812              		.cfi_endproc
ARM GAS  C:\Users\ashto\AppData\Local\Temp\ccycEUVe.s 			page 25


 813              	.LFE163:
 815              		.section	.text.USBH_Get_USB_Status,"ax",%progbits
 816              		.align	1
 817              		.global	USBH_Get_USB_Status
 818              		.syntax unified
 819              		.thumb
 820              		.thumb_func
 822              	USBH_Get_USB_Status:
 823              	.LVL74:
 824              	.LFB164:
 518:USB_HOST/Target/usbh_conf.c **** 
 519:USB_HOST/Target/usbh_conf.c **** /**
 520:USB_HOST/Target/usbh_conf.c ****   * @brief  Returns the USB status depending on the HAL status:
 521:USB_HOST/Target/usbh_conf.c ****   * @param  hal_status: HAL status
 522:USB_HOST/Target/usbh_conf.c ****   * @retval USB status
 523:USB_HOST/Target/usbh_conf.c ****   */
 524:USB_HOST/Target/usbh_conf.c **** USBH_StatusTypeDef USBH_Get_USB_Status(HAL_StatusTypeDef hal_status)
 525:USB_HOST/Target/usbh_conf.c **** {
 825              		.loc 1 525 1 is_stmt 1 view -0
 826              		.cfi_startproc
 827              		@ args = 0, pretend = 0, frame = 0
 828              		@ frame_needed = 0, uses_anonymous_args = 0
 829              		@ link register save eliminated.
 526:USB_HOST/Target/usbh_conf.c ****   USBH_StatusTypeDef usb_status = USBH_OK;
 830              		.loc 1 526 3 view .LVU189
 527:USB_HOST/Target/usbh_conf.c **** 
 528:USB_HOST/Target/usbh_conf.c ****   switch (hal_status)
 831              		.loc 1 528 3 view .LVU190
 832 0000 0228     		cmp	r0, #2
 833 0002 05D8     		bhi	.L63
 834 0004 DFE800F0 		tbb	[pc, r0]
 835              	.L61:
 836 0008 05       		.byte	(.L59-.L61)/2
 837 0009 04       		.byte	(.L63-.L61)/2
 838 000a 02       		.byte	(.L60-.L61)/2
 839 000b 00       		.p2align 1
 840              	.L60:
 529:USB_HOST/Target/usbh_conf.c ****   {
 530:USB_HOST/Target/usbh_conf.c ****     case HAL_OK :
 531:USB_HOST/Target/usbh_conf.c ****       usb_status = USBH_OK;
 532:USB_HOST/Target/usbh_conf.c ****     break;
 533:USB_HOST/Target/usbh_conf.c ****     case HAL_ERROR :
 534:USB_HOST/Target/usbh_conf.c ****       usb_status = USBH_FAIL;
 535:USB_HOST/Target/usbh_conf.c ****     break;
 536:USB_HOST/Target/usbh_conf.c ****     case HAL_BUSY :
 537:USB_HOST/Target/usbh_conf.c ****       usb_status = USBH_BUSY;
 841              		.loc 1 537 7 view .LVU191
 842              	.LVL75:
 538:USB_HOST/Target/usbh_conf.c ****     break;
 843              		.loc 1 538 5 view .LVU192
 537:USB_HOST/Target/usbh_conf.c ****     break;
 844              		.loc 1 537 18 is_stmt 0 view .LVU193
 845 000c 0120     		movs	r0, #1
 846              	.LVL76:
 847              		.loc 1 538 5 view .LVU194
 848 000e 7047     		bx	lr
 849              	.LVL77:
ARM GAS  C:\Users\ashto\AppData\Local\Temp\ccycEUVe.s 			page 26


 850              	.L63:
 534:USB_HOST/Target/usbh_conf.c ****     break;
 851              		.loc 1 534 18 view .LVU195
 852 0010 0220     		movs	r0, #2
 853              	.LVL78:
 854              	.L59:
 539:USB_HOST/Target/usbh_conf.c ****     case HAL_TIMEOUT :
 540:USB_HOST/Target/usbh_conf.c ****       usb_status = USBH_FAIL;
 541:USB_HOST/Target/usbh_conf.c ****     break;
 542:USB_HOST/Target/usbh_conf.c ****     default :
 543:USB_HOST/Target/usbh_conf.c ****       usb_status = USBH_FAIL;
 544:USB_HOST/Target/usbh_conf.c ****     break;
 545:USB_HOST/Target/usbh_conf.c ****   }
 546:USB_HOST/Target/usbh_conf.c ****   return usb_status;
 855              		.loc 1 546 3 is_stmt 1 view .LVU196
 547:USB_HOST/Target/usbh_conf.c **** }
 856              		.loc 1 547 1 is_stmt 0 view .LVU197
 857 0012 7047     		bx	lr
 858              		.cfi_endproc
 859              	.LFE164:
 861              		.section	.text.USBH_LL_DeInit,"ax",%progbits
 862              		.align	1
 863              		.global	USBH_LL_DeInit
 864              		.syntax unified
 865              		.thumb
 866              		.thumb_func
 868              	USBH_LL_DeInit:
 869              	.LVL79:
 870              	.LFB150:
 232:USB_HOST/Target/usbh_conf.c ****   HAL_StatusTypeDef hal_status = HAL_OK;
 871              		.loc 1 232 1 is_stmt 1 view -0
 872              		.cfi_startproc
 873              		@ args = 0, pretend = 0, frame = 0
 874              		@ frame_needed = 0, uses_anonymous_args = 0
 232:USB_HOST/Target/usbh_conf.c ****   HAL_StatusTypeDef hal_status = HAL_OK;
 875              		.loc 1 232 1 is_stmt 0 view .LVU199
 876 0000 08B5     		push	{r3, lr}
 877              	.LCFI17:
 878              		.cfi_def_cfa_offset 8
 879              		.cfi_offset 3, -8
 880              		.cfi_offset 14, -4
 233:USB_HOST/Target/usbh_conf.c ****   USBH_StatusTypeDef usb_status = USBH_OK;
 881              		.loc 1 233 3 is_stmt 1 view .LVU200
 882              	.LVL80:
 234:USB_HOST/Target/usbh_conf.c **** 
 883              		.loc 1 234 3 view .LVU201
 236:USB_HOST/Target/usbh_conf.c **** 
 884              		.loc 1 236 3 view .LVU202
 236:USB_HOST/Target/usbh_conf.c **** 
 885              		.loc 1 236 16 is_stmt 0 view .LVU203
 886 0002 D0F8D003 		ldr	r0, [r0, #976]
 887              	.LVL81:
 236:USB_HOST/Target/usbh_conf.c **** 
 888              		.loc 1 236 16 view .LVU204
 889 0006 FFF7FEFF 		bl	HAL_HCD_DeInit
 890              	.LVL82:
 238:USB_HOST/Target/usbh_conf.c **** 
ARM GAS  C:\Users\ashto\AppData\Local\Temp\ccycEUVe.s 			page 27


 891              		.loc 1 238 3 is_stmt 1 view .LVU205
 238:USB_HOST/Target/usbh_conf.c **** 
 892              		.loc 1 238 16 is_stmt 0 view .LVU206
 893 000a FFF7FEFF 		bl	USBH_Get_USB_Status
 894              	.LVL83:
 240:USB_HOST/Target/usbh_conf.c **** }
 895              		.loc 1 240 3 is_stmt 1 view .LVU207
 241:USB_HOST/Target/usbh_conf.c **** 
 896              		.loc 1 241 1 is_stmt 0 view .LVU208
 897 000e 08BD     		pop	{r3, pc}
 898              		.cfi_endproc
 899              	.LFE150:
 901              		.section	.text.USBH_LL_Start,"ax",%progbits
 902              		.align	1
 903              		.global	USBH_LL_Start
 904              		.syntax unified
 905              		.thumb
 906              		.thumb_func
 908              	USBH_LL_Start:
 909              	.LVL84:
 910              	.LFB151:
 249:USB_HOST/Target/usbh_conf.c ****   HAL_StatusTypeDef hal_status = HAL_OK;
 911              		.loc 1 249 1 is_stmt 1 view -0
 912              		.cfi_startproc
 913              		@ args = 0, pretend = 0, frame = 0
 914              		@ frame_needed = 0, uses_anonymous_args = 0
 249:USB_HOST/Target/usbh_conf.c ****   HAL_StatusTypeDef hal_status = HAL_OK;
 915              		.loc 1 249 1 is_stmt 0 view .LVU210
 916 0000 08B5     		push	{r3, lr}
 917              	.LCFI18:
 918              		.cfi_def_cfa_offset 8
 919              		.cfi_offset 3, -8
 920              		.cfi_offset 14, -4
 250:USB_HOST/Target/usbh_conf.c ****   USBH_StatusTypeDef usb_status = USBH_OK;
 921              		.loc 1 250 3 is_stmt 1 view .LVU211
 922              	.LVL85:
 251:USB_HOST/Target/usbh_conf.c **** 
 923              		.loc 1 251 3 view .LVU212
 253:USB_HOST/Target/usbh_conf.c **** 
 924              		.loc 1 253 3 view .LVU213
 253:USB_HOST/Target/usbh_conf.c **** 
 925              		.loc 1 253 16 is_stmt 0 view .LVU214
 926 0002 D0F8D003 		ldr	r0, [r0, #976]
 927              	.LVL86:
 253:USB_HOST/Target/usbh_conf.c **** 
 928              		.loc 1 253 16 view .LVU215
 929 0006 FFF7FEFF 		bl	HAL_HCD_Start
 930              	.LVL87:
 255:USB_HOST/Target/usbh_conf.c **** 
 931              		.loc 1 255 3 is_stmt 1 view .LVU216
 255:USB_HOST/Target/usbh_conf.c **** 
 932              		.loc 1 255 16 is_stmt 0 view .LVU217
 933 000a FFF7FEFF 		bl	USBH_Get_USB_Status
 934              	.LVL88:
 257:USB_HOST/Target/usbh_conf.c **** }
 935              		.loc 1 257 3 is_stmt 1 view .LVU218
 258:USB_HOST/Target/usbh_conf.c **** 
ARM GAS  C:\Users\ashto\AppData\Local\Temp\ccycEUVe.s 			page 28


 936              		.loc 1 258 1 is_stmt 0 view .LVU219
 937 000e 08BD     		pop	{r3, pc}
 938              		.cfi_endproc
 939              	.LFE151:
 941              		.section	.text.USBH_LL_Stop,"ax",%progbits
 942              		.align	1
 943              		.global	USBH_LL_Stop
 944              		.syntax unified
 945              		.thumb
 946              		.thumb_func
 948              	USBH_LL_Stop:
 949              	.LVL89:
 950              	.LFB152:
 266:USB_HOST/Target/usbh_conf.c ****   HAL_StatusTypeDef hal_status = HAL_OK;
 951              		.loc 1 266 1 is_stmt 1 view -0
 952              		.cfi_startproc
 953              		@ args = 0, pretend = 0, frame = 0
 954              		@ frame_needed = 0, uses_anonymous_args = 0
 266:USB_HOST/Target/usbh_conf.c ****   HAL_StatusTypeDef hal_status = HAL_OK;
 955              		.loc 1 266 1 is_stmt 0 view .LVU221
 956 0000 08B5     		push	{r3, lr}
 957              	.LCFI19:
 958              		.cfi_def_cfa_offset 8
 959              		.cfi_offset 3, -8
 960              		.cfi_offset 14, -4
 267:USB_HOST/Target/usbh_conf.c ****   USBH_StatusTypeDef usb_status = USBH_OK;
 961              		.loc 1 267 3 is_stmt 1 view .LVU222
 962              	.LVL90:
 268:USB_HOST/Target/usbh_conf.c **** 
 963              		.loc 1 268 3 view .LVU223
 270:USB_HOST/Target/usbh_conf.c **** 
 964              		.loc 1 270 3 view .LVU224
 270:USB_HOST/Target/usbh_conf.c **** 
 965              		.loc 1 270 16 is_stmt 0 view .LVU225
 966 0002 D0F8D003 		ldr	r0, [r0, #976]
 967              	.LVL91:
 270:USB_HOST/Target/usbh_conf.c **** 
 968              		.loc 1 270 16 view .LVU226
 969 0006 FFF7FEFF 		bl	HAL_HCD_Stop
 970              	.LVL92:
 272:USB_HOST/Target/usbh_conf.c **** 
 971              		.loc 1 272 3 is_stmt 1 view .LVU227
 272:USB_HOST/Target/usbh_conf.c **** 
 972              		.loc 1 272 16 is_stmt 0 view .LVU228
 973 000a FFF7FEFF 		bl	USBH_Get_USB_Status
 974              	.LVL93:
 274:USB_HOST/Target/usbh_conf.c **** }
 975              		.loc 1 274 3 is_stmt 1 view .LVU229
 275:USB_HOST/Target/usbh_conf.c **** 
 976              		.loc 1 275 1 is_stmt 0 view .LVU230
 977 000e 08BD     		pop	{r3, pc}
 978              		.cfi_endproc
 979              	.LFE152:
 981              		.section	.text.USBH_LL_ResetPort,"ax",%progbits
 982              		.align	1
 983              		.global	USBH_LL_ResetPort
 984              		.syntax unified
ARM GAS  C:\Users\ashto\AppData\Local\Temp\ccycEUVe.s 			page 29


 985              		.thumb
 986              		.thumb_func
 988              	USBH_LL_ResetPort:
 989              	.LVL94:
 990              	.LFB154:
 313:USB_HOST/Target/usbh_conf.c ****   HAL_StatusTypeDef hal_status = HAL_OK;
 991              		.loc 1 313 1 is_stmt 1 view -0
 992              		.cfi_startproc
 993              		@ args = 0, pretend = 0, frame = 0
 994              		@ frame_needed = 0, uses_anonymous_args = 0
 313:USB_HOST/Target/usbh_conf.c ****   HAL_StatusTypeDef hal_status = HAL_OK;
 995              		.loc 1 313 1 is_stmt 0 view .LVU232
 996 0000 08B5     		push	{r3, lr}
 997              	.LCFI20:
 998              		.cfi_def_cfa_offset 8
 999              		.cfi_offset 3, -8
 1000              		.cfi_offset 14, -4
 314:USB_HOST/Target/usbh_conf.c ****   USBH_StatusTypeDef usb_status = USBH_OK;
 1001              		.loc 1 314 3 is_stmt 1 view .LVU233
 1002              	.LVL95:
 315:USB_HOST/Target/usbh_conf.c **** 
 1003              		.loc 1 315 3 view .LVU234
 317:USB_HOST/Target/usbh_conf.c **** 
 1004              		.loc 1 317 3 view .LVU235
 317:USB_HOST/Target/usbh_conf.c **** 
 1005              		.loc 1 317 16 is_stmt 0 view .LVU236
 1006 0002 D0F8D003 		ldr	r0, [r0, #976]
 1007              	.LVL96:
 317:USB_HOST/Target/usbh_conf.c **** 
 1008              		.loc 1 317 16 view .LVU237
 1009 0006 FFF7FEFF 		bl	HAL_HCD_ResetPort
 1010              	.LVL97:
 319:USB_HOST/Target/usbh_conf.c **** 
 1011              		.loc 1 319 3 is_stmt 1 view .LVU238
 319:USB_HOST/Target/usbh_conf.c **** 
 1012              		.loc 1 319 16 is_stmt 0 view .LVU239
 1013 000a FFF7FEFF 		bl	USBH_Get_USB_Status
 1014              	.LVL98:
 321:USB_HOST/Target/usbh_conf.c **** }
 1015              		.loc 1 321 3 is_stmt 1 view .LVU240
 322:USB_HOST/Target/usbh_conf.c **** 
 1016              		.loc 1 322 1 is_stmt 0 view .LVU241
 1017 000e 08BD     		pop	{r3, pc}
 1018              		.cfi_endproc
 1019              	.LFE154:
 1021              		.section	.text.USBH_LL_OpenPipe,"ax",%progbits
 1022              		.align	1
 1023              		.global	USBH_LL_OpenPipe
 1024              		.syntax unified
 1025              		.thumb
 1026              		.thumb_func
 1028              	USBH_LL_OpenPipe:
 1029              	.LVL99:
 1030              	.LFB156:
 348:USB_HOST/Target/usbh_conf.c ****   HAL_StatusTypeDef hal_status = HAL_OK;
 1031              		.loc 1 348 1 is_stmt 1 view -0
 1032              		.cfi_startproc
ARM GAS  C:\Users\ashto\AppData\Local\Temp\ccycEUVe.s 			page 30


 1033              		@ args = 12, pretend = 0, frame = 0
 1034              		@ frame_needed = 0, uses_anonymous_args = 0
 348:USB_HOST/Target/usbh_conf.c ****   HAL_StatusTypeDef hal_status = HAL_OK;
 1035              		.loc 1 348 1 is_stmt 0 view .LVU243
 1036 0000 10B5     		push	{r4, lr}
 1037              	.LCFI21:
 1038              		.cfi_def_cfa_offset 8
 1039              		.cfi_offset 4, -8
 1040              		.cfi_offset 14, -4
 1041 0002 84B0     		sub	sp, sp, #16
 1042              	.LCFI22:
 1043              		.cfi_def_cfa_offset 24
 349:USB_HOST/Target/usbh_conf.c ****   USBH_StatusTypeDef usb_status = USBH_OK;
 1044              		.loc 1 349 3 is_stmt 1 view .LVU244
 1045              	.LVL100:
 350:USB_HOST/Target/usbh_conf.c **** 
 1046              		.loc 1 350 3 view .LVU245
 352:USB_HOST/Target/usbh_conf.c ****                                dev_address, speed, ep_type, mps);
 1047              		.loc 1 352 3 view .LVU246
 352:USB_HOST/Target/usbh_conf.c ****                                dev_address, speed, ep_type, mps);
 1048              		.loc 1 352 37 is_stmt 0 view .LVU247
 1049 0004 D0F8D003 		ldr	r0, [r0, #976]
 1050              	.LVL101:
 352:USB_HOST/Target/usbh_conf.c ****                                dev_address, speed, ep_type, mps);
 1051              		.loc 1 352 16 view .LVU248
 1052 0008 BDF82040 		ldrh	r4, [sp, #32]
 1053 000c 0294     		str	r4, [sp, #8]
 1054 000e 9DF81C40 		ldrb	r4, [sp, #28]	@ zero_extendqisi2
 1055 0012 0194     		str	r4, [sp, #4]
 1056 0014 9DF81840 		ldrb	r4, [sp, #24]	@ zero_extendqisi2
 1057 0018 0094     		str	r4, [sp]
 1058 001a FFF7FEFF 		bl	HAL_HCD_HC_Init
 1059              	.LVL102:
 355:USB_HOST/Target/usbh_conf.c **** 
 1060              		.loc 1 355 3 is_stmt 1 view .LVU249
 355:USB_HOST/Target/usbh_conf.c **** 
 1061              		.loc 1 355 16 is_stmt 0 view .LVU250
 1062 001e FFF7FEFF 		bl	USBH_Get_USB_Status
 1063              	.LVL103:
 357:USB_HOST/Target/usbh_conf.c **** }
 1064              		.loc 1 357 3 is_stmt 1 view .LVU251
 358:USB_HOST/Target/usbh_conf.c **** 
 1065              		.loc 1 358 1 is_stmt 0 view .LVU252
 1066 0022 04B0     		add	sp, sp, #16
 1067              	.LCFI23:
 1068              		.cfi_def_cfa_offset 8
 1069              		@ sp needed
 1070 0024 10BD     		pop	{r4, pc}
 358:USB_HOST/Target/usbh_conf.c **** 
 1071              		.loc 1 358 1 view .LVU253
 1072              		.cfi_endproc
 1073              	.LFE156:
 1075              		.section	.text.USBH_LL_ClosePipe,"ax",%progbits
 1076              		.align	1
 1077              		.global	USBH_LL_ClosePipe
 1078              		.syntax unified
 1079              		.thumb
ARM GAS  C:\Users\ashto\AppData\Local\Temp\ccycEUVe.s 			page 31


 1080              		.thumb_func
 1082              	USBH_LL_ClosePipe:
 1083              	.LVL104:
 1084              	.LFB157:
 367:USB_HOST/Target/usbh_conf.c ****   HAL_StatusTypeDef hal_status = HAL_OK;
 1085              		.loc 1 367 1 is_stmt 1 view -0
 1086              		.cfi_startproc
 1087              		@ args = 0, pretend = 0, frame = 0
 1088              		@ frame_needed = 0, uses_anonymous_args = 0
 367:USB_HOST/Target/usbh_conf.c ****   HAL_StatusTypeDef hal_status = HAL_OK;
 1089              		.loc 1 367 1 is_stmt 0 view .LVU255
 1090 0000 08B5     		push	{r3, lr}
 1091              	.LCFI24:
 1092              		.cfi_def_cfa_offset 8
 1093              		.cfi_offset 3, -8
 1094              		.cfi_offset 14, -4
 368:USB_HOST/Target/usbh_conf.c ****   USBH_StatusTypeDef usb_status = USBH_OK;
 1095              		.loc 1 368 3 is_stmt 1 view .LVU256
 1096              	.LVL105:
 369:USB_HOST/Target/usbh_conf.c **** 
 1097              		.loc 1 369 3 view .LVU257
 371:USB_HOST/Target/usbh_conf.c **** 
 1098              		.loc 1 371 3 view .LVU258
 371:USB_HOST/Target/usbh_conf.c **** 
 1099              		.loc 1 371 16 is_stmt 0 view .LVU259
 1100 0002 D0F8D003 		ldr	r0, [r0, #976]
 1101              	.LVL106:
 371:USB_HOST/Target/usbh_conf.c **** 
 1102              		.loc 1 371 16 view .LVU260
 1103 0006 FFF7FEFF 		bl	HAL_HCD_HC_Halt
 1104              	.LVL107:
 373:USB_HOST/Target/usbh_conf.c **** 
 1105              		.loc 1 373 3 is_stmt 1 view .LVU261
 373:USB_HOST/Target/usbh_conf.c **** 
 1106              		.loc 1 373 16 is_stmt 0 view .LVU262
 1107 000a FFF7FEFF 		bl	USBH_Get_USB_Status
 1108              	.LVL108:
 375:USB_HOST/Target/usbh_conf.c **** }
 1109              		.loc 1 375 3 is_stmt 1 view .LVU263
 376:USB_HOST/Target/usbh_conf.c **** 
 1110              		.loc 1 376 1 is_stmt 0 view .LVU264
 1111 000e 08BD     		pop	{r3, pc}
 1112              		.cfi_endproc
 1113              	.LFE157:
 1115              		.section	.text.USBH_LL_SubmitURB,"ax",%progbits
 1116              		.align	1
 1117              		.global	USBH_LL_SubmitURB
 1118              		.syntax unified
 1119              		.thumb
 1120              		.thumb_func
 1122              	USBH_LL_SubmitURB:
 1123              	.LVL109:
 1124              	.LFB158:
 408:USB_HOST/Target/usbh_conf.c ****   HAL_StatusTypeDef hal_status = HAL_OK;
 1125              		.loc 1 408 1 is_stmt 1 view -0
 1126              		.cfi_startproc
 1127              		@ args = 16, pretend = 0, frame = 0
ARM GAS  C:\Users\ashto\AppData\Local\Temp\ccycEUVe.s 			page 32


 1128              		@ frame_needed = 0, uses_anonymous_args = 0
 408:USB_HOST/Target/usbh_conf.c ****   HAL_StatusTypeDef hal_status = HAL_OK;
 1129              		.loc 1 408 1 is_stmt 0 view .LVU266
 1130 0000 10B5     		push	{r4, lr}
 1131              	.LCFI25:
 1132              		.cfi_def_cfa_offset 8
 1133              		.cfi_offset 4, -8
 1134              		.cfi_offset 14, -4
 1135 0002 84B0     		sub	sp, sp, #16
 1136              	.LCFI26:
 1137              		.cfi_def_cfa_offset 24
 409:USB_HOST/Target/usbh_conf.c ****   USBH_StatusTypeDef usb_status = USBH_OK;
 1138              		.loc 1 409 3 is_stmt 1 view .LVU267
 1139              	.LVL110:
 410:USB_HOST/Target/usbh_conf.c **** 
 1140              		.loc 1 410 3 view .LVU268
 412:USB_HOST/Target/usbh_conf.c ****                                         ep_type, token, pbuff, length,
 1141              		.loc 1 412 3 view .LVU269
 412:USB_HOST/Target/usbh_conf.c ****                                         ep_type, token, pbuff, length,
 1142              		.loc 1 412 46 is_stmt 0 view .LVU270
 1143 0004 D0F8D003 		ldr	r0, [r0, #976]
 1144              	.LVL111:
 412:USB_HOST/Target/usbh_conf.c ****                                         ep_type, token, pbuff, length,
 1145              		.loc 1 412 16 view .LVU271
 1146 0008 9DF82440 		ldrb	r4, [sp, #36]	@ zero_extendqisi2
 1147 000c 0394     		str	r4, [sp, #12]
 1148 000e BDF82040 		ldrh	r4, [sp, #32]
 1149 0012 0294     		str	r4, [sp, #8]
 1150 0014 079C     		ldr	r4, [sp, #28]
 1151 0016 0194     		str	r4, [sp, #4]
 1152 0018 9DF81840 		ldrb	r4, [sp, #24]	@ zero_extendqisi2
 1153 001c 0094     		str	r4, [sp]
 1154 001e FFF7FEFF 		bl	HAL_HCD_HC_SubmitRequest
 1155              	.LVL112:
 415:USB_HOST/Target/usbh_conf.c **** 
 1156              		.loc 1 415 3 is_stmt 1 view .LVU272
 415:USB_HOST/Target/usbh_conf.c **** 
 1157              		.loc 1 415 17 is_stmt 0 view .LVU273
 1158 0022 FFF7FEFF 		bl	USBH_Get_USB_Status
 1159              	.LVL113:
 417:USB_HOST/Target/usbh_conf.c **** }
 1160              		.loc 1 417 3 is_stmt 1 view .LVU274
 418:USB_HOST/Target/usbh_conf.c **** 
 1161              		.loc 1 418 1 is_stmt 0 view .LVU275
 1162 0026 04B0     		add	sp, sp, #16
 1163              	.LCFI27:
 1164              		.cfi_def_cfa_offset 8
 1165              		@ sp needed
 1166 0028 10BD     		pop	{r4, pc}
 418:USB_HOST/Target/usbh_conf.c **** 
 1167              		.loc 1 418 1 view .LVU276
 1168              		.cfi_endproc
 1169              	.LFE158:
 1171              		.global	hhcd_USB_OTG_FS
 1172              		.section	.bss.hhcd_USB_OTG_FS,"aw",%nobits
 1173              		.align	2
 1174              		.set	.LANCHOR0,. + 0
ARM GAS  C:\Users\ashto\AppData\Local\Temp\ccycEUVe.s 			page 33


 1177              	hhcd_USB_OTG_FS:
 1178 0000 00000000 		.space	992
 1178      00000000 
 1178      00000000 
 1178      00000000 
 1178      00000000 
 1179              		.text
 1180              	.Letext0:
 1181              		.file 2 "c:\\program files (x86)\\gnu arm embedded toolchain\\10 2021.10\\arm-none-eabi\\include\\
 1182              		.file 3 "c:\\program files (x86)\\gnu arm embedded toolchain\\10 2021.10\\arm-none-eabi\\include\\
 1183              		.file 4 "Drivers/CMSIS/Device/ST/STM32F4xx/Include/stm32f407xx.h"
 1184              		.file 5 "Drivers/CMSIS/Device/ST/STM32F4xx/Include/stm32f4xx.h"
 1185              		.file 6 "Drivers/STM32F4xx_HAL_Driver/Inc/stm32f4xx_hal_def.h"
 1186              		.file 7 "Drivers/STM32F4xx_HAL_Driver/Inc/stm32f4xx_hal_gpio.h"
 1187              		.file 8 "Drivers/STM32F4xx_HAL_Driver/Inc/stm32f4xx_ll_usb.h"
 1188              		.file 9 "Drivers/STM32F4xx_HAL_Driver/Inc/stm32f4xx_hal_hcd.h"
 1189              		.file 10 "Middlewares/Third_Party/FreeRTOS/Source/CMSIS_RTOS_V2/cmsis_os2.h"
 1190              		.file 11 "Middlewares/ST/STM32_USB_Host_Library/Core/Inc/usbh_def.h"
 1191              		.file 12 "Drivers/STM32F4xx_HAL_Driver/Inc/stm32f4xx_hal.h"
 1192              		.file 13 "USB_HOST/Target/usbh_platform.h"
 1193              		.file 14 "Middlewares/ST/STM32_USB_Host_Library/Core/Inc/usbh_core.h"
 1194              		.file 15 "Drivers/STM32F4xx_HAL_Driver/Inc/stm32f4xx_hal_cortex.h"
ARM GAS  C:\Users\ashto\AppData\Local\Temp\ccycEUVe.s 			page 34

